TN:
SF:/mnt/c/Users/senya/CLionProjects/fund_alg_4sem/lab1_3/cmake-build-debug/_deps/googletest-src/googletest/include/gtest/gtest-assertion-result.h
FN:155,161,_ZN7testing15AssertionResultC2IbEERKT_PNSt9enable_ifIXntsrSt14is_convertibleIS2_S0_E5valueEvE4typeE
FN:174,174,_ZNK7testing15AssertionResultcvbEv
FN:183,185,_ZNK7testing15AssertionResult7messageEv
FN:187,187,_ZNK7testing15AssertionResult15failure_messageEv
FN:191,194,_ZN7testing15AssertionResultlsIA12_cEERS0_RKT_
FN:191,194,_ZN7testing15AssertionResultlsIA3_cEERS0_RKT_
FN:191,194,_ZN7testing15AssertionResultlsIA5_cEERS0_RKT_
FN:191,194,_ZN7testing15AssertionResultlsINSt7__cxx1112basic_stringIcSt11char_traitsIcESaIcEEEEERS0_RKT_
FN:191,194,_ZN7testing15AssertionResultlsIPKcEERS0_RKT_
FN:206,209,_ZN7testing15AssertionResult13AppendMessageERKNS_7MessageE
FNDA:21,_ZN7testing15AssertionResultC2IbEERKT_PNSt9enable_ifIXntsrSt14is_convertibleIS2_S0_E5valueEvE4typeE
FNDA:21,_ZNK7testing15AssertionResultcvbEv
FNDA:0,_ZNK7testing15AssertionResult7messageEv
FNDA:0,_ZNK7testing15AssertionResult15failure_messageEv
FNDA:0,_ZN7testing15AssertionResultlsIA12_cEERS0_RKT_
FNDA:0,_ZN7testing15AssertionResultlsIA3_cEERS0_RKT_
FNDA:0,_ZN7testing15AssertionResultlsIA5_cEERS0_RKT_
FNDA:0,_ZN7testing15AssertionResultlsINSt7__cxx1112basic_stringIcSt11char_traitsIcESaIcEEEEERS0_RKT_
FNDA:0,_ZN7testing15AssertionResultlsIPKcEERS0_RKT_
FNDA:0,_ZN7testing15AssertionResult13AppendMessageERKNS_7MessageE
FNF:10
FNH:2
DA:155,21
DA:161,21
DA:174,21
DA:183,0
DA:184,0
DA:187,0
DA:191,0
DA:192,0
DA:193,0
DA:206,0
DA:207,0
DA:208,0
DA:209,0
LF:13
LH:3
end_of_record
TN:
SF:/mnt/c/Users/senya/CLionProjects/fund_alg_4sem/lab1_3/cmake-build-debug/_deps/googletest-src/googletest/include/gtest/gtest-message.h
FN:132,150,_ZN7testing7MessagelsIA12_cEERS0_RKT_
FN:132,150,_ZN7testing7MessagelsIA3_cEERS0_RKT_
FN:132,150,_ZN7testing7MessagelsIA5_cEERS0_RKT_
FN:132,150,_ZN7testing7MessagelsINSt7__cxx1112basic_stringIcSt11char_traitsIcESaIcEEEEERS0_RKT_
FN:182,189,_ZN7testing7MessagelsIKcEERS0_RKPT_
FNDA:0,_ZN7testing7MessagelsIA12_cEERS0_RKT_
FNDA:0,_ZN7testing7MessagelsIA3_cEERS0_RKT_
FNDA:0,_ZN7testing7MessagelsIA5_cEERS0_RKT_
FNDA:0,_ZN7testing7MessagelsINSt7__cxx1112basic_stringIcSt11char_traitsIcESaIcEEEEERS0_RKT_
FNDA:42,_ZN7testing7MessagelsIKcEERS0_RKPT_
FNF:5
FNH:1
DA:132,0
DA:148,0
DA:149,0
DA:182,42
DA:183,42
DA:184,0
DA:186,42
DA:188,42
LF:8
LH:4
end_of_record
TN:
SF:/mnt/c/Users/senya/CLionProjects/fund_alg_4sem/lab1_3/cmake-build-debug/_deps/googletest-src/googletest/include/gtest/gtest-printers.h
FN:1108,1113,_ZN7testing8internal14UniversalPrintIiEEvRKT_PSo
FN:1108,1113,_ZN7testing8internal14UniversalPrintImEEvRKT_PSo
FN:1148,1152,_ZN7testing13PrintToStringIiEENSt7__cxx1112basic_stringIcSt11char_traitsIcESaIcEEERKT_
FN:1148,1152,_ZN7testing13PrintToStringImEENSt7__cxx1112basic_stringIcSt11char_traitsIcESaIcEEERKT_
FN:221,226,_ZN7testing8internal52internal_stream_operator_without_lexical_name_lookup13StreamPrinter10PrintValueIivEEDTcvvlsdefp0_fp_ERKT_PSo
FN:221,226,_ZN7testing8internal52internal_stream_operator_without_lexical_name_lookup13StreamPrinter10PrintValueImvEEDTcvvlsdefp0_fp_ERKT_PSo
FN:326,337,_ZN7testing8internal17PrintWithFallbackIiEEvRKT_PSo
FN:326,337,_ZN7testing8internal17PrintWithFallbackImEEvRKT_PSo
FN:357,359,_ZN7testing8internal19FormatForComparisonIiiE6FormatB5cxx11ERKi
FN:357,359,_ZN7testing8internal19FormatForComparisonIimE6FormatB5cxx11ERKi
FN:357,359,_ZN7testing8internal19FormatForComparisonImiE6FormatB5cxx11ERKm
FN:437,440,_ZN7testing8internal33FormatForComparisonFailureMessageIiiEENSt7__cxx1112basic_stringIcSt11char_traitsIcESaIcEEERKT_RKT0_
FN:437,440,_ZN7testing8internal33FormatForComparisonFailureMessageIimEENSt7__cxx1112basic_stringIcSt11char_traitsIcESaIcEEERKT_RKT0_
FN:437,440,_ZN7testing8internal33FormatForComparisonFailureMessageImiEENSt7__cxx1112basic_stringIcSt11char_traitsIcESaIcEEERKT_RKT0_
FN:464,466,_ZN7testing8internal7PrintToIiEEvRKT_PSo
FN:464,466,_ZN7testing8internal7PrintToImEEvRKT_PSo
FN:799,809,_ZN7testing8internal16UniversalPrinterIiE5PrintERKiPSo
FN:799,809,_ZN7testing8internal16UniversalPrinterImE5PrintERKmPSo
FN:989,991,_ZN7testing8internal21UniversalTersePrinterIiE5PrintERKiPSo
FN:989,991,_ZN7testing8internal21UniversalTersePrinterImE5PrintERKmPSo
FNDA:0,_ZN7testing8internal14UniversalPrintIiEEvRKT_PSo
FNDA:0,_ZN7testing8internal14UniversalPrintImEEvRKT_PSo
FNDA:0,_ZN7testing13PrintToStringIiEENSt7__cxx1112basic_stringIcSt11char_traitsIcESaIcEEERKT_
FNDA:0,_ZN7testing13PrintToStringImEENSt7__cxx1112basic_stringIcSt11char_traitsIcESaIcEEERKT_
FNDA:0,_ZN7testing8internal52internal_stream_operator_without_lexical_name_lookup13StreamPrinter10PrintValueIivEEDTcvvlsdefp0_fp_ERKT_PSo
FNDA:0,_ZN7testing8internal52internal_stream_operator_without_lexical_name_lookup13StreamPrinter10PrintValueImvEEDTcvvlsdefp0_fp_ERKT_PSo
FNDA:0,_ZN7testing8internal17PrintWithFallbackIiEEvRKT_PSo
FNDA:0,_ZN7testing8internal17PrintWithFallbackImEEvRKT_PSo
FNDA:0,_ZN7testing8internal19FormatForComparisonIiiE6FormatB5cxx11ERKi
FNDA:0,_ZN7testing8internal19FormatForComparisonIimE6FormatB5cxx11ERKi
FNDA:0,_ZN7testing8internal19FormatForComparisonImiE6FormatB5cxx11ERKm
FNDA:0,_ZN7testing8internal33FormatForComparisonFailureMessageIiiEENSt7__cxx1112basic_stringIcSt11char_traitsIcESaIcEEERKT_RKT0_
FNDA:0,_ZN7testing8internal33FormatForComparisonFailureMessageIimEENSt7__cxx1112basic_stringIcSt11char_traitsIcESaIcEEERKT_RKT0_
FNDA:0,_ZN7testing8internal33FormatForComparisonFailureMessageImiEENSt7__cxx1112basic_stringIcSt11char_traitsIcESaIcEEERKT_RKT0_
FNDA:0,_ZN7testing8internal7PrintToIiEEvRKT_PSo
FNDA:0,_ZN7testing8internal7PrintToImEEvRKT_PSo
FNDA:0,_ZN7testing8internal16UniversalPrinterIiE5PrintERKiPSo
FNDA:0,_ZN7testing8internal16UniversalPrinterImE5PrintERKmPSo
FNDA:0,_ZN7testing8internal21UniversalTersePrinterIiE5PrintERKiPSo
FNDA:0,_ZN7testing8internal21UniversalTersePrinterImE5PrintERKmPSo
FNF:20
FNH:0
DA:221,0
DA:225,0
DA:226,0
DA:326,0
DA:336,0
DA:337,0
DA:357,0
DA:358,0
DA:437,0
DA:439,0
DA:464,0
DA:465,0
DA:466,0
DA:799,0
DA:808,0
DA:809,0
DA:989,0
DA:990,0
DA:991,0
DA:1108,0
DA:1112,0
DA:1113,0
DA:1148,0
DA:1149,0
DA:1150,0
DA:1151,0
DA:1152,0
LF:27
LH:0
end_of_record
TN:
SF:/mnt/c/Users/senya/CLionProjects/fund_alg_4sem/lab1_3/cmake-build-debug/_deps/googletest-src/googletest/include/gtest/gtest.h
FN:1359,1365,_ZN7testing8internal18CmpHelperEQFailureIiiEENS_15AssertionResultEPKcS4_RKT_RKT0_
FN:1359,1365,_ZN7testing8internal18CmpHelperEQFailureImiEENS_15AssertionResultEPKcS4_RKT_RKT0_
FN:1376,1384,_ZN7testing8internal11CmpHelperEQIiiEENS_15AssertionResultEPKcS4_RKT_RKT0_
FN:1376,1384,_ZN7testing8internal11CmpHelperEQImiEENS_15AssertionResultEPKcS4_RKT_RKT0_
FN:1395,1399,_ZN7testing8internal8EqHelper7CompareIiiLPv0EEENS_15AssertionResultEPKcS6_RKT_RKT0_
FN:1395,1399,_ZN7testing8internal8EqHelper7CompareImiLPv0EEENS_15AssertionResultEPKcS6_RKT_RKT0_
FN:1428,1435,_ZN7testing8internal18CmpHelperOpFailureImiEENS_15AssertionResultEPKcS4_RKT_RKT0_S4_
FN:1465,1465,_ZN7testing8internal11CmpHelperGTImiEENS_15AssertionResultEPKcS4_RKT_RKT0_
FN:256,256,_ZN7testing4Test14SetUpTestSuiteEv
FN:264,264,_ZN7testing4Test17TearDownTestSuiteEv
FN:269,269,_ZN7testing4Test16TearDownTestCaseEv
FN:270,270,_ZN7testing4Test13SetUpTestCaseEv
FN:357,357,_ZN7testing4Test5SetupEv
FNDA:0,_ZN7testing8internal18CmpHelperEQFailureIiiEENS_15AssertionResultEPKcS4_RKT_RKT0_
FNDA:0,_ZN7testing8internal18CmpHelperEQFailureImiEENS_15AssertionResultEPKcS4_RKT_RKT0_
FNDA:11,_ZN7testing8internal11CmpHelperEQIiiEENS_15AssertionResultEPKcS4_RKT_RKT0_
FNDA:6,_ZN7testing8internal11CmpHelperEQImiEENS_15AssertionResultEPKcS4_RKT_RKT0_
FNDA:11,_ZN7testing8internal8EqHelper7CompareIiiLPv0EEENS_15AssertionResultEPKcS6_RKT_RKT0_
FNDA:6,_ZN7testing8internal8EqHelper7CompareImiLPv0EEENS_15AssertionResultEPKcS6_RKT_RKT0_
FNDA:0,_ZN7testing8internal18CmpHelperOpFailureImiEENS_15AssertionResultEPKcS4_RKT_RKT0_S4_
FNDA:1,_ZN7testing8internal11CmpHelperGTImiEENS_15AssertionResultEPKcS4_RKT_RKT0_
FNDA:0,_ZN7testing4Test14SetUpTestSuiteEv
FNDA:0,_ZN7testing4Test17TearDownTestSuiteEv
FNDA:0,_ZN7testing4Test16TearDownTestCaseEv
FNDA:0,_ZN7testing4Test13SetUpTestCaseEv
FNDA:0,_ZN7testing4Test5SetupEv
FNF:13
FNH:5
DA:256,0
DA:264,0
DA:269,0
DA:270,0
DA:357,0
DA:1359,0
DA:1364,0
DA:1376,17
DA:1379,17
DA:1380,17
DA:1383,0
DA:1395,17
DA:1398,17
DA:1428,0
DA:1432,0
DA:1433,0
DA:1434,0
DA:1465,1
LF:18
LH:6
end_of_record
TN:
SF:/mnt/c/Users/senya/CLionProjects/fund_alg_4sem/lab1_3/cmake-build-debug/_deps/googletest-src/googletest/include/gtest/internal/gtest-internal.h
FN:419,425,_ZN7testing8internal9GetTypeIdI9DequeTestEEPKvv
FN:438,438,_ZN7testing8internal15TestFactoryBaseD0Ev
FN:438,438,_ZN7testing8internal15TestFactoryBaseD2Ev
FN:445,445,_ZN7testing8internal15TestFactoryBaseC2Ev
FN:457,457,_ZN7testing8internal15TestFactoryImplI24DequeTest_SwapWorks_TestE10CreateTestEv
FN:457,457,_ZN7testing8internal15TestFactoryImplI29DequeTest_ResizeDecrease_TestE10CreateTestEv
FN:457,457,_ZN7testing8internal15TestFactoryImplI31DequeTest_EqualityOperator_TestE10CreateTestEv
FN:457,457,_ZN7testing8internal15TestFactoryImplI32DequeTest_ClearEmptiesDeque_TestE10CreateTestEv
FN:457,457,_ZN7testing8internal15TestFactoryImplI33DequeTest_InequalityOperator_TestE10CreateTestEv
FN:457,457,_ZN7testing8internal15TestFactoryImplI35DequeTest_PopBackPopFrontWorks_TestE10CreateTestEv
FN:457,457,_ZN7testing8internal15TestFactoryImplI37DequeTest_PushBackPushFrontWorks_TestE10CreateTestEv
FN:457,457,_ZN7testing8internal15TestFactoryImplI38DequeTest_IteratorsAccessElements_TestE10CreateTestEv
FN:457,457,_ZN7testing8internal15TestFactoryImplI38DequeTest_MaxSizeReturnsSomething_TestE10CreateTestEv
FN:457,457,_ZN7testing8internal15TestFactoryImplI38DequeTest_ResizeIncreaseWithValue_TestE10CreateTestEv
FN:457,457,_ZN7testing8internal15TestFactoryImplI40DequeTest_ResizeIncreaseWithDefault_TestE10CreateTestEv
FN:478,479,_ZN7testing8internal12CodeLocationC2ERKNSt7__cxx1112basic_stringIcSt11char_traitsIcESaIcEEEi
FN:491,494,_ZN7testing8internal19GetNotDefaultOrNullEPFvvES2_
FN:506,525,_ZN7testing8internal16SuiteApiResolverI9DequeTestE19GetSetUpCaseOrSuiteEPKci
FN:527,546,_ZN7testing8internal16SuiteApiResolverI9DequeTestE22GetTearDownCaseOrSuiteEPKci
FNDA:22,_ZN7testing8internal9GetTypeIdI9DequeTestEEPKvv
FNDA:0,_ZN7testing8internal15TestFactoryBaseD0Ev
FNDA:22,_ZN7testing8internal15TestFactoryBaseD2Ev
FNDA:22,_ZN7testing8internal15TestFactoryBaseC2Ev
FNDA:1,_ZN7testing8internal15TestFactoryImplI24DequeTest_SwapWorks_TestE10CreateTestEv
FNDA:1,_ZN7testing8internal15TestFactoryImplI29DequeTest_ResizeDecrease_TestE10CreateTestEv
FNDA:1,_ZN7testing8internal15TestFactoryImplI31DequeTest_EqualityOperator_TestE10CreateTestEv
FNDA:1,_ZN7testing8internal15TestFactoryImplI32DequeTest_ClearEmptiesDeque_TestE10CreateTestEv
FNDA:1,_ZN7testing8internal15TestFactoryImplI33DequeTest_InequalityOperator_TestE10CreateTestEv
FNDA:1,_ZN7testing8internal15TestFactoryImplI35DequeTest_PopBackPopFrontWorks_TestE10CreateTestEv
FNDA:1,_ZN7testing8internal15TestFactoryImplI37DequeTest_PushBackPushFrontWorks_TestE10CreateTestEv
FNDA:1,_ZN7testing8internal15TestFactoryImplI38DequeTest_IteratorsAccessElements_TestE10CreateTestEv
FNDA:1,_ZN7testing8internal15TestFactoryImplI38DequeTest_MaxSizeReturnsSomething_TestE10CreateTestEv
FNDA:1,_ZN7testing8internal15TestFactoryImplI38DequeTest_ResizeIncreaseWithValue_TestE10CreateTestEv
FNDA:1,_ZN7testing8internal15TestFactoryImplI40DequeTest_ResizeIncreaseWithDefault_TestE10CreateTestEv
FNDA:22,_ZN7testing8internal12CodeLocationC2ERKNSt7__cxx1112basic_stringIcSt11char_traitsIcESaIcEEEi
FNDA:88,_ZN7testing8internal19GetNotDefaultOrNullEPFvvES2_
FNDA:22,_ZN7testing8internal16SuiteApiResolverI9DequeTestE19GetSetUpCaseOrSuiteEPKci
FNDA:22,_ZN7testing8internal16SuiteApiResolverI9DequeTestE22GetTearDownCaseOrSuiteEPKci
FNF:19
FNH:18
DA:419,22
DA:424,22
DA:438,22
DA:445,22
DA:457,11
DA:478,22
DA:479,22
DA:491,88
DA:493,88
DA:506,22
DA:510,22
DA:512,22
DA:514,22
DA:517,0
DA:519,22
DA:527,22
DA:531,22
DA:533,22
DA:535,22
DA:538,0
DA:540,22
LF:21
LH:19
end_of_record
TN:
SF:/mnt/c/Users/senya/CLionProjects/fund_alg_4sem/lab1_3/cmake-build-debug/_deps/googletest-src/googletest/include/gtest/internal/gtest-port.h
FN:1042,1042,_ZN7testing8internal8GTestLog9GetStreamEv
FNDA:0,_ZN7testing8internal8GTestLog9GetStreamEv
FNF:1
FNH:0
DA:1042,0
LF:1
LH:0
end_of_record
TN:
SF:/mnt/c/Users/senya/CLionProjects/fund_alg_4sem/lab1_3/include/container.h
FN:14,14,_ZN9ContainerIiEC2Ev
FN:18,18,_ZN9ContainerIiED0Ev
FN:18,18,_ZN9ContainerIiED2Ev
FNDA:14,_ZN9ContainerIiEC2Ev
FNDA:0,_ZN9ContainerIiED0Ev
FNDA:14,_ZN9ContainerIiED2Ev
FNF:3
FNH:2
DA:14,14
DA:18,14
LF:2
LH:2
end_of_record
TN:
SF:/mnt/c/Users/senya/CLionProjects/fund_alg_4sem/lab1_3/include/deque.h
FN:22,22,_ZN12my_container5DequeIiEC2Ev
FN:30,30,_ZN12my_container5DequeIiED0Ev
FN:30,30,_ZN12my_container5DequeIiED2Ev
FN:48,48,_ZN12my_container5DequeIiE5frontEv
FN:51,51,_ZN12my_container5DequeIiE4backEv
FN:54,54,_ZN12my_container5DequeIiE5beginEv
FN:55,55,_ZNK12my_container5DequeIiE6cbeginEv
FN:57,57,_ZN12my_container5DequeIiE3endEv
FN:58,58,_ZNK12my_container5DequeIiE4cendEv
FN:66,66,_ZNK12my_container5DequeIiE5emptyEv
FN:67,67,_ZNK12my_container5DequeIiE4sizeEv
FN:68,68,_ZNK12my_container5DequeIiE8max_sizeEv
FN:69,69,_ZN12my_container5DequeIiE5clearEv
FN:79,79,_ZN12my_container5DequeIiE9push_backERKi
FN:80,80,_ZN12my_container5DequeIiE8pop_backEv
FN:82,82,_ZN12my_container5DequeIiE10push_frontERKi
FN:83,83,_ZN12my_container5DequeIiE9pop_frontEv
FN:85,85,_ZN12my_container5DequeIiE6resizeEm
FN:86,95,_ZN12my_container5DequeIiE6resizeEmRKi
FN:96,96,_ZN12my_container5DequeIiE4swapERS1_
FN:98,100,_ZNK12my_container5DequeIiEeqERKS1_
FNDA:14,_ZN12my_container5DequeIiEC2Ev
FNDA:0,_ZN12my_container5DequeIiED0Ev
FNDA:14,_ZN12my_container5DequeIiED2Ev
FNDA:5,_ZN12my_container5DequeIiE5frontEv
FNDA:3,_ZN12my_container5DequeIiE4backEv
FNDA:6,_ZN12my_container5DequeIiE5beginEv
FNDA:5,_ZNK12my_container5DequeIiE6cbeginEv
FNDA:3,_ZN12my_container5DequeIiE3endEv
FNDA:4,_ZNK12my_container5DequeIiE4cendEv
FNDA:5,_ZNK12my_container5DequeIiE5emptyEv
FNDA:8,_ZNK12my_container5DequeIiE4sizeEv
FNDA:1,_ZNK12my_container5DequeIiE8max_sizeEv
FNDA:1,_ZN12my_container5DequeIiE5clearEv
FNDA:43,_ZN12my_container5DequeIiE9push_backERKi
FNDA:1,_ZN12my_container5DequeIiE8pop_backEv
FNDA:1,_ZN12my_container5DequeIiE10push_frontERKi
FNDA:1,_ZN12my_container5DequeIiE9pop_frontEv
FNDA:2,_ZN12my_container5DequeIiE6resizeEm
FNDA:1,_ZN12my_container5DequeIiE6resizeEmRKi
FNDA:1,_ZN12my_container5DequeIiE4swapERS1_
FNDA:2,_ZNK12my_container5DequeIiEeqERKS1_
FNF:21
FNH:20
DA:22,14
DA:30,14
DA:48,5
DA:51,6
DA:54,6
DA:55,5
DA:57,3
DA:58,4
DA:66,5
DA:67,8
DA:68,1
DA:69,1
DA:79,43
DA:80,1
DA:82,1
DA:83,1
DA:85,2
DA:86,1
DA:87,1
DA:88,0
DA:90,1
DA:91,3
DA:92,2
DA:95,1
DA:96,1
DA:98,2
DA:99,2
LF:27
LH:26
end_of_record
TN:
SF:/mnt/c/Users/senya/CLionProjects/fund_alg_4sem/lab1_3/include/list.h
FN:111,111,_ZN12my_container4ListIiE14const_iteratorC2EPKNS1_4NodeE
FN:112,112,_ZN12my_container4ListIiE14const_iteratorC2ERKNS1_8iteratorE
FN:114,114,_ZNK12my_container4ListIiE14const_iteratordeEv
FN:117,117,_ZN12my_container4ListIiE14const_iteratorppEv
FN:122,122,_ZNK12my_container4ListIiE14const_iteratoreqERKS2_
FN:123,123,_ZNK12my_container4ListIiE14const_iteratorneERKS2_
FN:127,127,_ZN12my_container4ListIiE5beginEv
FN:128,128,_ZN12my_container4ListIiE3endEv
FN:131,131,_ZNK12my_container4ListIiE6cbeginEv
FN:132,132,_ZNK12my_container4ListIiE4cendEv
FN:151,151,_ZN12my_container4ListIiE9push_backERKi
FN:153,153,_ZN12my_container4ListIiE8pop_backEv
FN:154,154,_ZN12my_container4ListIiE10push_frontERKi
FN:156,156,_ZN12my_container4ListIiE9pop_frontEv
FN:166,176,_ZN12my_container4ListIiEaSERK9ContainerIiE
FN:179,183,_ZNK12my_container4ListIiEeqERK9ContainerIiE
FN:186,188,_ZNK12my_container4ListIiEneERK9ContainerIiE
FN:207,215,_ZN12my_container4ListIiE5eraseENS1_14const_iteratorE
FN:218,221,_ZN12my_container4ListIiE4swapERS1_
FN:22,23,_ZN12my_container4ListIiE4NodeC2ERKiPS2_S5_
FN:224,227,_ZN12my_container4ListIiE6resizeEmRKi
FN:230,239,_ZN12my_container4ListIiE6insertENS1_14const_iteratorERKi
FN:253,256,_ZN12my_container4ListIiE5clearEv
FN:283,286,_ZN12my_container4ListIiED0Ev
FN:283,286,_ZN12my_container4ListIiED2Ev
FN:305,311,_ZN12my_container4ListIiEaSERKS1_
FN:32,38,_ZN12my_container4ListIiE9copyNodesERKS1_
FN:331,335,_ZN12my_container4ListIiEC2Ev
FN:71,71,_ZNK12my_container4ListIiE5emptyEv
FN:72,72,_ZNK12my_container4ListIiE4sizeEv
FN:73,73,_ZNK12my_container4ListIiE8max_sizeEv
FN:87,87,_ZN12my_container4ListIiE8iteratorC2EPNS1_4NodeE
FN:89,89,_ZNK12my_container4ListIiE8iteratordeEv
FN:92,92,_ZN12my_container4ListIiE8iteratorppEv
FN:94,94,_ZN12my_container4ListIiE8iteratormmEv
FNDA:9,_ZN12my_container4ListIiE14const_iteratorC2EPKNS1_4NodeE
FNDA:92,_ZN12my_container4ListIiE14const_iteratorC2ERKNS1_8iteratorE
FNDA:11,_ZNK12my_container4ListIiE14const_iteratordeEv
FNDA:10,_ZN12my_container4ListIiE14const_iteratorppEv
FNDA:16,_ZNK12my_container4ListIiE14const_iteratoreqERKS2_
FNDA:13,_ZNK12my_container4ListIiE14const_iteratorneERKS2_
FNDA:8,_ZN12my_container4ListIiE5beginEv
FNDA:93,_ZN12my_container4ListIiE3endEv
FNDA:5,_ZNK12my_container4ListIiE6cbeginEv
FNDA:4,_ZNK12my_container4ListIiE4cendEv
FNDA:45,_ZN12my_container4ListIiE9push_backERKi
FNDA:45,_ZN12my_container4ListIiE8pop_backEv
FNDA:1,_ZN12my_container4ListIiE10push_frontERKi
FNDA:1,_ZN12my_container4ListIiE9pop_frontEv
FNDA:0,_ZN12my_container4ListIiEaSERK9ContainerIiE
FNDA:0,_ZNK12my_container4ListIiEeqERK9ContainerIiE
FNDA:0,_ZNK12my_container4ListIiEneERK9ContainerIiE
FNDA:46,_ZN12my_container4ListIiE5eraseENS1_14const_iteratorE
FNDA:1,_ZN12my_container4ListIiE4swapERS1_
FNDA:60,_ZN12my_container4ListIiE4NodeC2ERKiPS2_S5_
FNDA:2,_ZN12my_container4ListIiE6resizeEmRKi
FNDA:46,_ZN12my_container4ListIiE6insertENS1_14const_iteratorERKi
FNDA:15,_ZN12my_container4ListIiE5clearEv
FNDA:0,_ZN12my_container4ListIiED0Ev
FNDA:14,_ZN12my_container4ListIiED2Ev
FNDA:0,_ZN12my_container4ListIiEaSERKS1_
FNDA:0,_ZN12my_container4ListIiE9copyNodesERKS1_
FNDA:14,_ZN12my_container4ListIiEC2Ev
FNDA:58,_ZNK12my_container4ListIiE5emptyEv
FNDA:8,_ZNK12my_container4ListIiE4sizeEv
FNDA:1,_ZNK12my_container4ListIiE8max_sizeEv
FNDA:193,_ZN12my_container4ListIiE8iteratorC2EPNS1_4NodeE
FNDA:10,_ZNK12my_container4ListIiE8iteratordeEv
FNDA:1,_ZN12my_container4ListIiE8iteratorppEv
FNDA:48,_ZN12my_container4ListIiE8iteratormmEv
FNF:35
FNH:29
DA:22,60
DA:23,60
DA:32,0
DA:33,0
DA:34,0
DA:35,0
DA:36,0
DA:38,0
DA:71,58
DA:72,8
DA:73,1
DA:87,193
DA:89,10
DA:92,1
DA:94,48
DA:111,9
DA:112,92
DA:114,11
DA:117,10
DA:122,16
DA:123,13
DA:127,8
DA:128,93
DA:131,5
DA:132,4
DA:151,45
DA:153,45
DA:154,1
DA:156,1
DA:166,0
DA:167,0
DA:168,0
DA:170,0
DA:171,0
DA:172,0
DA:174,0
DA:175,0
DA:179,0
DA:180,0
DA:181,0
DA:182,0
DA:186,0
DA:187,0
DA:207,46
DA:208,46
DA:209,46
DA:210,46
DA:211,46
DA:212,46
DA:213,46
DA:214,46
DA:218,1
DA:219,1
DA:220,1
DA:221,1
DA:224,2
DA:225,4
DA:226,4
DA:227,2
DA:230,46
DA:231,46
DA:232,46
DA:234,46
DA:235,46
DA:236,46
DA:237,46
DA:238,46
DA:253,15
DA:255,57
DA:256,15
DA:283,14
DA:284,14
DA:285,14
DA:286,28
DA:305,0
DA:306,0
DA:307,0
DA:308,0
DA:310,0
DA:331,14
DA:332,14
DA:333,14
DA:334,14
DA:335,14
LF:84
LH:59
end_of_record
TN:
SF:/mnt/c/Users/senya/CLionProjects/fund_alg_4sem/lab1_3/tests/test_deque.cpp
FN:151,155,_ZN9DequeTest5SetUpEv
FN:158,158,_ZN37DequeTest_PushBackPushFrontWorks_Test8TestBodyEv
FN:158,158,_ZN37DequeTest_PushBackPushFrontWorks_TestC2Ev
FN:158,158,_ZN37DequeTest_PushBackPushFrontWorks_TestD0Ev
FN:158,158,_ZN37DequeTest_PushBackPushFrontWorks_TestD2Ev
FN:166,166,_ZN35DequeTest_PopBackPopFrontWorks_Test8TestBodyEv
FN:166,166,_ZN35DequeTest_PopBackPopFrontWorks_TestC2Ev
FN:166,166,_ZN35DequeTest_PopBackPopFrontWorks_TestD0Ev
FN:166,166,_ZN35DequeTest_PopBackPopFrontWorks_TestD2Ev
FN:174,174,_ZN40DequeTest_ResizeIncreaseWithDefault_Test8TestBodyEv
FN:174,174,_ZN40DequeTest_ResizeIncreaseWithDefault_TestC2Ev
FN:174,174,_ZN40DequeTest_ResizeIncreaseWithDefault_TestD0Ev
FN:174,174,_ZN40DequeTest_ResizeIncreaseWithDefault_TestD2Ev
FN:179,179,_ZN38DequeTest_ResizeIncreaseWithValue_Test8TestBodyEv
FN:179,179,_ZN38DequeTest_ResizeIncreaseWithValue_TestC2Ev
FN:179,179,_ZN38DequeTest_ResizeIncreaseWithValue_TestD0Ev
FN:179,179,_ZN38DequeTest_ResizeIncreaseWithValue_TestD2Ev
FN:185,189,_ZN29DequeTest_ResizeDecrease_Test8TestBodyEv
FN:185,189,_ZN29DequeTest_ResizeDecrease_TestC2Ev
FN:185,189,_ZN29DequeTest_ResizeDecrease_TestD0Ev
FN:185,189,_ZN29DequeTest_ResizeDecrease_TestD2Ev
FN:191,191,_ZN32DequeTest_ClearEmptiesDeque_Test8TestBodyEv
FN:191,191,_ZN32DequeTest_ClearEmptiesDeque_TestC2Ev
FN:191,191,_ZN32DequeTest_ClearEmptiesDeque_TestD0Ev
FN:191,191,_ZN32DequeTest_ClearEmptiesDeque_TestD2Ev
FN:196,196,_ZN31DequeTest_EqualityOperator_Test8TestBodyEv
FN:196,196,_ZN31DequeTest_EqualityOperator_TestC2Ev
FN:196,196,_ZN31DequeTest_EqualityOperator_TestD0Ev
FN:196,196,_ZN31DequeTest_EqualityOperator_TestD2Ev
FN:204,204,_ZN33DequeTest_InequalityOperator_Test8TestBodyEv
FN:204,204,_ZN33DequeTest_InequalityOperator_TestC2Ev
FN:204,204,_ZN33DequeTest_InequalityOperator_TestD0Ev
FN:204,204,_ZN33DequeTest_InequalityOperator_TestD2Ev
FN:211,211,_ZN24DequeTest_SwapWorks_Test8TestBodyEv
FN:211,211,_ZN24DequeTest_SwapWorks_TestC2Ev
FN:211,211,_ZN24DequeTest_SwapWorks_TestD0Ev
FN:211,211,_ZN24DequeTest_SwapWorks_TestD2Ev
FN:223,231,_ZN38DequeTest_IteratorsAccessElements_Test8TestBodyEv
FN:223,231,_ZN38DequeTest_IteratorsAccessElements_TestC2Ev
FN:223,231,_ZN38DequeTest_IteratorsAccessElements_TestD0Ev
FN:223,231,_ZN38DequeTest_IteratorsAccessElements_TestD2Ev
FN:233,235,_ZN38DequeTest_MaxSizeReturnsSomething_Test8TestBodyEv
FN:233,235,_ZN38DequeTest_MaxSizeReturnsSomething_TestC2Ev
FN:233,235,_ZN38DequeTest_MaxSizeReturnsSomething_TestD0Ev
FN:233,235,_ZN38DequeTest_MaxSizeReturnsSomething_TestD2Ev
FNDA:11,_ZN9DequeTest5SetUpEv
FNDA:1,_ZN37DequeTest_PushBackPushFrontWorks_Test8TestBodyEv
FNDA:1,_ZN37DequeTest_PushBackPushFrontWorks_TestC2Ev
FNDA:1,_ZN37DequeTest_PushBackPushFrontWorks_TestD0Ev
FNDA:1,_ZN37DequeTest_PushBackPushFrontWorks_TestD2Ev
FNDA:1,_ZN35DequeTest_PopBackPopFrontWorks_Test8TestBodyEv
FNDA:1,_ZN35DequeTest_PopBackPopFrontWorks_TestC2Ev
FNDA:1,_ZN35DequeTest_PopBackPopFrontWorks_TestD0Ev
FNDA:1,_ZN35DequeTest_PopBackPopFrontWorks_TestD2Ev
FNDA:1,_ZN40DequeTest_ResizeIncreaseWithDefault_Test8TestBodyEv
FNDA:1,_ZN40DequeTest_ResizeIncreaseWithDefault_TestC2Ev
FNDA:1,_ZN40DequeTest_ResizeIncreaseWithDefault_TestD0Ev
FNDA:1,_ZN40DequeTest_ResizeIncreaseWithDefault_TestD2Ev
FNDA:1,_ZN38DequeTest_ResizeIncreaseWithValue_Test8TestBodyEv
FNDA:1,_ZN38DequeTest_ResizeIncreaseWithValue_TestC2Ev
FNDA:1,_ZN38DequeTest_ResizeIncreaseWithValue_TestD0Ev
FNDA:1,_ZN38DequeTest_ResizeIncreaseWithValue_TestD2Ev
FNDA:1,_ZN29DequeTest_ResizeDecrease_Test8TestBodyEv
FNDA:1,_ZN29DequeTest_ResizeDecrease_TestC2Ev
FNDA:1,_ZN29DequeTest_ResizeDecrease_TestD0Ev
FNDA:1,_ZN29DequeTest_ResizeDecrease_TestD2Ev
FNDA:1,_ZN32DequeTest_ClearEmptiesDeque_Test8TestBodyEv
FNDA:1,_ZN32DequeTest_ClearEmptiesDeque_TestC2Ev
FNDA:1,_ZN32DequeTest_ClearEmptiesDeque_TestD0Ev
FNDA:1,_ZN32DequeTest_ClearEmptiesDeque_TestD2Ev
FNDA:1,_ZN31DequeTest_EqualityOperator_Test8TestBodyEv
FNDA:1,_ZN31DequeTest_EqualityOperator_TestC2Ev
FNDA:1,_ZN31DequeTest_EqualityOperator_TestD0Ev
FNDA:1,_ZN31DequeTest_EqualityOperator_TestD2Ev
FNDA:1,_ZN33DequeTest_InequalityOperator_Test8TestBodyEv
FNDA:1,_ZN33DequeTest_InequalityOperator_TestC2Ev
FNDA:1,_ZN33DequeTest_InequalityOperator_TestD0Ev
FNDA:1,_ZN33DequeTest_InequalityOperator_TestD2Ev
FNDA:1,_ZN24DequeTest_SwapWorks_Test8TestBodyEv
FNDA:1,_ZN24DequeTest_SwapWorks_TestC2Ev
FNDA:1,_ZN24DequeTest_SwapWorks_TestD0Ev
FNDA:1,_ZN24DequeTest_SwapWorks_TestD2Ev
FNDA:1,_ZN38DequeTest_IteratorsAccessElements_Test8TestBodyEv
FNDA:1,_ZN38DequeTest_IteratorsAccessElements_TestC2Ev
FNDA:1,_ZN38DequeTest_IteratorsAccessElements_TestD0Ev
FNDA:1,_ZN38DequeTest_IteratorsAccessElements_TestD2Ev
FNDA:1,_ZN38DequeTest_MaxSizeReturnsSomething_Test8TestBodyEv
FNDA:1,_ZN38DequeTest_MaxSizeReturnsSomething_TestC2Ev
FNDA:1,_ZN38DequeTest_MaxSizeReturnsSomething_TestD0Ev
FNDA:1,_ZN38DequeTest_MaxSizeReturnsSomething_TestD2Ev
FNF:45
FNH:45
DA:151,11
DA:152,11
DA:153,11
DA:154,11
DA:155,11
DA:158,4
DA:159,1
DA:160,1
DA:161,1
DA:162,1
DA:163,1
DA:164,1
DA:166,4
DA:167,1
DA:168,1
DA:169,1
DA:170,1
DA:171,1
DA:172,1
DA:174,4
DA:175,1
DA:176,1
DA:177,1
DA:179,4
DA:180,1
DA:181,1
DA:182,1
DA:183,1
DA:185,4
DA:186,1
DA:187,1
DA:188,1
DA:189,1
DA:191,4
DA:192,1
DA:193,1
DA:194,1
DA:196,4
DA:197,1
DA:198,1
DA:199,1
DA:200,1
DA:201,1
DA:202,1
DA:204,4
DA:205,1
DA:206,1
DA:207,1
DA:208,1
DA:209,1
DA:211,4
DA:212,1
DA:213,1
DA:214,1
DA:216,1
DA:218,1
DA:219,1
DA:220,1
DA:221,1
DA:223,4
DA:224,1
DA:225,1
DA:226,1
DA:227,1
DA:229,1
DA:230,1
DA:231,1
DA:233,4
DA:234,1
DA:235,1
LF:70
LH:70
end_of_record
TN:
SF:/usr/include/c++/13/bits/alloc_traits.h
FNF:0
FNH:0
DA:482,337
DA:517,337
DA:576,550
DA:588,170
LF:4
LH:4
end_of_record
TN:
SF:/usr/include/c++/13/bits/allocator.h
FNF:0
FNH:0
DA:163,178
DA:168,871
DA:184,348
DA:191,337
DA:193,0
DA:194,0
DA:195,0
DA:198,337
DA:205,337
DA:207,0
DA:208,0
DA:210,337
LF:12
LH:7
end_of_record
TN:
SF:/usr/include/c++/13/bits/basic_string.h
FN:1071,1072,_ZNKSt7__cxx1112basic_stringIcSt11char_traitsIcESaIcEE4sizeEv
FN:1078,1079,_ZNKSt7__cxx1112basic_stringIcSt11char_traitsIcESaIcEE6lengthEv
FN:1084,1085,_ZNKSt7__cxx1112basic_stringIcSt11char_traitsIcESaIcEE8max_sizeEv
FN:1169,1173,_ZNKSt7__cxx1112basic_stringIcSt11char_traitsIcESaIcEE8capacityEv
FN:124,137,_ZNSt7__cxx1112basic_stringIcSt11char_traitsIcESaIcEE11_S_allocateERS3_m
FN:1469,1475,_ZNSt7__cxx1112basic_stringIcSt11char_traitsIcESaIcEE6appendEPKc
FN:188,189,_ZNSt7__cxx1112basic_stringIcSt11char_traitsIcESaIcEE12_Alloc_hiderC2EPcRKS3_
FN:192,193,_ZNSt7__cxx1112basic_stringIcSt11char_traitsIcESaIcEE12_Alloc_hiderC2EPcOS3_
FN:212,213,_ZNSt7__cxx1112basic_stringIcSt11char_traitsIcESaIcEE7_M_dataEPc
FN:217,218,_ZNSt7__cxx1112basic_stringIcSt11char_traitsIcESaIcEE9_M_lengthEm
FN:222,223,_ZNKSt7__cxx1112basic_stringIcSt11char_traitsIcESaIcEE7_M_dataEv
FN:227,234,_ZNSt7__cxx1112basic_stringIcSt11char_traitsIcESaIcEE13_M_local_dataEv
FN:238,245,_ZNKSt7__cxx1112basic_stringIcSt11char_traitsIcESaIcEE13_M_local_dataEv
FN:249,250,_ZNSt7__cxx1112basic_stringIcSt11char_traitsIcESaIcEE11_M_capacityEm
FN:254,258,_ZNSt7__cxx1112basic_stringIcSt11char_traitsIcESaIcEE13_M_set_lengthEm
FN:2595,2596,_ZNKSt7__cxx1112basic_stringIcSt11char_traitsIcESaIcEE5c_strEv
FN:262,271,_ZNKSt7__cxx1112basic_stringIcSt11char_traitsIcESaIcEE11_M_is_localEv
FN:280,284,_ZNSt7__cxx1112basic_stringIcSt11char_traitsIcESaIcEE10_M_disposeEv
FN:288,289,_ZNSt7__cxx1112basic_stringIcSt11char_traitsIcESaIcEE10_M_destroyEm
FN:336,337,_ZNSt7__cxx1112basic_stringIcSt11char_traitsIcESaIcEE16_M_get_allocatorEv
FN:341,342,_ZNKSt7__cxx1112basic_stringIcSt11char_traitsIcESaIcEE16_M_get_allocatorEv
FN:397,401,_ZNKSt7__cxx1112basic_stringIcSt11char_traitsIcESaIcEE15_M_check_lengthEmmPKc
FN:425,431,_ZNSt7__cxx1112basic_stringIcSt11char_traitsIcESaIcEE7_S_copyEPcPKcm
FN:477,478,_ZNSt7__cxx1112basic_stringIcSt11char_traitsIcESaIcEE13_S_copy_charsEPcS5_S5_
FN:482,484,_ZNSt7__cxx1112basic_stringIcSt11char_traitsIcESaIcEE13_S_copy_charsEPcPKcS7_
FN:522,528,_ZNSt7__cxx1112basic_stringIcSt11char_traitsIcESaIcEEC2Ev
FN:547,553,_ZNSt7__cxx1112basic_stringIcSt11char_traitsIcESaIcEEC2ERKS4_
FN:641,650,_ZNSt7__cxx1112basic_stringIcSt11char_traitsIcESaIcEEC2IS3_EEPKcRKS3_
FN:803,804,_ZNSt7__cxx1112basic_stringIcSt11char_traitsIcESaIcEED2Ev
FNDA:2894,_ZNKSt7__cxx1112basic_stringIcSt11char_traitsIcESaIcEE4sizeEv
FNDA:1930,_ZNKSt7__cxx1112basic_stringIcSt11char_traitsIcESaIcEE6lengthEv
FNDA:550,_ZNKSt7__cxx1112basic_stringIcSt11char_traitsIcESaIcEE8max_sizeEv
FNDA:2428,_ZNKSt7__cxx1112basic_stringIcSt11char_traitsIcESaIcEE8capacityEv
FNDA:337,_ZNSt7__cxx1112basic_stringIcSt11char_traitsIcESaIcEE11_S_allocateERS3_m
FNDA:42,_ZNSt7__cxx1112basic_stringIcSt11char_traitsIcESaIcEE6appendEPKc
FNDA:201,_ZNSt7__cxx1112basic_stringIcSt11char_traitsIcESaIcEE12_Alloc_hiderC2EPcRKS3_
FNDA:500,_ZNSt7__cxx1112basic_stringIcSt11char_traitsIcESaIcEE12_Alloc_hiderC2EPcOS3_
FNDA:632,_ZNSt7__cxx1112basic_stringIcSt11char_traitsIcESaIcEE7_M_dataEPc
FNDA:3164,_ZNSt7__cxx1112basic_stringIcSt11char_traitsIcESaIcEE9_M_lengthEm
FNDA:12021,_ZNKSt7__cxx1112basic_stringIcSt11char_traitsIcESaIcEE7_M_dataEv
FNDA:841,_ZNSt7__cxx1112basic_stringIcSt11char_traitsIcESaIcEE13_M_local_dataEv
FNDA:3682,_ZNKSt7__cxx1112basic_stringIcSt11char_traitsIcESaIcEE13_M_local_dataEv
FNDA:434,_ZNSt7__cxx1112basic_stringIcSt11char_traitsIcESaIcEE11_M_capacityEm
FNDA:2908,_ZNSt7__cxx1112basic_stringIcSt11char_traitsIcESaIcEE13_M_set_lengthEm
FNDA:1599,_ZNKSt7__cxx1112basic_stringIcSt11char_traitsIcESaIcEE5c_strEv
FNDA:3682,_ZNKSt7__cxx1112basic_stringIcSt11char_traitsIcESaIcEE11_M_is_localEv
FNDA:998,_ZNSt7__cxx1112basic_stringIcSt11char_traitsIcESaIcEE10_M_disposeEv
FNDA:337,_ZNSt7__cxx1112basic_stringIcSt11char_traitsIcESaIcEE10_M_destroyEm
FNDA:930,_ZNSt7__cxx1112basic_stringIcSt11char_traitsIcESaIcEE16_M_get_allocatorEv
FNDA:742,_ZNKSt7__cxx1112basic_stringIcSt11char_traitsIcESaIcEE16_M_get_allocatorEv
FNDA:167,_ZNKSt7__cxx1112basic_stringIcSt11char_traitsIcESaIcEE15_M_check_lengthEmmPKc
FNDA:778,_ZNSt7__cxx1112basic_stringIcSt11char_traitsIcESaIcEE7_S_copyEPcPKcm
FNDA:170,_ZNSt7__cxx1112basic_stringIcSt11char_traitsIcESaIcEE13_S_copy_charsEPcS5_S5_
FNDA:191,_ZNSt7__cxx1112basic_stringIcSt11char_traitsIcESaIcEE13_S_copy_charsEPcPKcS7_
FNDA:178,_ZNSt7__cxx1112basic_stringIcSt11char_traitsIcESaIcEEC2Ev
FNDA:170,_ZNSt7__cxx1112basic_stringIcSt11char_traitsIcESaIcEEC2ERKS4_
FNDA:157,_ZNSt7__cxx1112basic_stringIcSt11char_traitsIcESaIcEEC2IS3_EEPKcRKS3_
FNDA:815,_ZNSt7__cxx1112basic_stringIcSt11char_traitsIcESaIcEED2Ev
FNF:29
FNH:29
DA:124,337
DA:126,337
DA:136,337
DA:188,201
DA:189,201
DA:192,500
DA:193,500
DA:212,632
DA:213,632
DA:217,3164
DA:218,3164
DA:222,12021
DA:223,12021
DA:227,841
DA:230,841
DA:238,3682
DA:241,3682
DA:249,434
DA:250,434
DA:254,2908
DA:256,2908
DA:257,2908
DA:258,2908
DA:262,3682
DA:264,3682
DA:266,1312
DA:267,0
DA:268,1312
DA:270,2370
DA:280,998
DA:282,998
DA:283,337
DA:284,998
DA:288,337
DA:289,337
DA:336,930
DA:337,930
DA:341,742
DA:342,742
DA:351,381
DA:352,0
DA:353,0
DA:355,381
DA:397,167
DA:399,167
DA:400,0
DA:401,167
DA:425,778
DA:427,778
DA:428,207
DA:430,571
DA:431,778
DA:477,170
DA:478,170
DA:482,191
DA:484,191
DA:522,178
DA:524,534
DA:527,178
DA:528,178
DA:547,170
DA:548,170
DA:549,170
DA:551,170
DA:553,170
DA:641,157
DA:642,157
DA:645,157
DA:646,0
DA:648,157
DA:649,157
DA:650,157
DA:803,815
DA:804,815
DA:1071,2894
DA:1072,2894
DA:1078,1930
DA:1079,1930
DA:1084,550
DA:1085,1100
DA:1169,2428
DA:1171,2428
DA:1172,2428
DA:1469,42
DA:1472,42
DA:1473,42
DA:1474,42
DA:2595,1599
DA:2596,1599
LF:89
LH:84
end_of_record
TN:
SF:/usr/include/c++/13/bits/basic_string.tcc
FN:138,160,_ZNSt7__cxx1112basic_stringIcSt11char_traitsIcESaIcEE9_M_createERmm
FN:221,252,_ZNSt7__cxx1112basic_stringIcSt11char_traitsIcESaIcEE12_M_constructIPKcEEvT_S8_St20forward_iterator_tag
FN:221,252,_ZNSt7__cxx1112basic_stringIcSt11char_traitsIcESaIcEE12_M_constructIPcEEvT_S7_St20forward_iterator_tag
FN:239,239,_ZZNSt7__cxx1112basic_stringIcSt11char_traitsIcESaIcEE12_M_constructIPKcEEvT_S8_St20forward_iterator_tagEN6_GuardC2EPS4_
FN:239,239,_ZZNSt7__cxx1112basic_stringIcSt11char_traitsIcESaIcEE12_M_constructIPcEEvT_S7_St20forward_iterator_tagEN6_GuardC2EPS4_
FN:242,242,_ZZNSt7__cxx1112basic_stringIcSt11char_traitsIcESaIcEE12_M_constructIPKcEEvT_S8_St20forward_iterator_tagEN6_GuardD2Ev
FN:242,242,_ZZNSt7__cxx1112basic_stringIcSt11char_traitsIcESaIcEE12_M_constructIPcEEvT_S7_St20forward_iterator_tagEN6_GuardD2Ev
FN:325,345,_ZNSt7__cxx1112basic_stringIcSt11char_traitsIcESaIcEE9_M_mutateEmmPKcm
FN:413,428,_ZNSt7__cxx1112basic_stringIcSt11char_traitsIcESaIcEE9_M_appendEPKcm
FNDA:337,_ZNSt7__cxx1112basic_stringIcSt11char_traitsIcESaIcEE9_M_createERmm
FNDA:169,_ZNSt7__cxx1112basic_stringIcSt11char_traitsIcESaIcEE12_M_constructIPKcEEvT_S8_St20forward_iterator_tag
FNDA:170,_ZNSt7__cxx1112basic_stringIcSt11char_traitsIcESaIcEE12_M_constructIPcEEvT_S7_St20forward_iterator_tag
FNDA:169,_ZZNSt7__cxx1112basic_stringIcSt11char_traitsIcESaIcEE12_M_constructIPKcEEvT_S8_St20forward_iterator_tagEN6_GuardC2EPS4_
FNDA:170,_ZZNSt7__cxx1112basic_stringIcSt11char_traitsIcESaIcEE12_M_constructIPcEEvT_S7_St20forward_iterator_tagEN6_GuardC2EPS4_
FNDA:169,_ZZNSt7__cxx1112basic_stringIcSt11char_traitsIcESaIcEE12_M_constructIPKcEEvT_S8_St20forward_iterator_tagEN6_GuardD2Ev
FNDA:170,_ZZNSt7__cxx1112basic_stringIcSt11char_traitsIcESaIcEE12_M_constructIPcEEvT_S7_St20forward_iterator_tagEN6_GuardD2Ev
FNDA:33,_ZNSt7__cxx1112basic_stringIcSt11char_traitsIcESaIcEE9_M_mutateEmmPKcm
FNDA:108,_ZNSt7__cxx1112basic_stringIcSt11char_traitsIcESaIcEE9_M_appendEPKcm
FNF:9
FNH:9
DA:138,337
DA:143,337
DA:144,0
DA:149,337
DA:151,46
DA:153,46
DA:154,0
DA:159,337
DA:221,339
DA:225,339
DA:227,339
DA:229,136
DA:230,136
DA:239,339
DA:242,339
DA:245,339
DA:247,339
DA:249,339
DA:251,339
DA:252,339
DA:325,33
DA:329,33
DA:331,33
DA:332,33
DA:334,33
DA:335,33
DA:336,33
DA:337,33
DA:338,33
DA:339,0
DA:340,0
DA:342,33
DA:343,33
DA:344,33
DA:345,33
DA:413,108
DA:416,108
DA:418,108
DA:420,75
DA:421,75
DA:424,33
DA:426,108
DA:427,108
LF:43
LH:39
end_of_record
TN:
SF:/usr/include/c++/13/bits/char_traits.h
FN:136,137,_ZN9__gnu_cxx11char_traitsIcE2eqERKcS3_
FN:199,206,_ZN9__gnu_cxx11char_traitsIcE6lengthEPKc
FN:253,268,_ZN9__gnu_cxx11char_traitsIcE4copyEPcPKcm
FN:351,359,_ZNSt11char_traitsIcE6assignERcRKc
FN:393,400,_ZNSt11char_traitsIcE6lengthEPKc
FN:427,436,_ZNSt11char_traitsIcE4copyEPcPKcm
FNDA:0,_ZN9__gnu_cxx11char_traitsIcE2eqERKcS3_
FNDA:0,_ZN9__gnu_cxx11char_traitsIcE6lengthEPKc
FNDA:0,_ZN9__gnu_cxx11char_traitsIcE4copyEPcPKcm
FNDA:5018,_ZNSt11char_traitsIcE6assignERcRKc
FNDA:228,_ZNSt11char_traitsIcE6lengthEPKc
FNDA:730,_ZNSt11char_traitsIcE4copyEPcPKcm
FNF:6
FNH:3
DA:136,0
DA:137,0
DA:199,0
DA:202,0
DA:203,0
DA:204,0
DA:205,0
DA:253,0
DA:256,0
DA:257,0
DA:259,0
DA:261,0
DA:262,0
DA:263,0
DA:266,0
DA:267,0
DA:351,5018
DA:354,5018
DA:355,0
DA:358,5018
DA:359,5018
DA:393,228
DA:396,228
DA:397,0
DA:399,228
DA:427,730
DA:429,730
DA:430,19
DA:432,711
DA:433,0
DA:435,711
LF:31
LH:12
end_of_record
TN:
SF:/usr/include/c++/13/bits/move.h
FN:138,139,_ZSt9addressofIKcEPT_RS1_
FN:138,139,_ZSt9addressofIcEPT_RS0_
FN:189,200,_ZSt4swapIPN12my_container4ListIiE4NodeEENSt9enable_ifIXsrSt6__and_IJSt6__not_ISt15__is_tuple_likeIT_EESt21is_move_constructibleIS9_ESt18is_move_assignableIS9_EEE5valueEvE4typeERS9_SJ_
FN:189,200,_ZSt4swapImENSt9enable_ifIXsrSt6__and_IJSt6__not_ISt15__is_tuple_likeIT_EESt21is_move_constructibleIS4_ESt18is_move_assignableIS4_EEE5valueEvE4typeERS4_SE_
FN:51,52,_ZSt11__addressofIKcEPT_RS1_
FN:51,52,_ZSt11__addressofIcEPT_RS0_
FN:70,71,_ZSt7forwardIRKcEOT_RNSt16remove_referenceIS2_E4typeE
FN:70,71,_ZSt7forwardISt14default_deleteINSt7__cxx1112basic_stringIcSt11char_traitsIcESaIcEEEEEOT_RNSt16remove_referenceIS8_E4typeE
FN:97,98,_ZSt4moveIRPN12my_container4ListIiE4NodeEEONSt16remove_referenceIT_E4typeEOS7_
FN:97,98,_ZSt4moveIRPNSt7__cxx1112basic_stringIcSt11char_traitsIcESaIcEEEEONSt16remove_referenceIT_E4typeEOS9_
FN:97,98,_ZSt4moveIRPNSt7__cxx1118basic_stringstreamIcSt11char_traitsIcESaIcEEEEONSt16remove_referenceIT_E4typeEOS9_
FN:97,98,_ZSt4moveIRSaIcEEONSt16remove_referenceIT_E4typeEOS3_
FN:97,98,_ZSt4moveIRmEONSt16remove_referenceIT_E4typeEOS2_
FNDA:3682,_ZSt9addressofIKcEPT_RS1_
FNDA:841,_ZSt9addressofIcEPT_RS0_
FNDA:1,_ZSt4swapIPN12my_container4ListIiE4NodeEENSt9enable_ifIXsrSt6__and_IJSt6__not_ISt15__is_tuple_likeIT_EESt21is_move_constructibleIS9_ESt18is_move_assignableIS9_EEE5valueEvE4typeERS9_SJ_
FNDA:1,_ZSt4swapImENSt9enable_ifIXsrSt6__and_IJSt6__not_ISt15__is_tuple_likeIT_EESt21is_move_constructibleIS4_ESt18is_move_assignableIS4_EEE5valueEvE4typeERS4_SE_
FNDA:3682,_ZSt11__addressofIKcEPT_RS1_
FNDA:841,_ZSt11__addressofIcEPT_RS0_
FNDA:0,_ZSt7forwardIRKcEOT_RNSt16remove_referenceIS2_E4typeE
FNDA:0,_ZSt7forwardISt14default_deleteINSt7__cxx1112basic_stringIcSt11char_traitsIcESaIcEEEEEOT_RNSt16remove_referenceIS8_E4typeE
FNDA:3,_ZSt4moveIRPN12my_container4ListIiE4NodeEEONSt16remove_referenceIT_E4typeEOS7_
FNDA:0,_ZSt4moveIRPNSt7__cxx1112basic_stringIcSt11char_traitsIcESaIcEEEEONSt16remove_referenceIT_E4typeEOS9_
FNDA:110,_ZSt4moveIRPNSt7__cxx1118basic_stringstreamIcSt11char_traitsIcESaIcEEEEONSt16remove_referenceIT_E4typeEOS9_
FNDA:640,_ZSt4moveIRSaIcEEONSt16remove_referenceIT_E4typeEOS3_
FNDA:3,_ZSt4moveIRmEONSt16remove_referenceIT_E4typeEOS2_
FNF:13
FNH:10
DA:51,4523
DA:52,4523
DA:70,0
DA:71,0
DA:97,756
DA:98,756
DA:138,4523
DA:139,4523
DA:189,2
DA:197,2
DA:198,2
DA:199,2
DA:200,2
LF:13
LH:11
end_of_record
TN:
SF:/usr/include/c++/13/bits/new_allocator.h
FN:126,152,_ZNSt15__new_allocatorIcE8allocateEmPKv
FN:156,173,_ZNSt15__new_allocatorIcE10deallocateEPcm
FNDA:337,_ZNSt15__new_allocatorIcE8allocateEmPKv
FNDA:337,_ZNSt15__new_allocatorIcE10deallocateEPcm
FNF:2
FNH:2
DA:88,178
DA:92,871
DA:126,337
DA:134,337
DA:140,0
DA:151,337
DA:156,337
DA:172,337
DA:233,337
LF:9
LH:8
end_of_record
TN:
SF:/usr/include/c++/13/bits/ptr_traits.h
FN:141,142,_ZNSt19__ptr_traits_ptr_toIPKcS0_Lb0EE10pointer_toERS0_
FN:141,142,_ZNSt19__ptr_traits_ptr_toIPccLb0EE10pointer_toERc
FNDA:3682,_ZNSt19__ptr_traits_ptr_toIPKcS0_Lb0EE10pointer_toERS0_
FNDA:841,_ZNSt19__ptr_traits_ptr_toIPccLb0EE10pointer_toERc
FNF:2
FNH:2
DA:141,4523
DA:142,4523
LF:2
LH:2
end_of_record
TN:
SF:/usr/include/c++/13/bits/stl_algobase.h
FN:1167,1173,_ZNSt7__equalILb0EE5equalIN12my_container4ListIiE14const_iteratorES5_EEbT_S6_T0_
FN:1213,1220,_ZSt12__equal_aux1IN12my_container4ListIiE14const_iteratorES3_EbT_S4_T0_
FN:1225,1230,_ZSt11__equal_auxIN12my_container4ListIiE14const_iteratorES3_EbT_S4_T0_
FN:1547,1558,_ZSt5equalIN12my_container4ListIiE14const_iteratorES3_EbT_S4_T0_
FN:1597,1617,_ZSt8__equal4IN12my_container4ListIiE14const_iteratorES3_EbT_S4_T0_S5_
FN:1668,1680,_ZSt5equalIN12my_container4ListIiE14const_iteratorES3_EbT_S4_T0_S5_
FN:316,318,_ZSt12__niter_baseIN12my_container4ListIiE14const_iteratorEET_S4_
FNDA:0,_ZNSt7__equalILb0EE5equalIN12my_container4ListIiE14const_iteratorES5_EEbT_S6_T0_
FNDA:0,_ZSt12__equal_aux1IN12my_container4ListIiE14const_iteratorES3_EbT_S4_T0_
FNDA:0,_ZSt11__equal_auxIN12my_container4ListIiE14const_iteratorES3_EbT_S4_T0_
FNDA:0,_ZSt5equalIN12my_container4ListIiE14const_iteratorES3_EbT_S4_T0_
FNDA:2,_ZSt8__equal4IN12my_container4ListIiE14const_iteratorES3_EbT_S4_T0_S5_
FNDA:2,_ZSt5equalIN12my_container4ListIiE14const_iteratorES3_EbT_S4_T0_S5_
FNDA:0,_ZSt12__niter_baseIN12my_container4ListIiE14const_iteratorEET_S4_
FNF:7
FNH:2
DA:316,0
DA:318,0
DA:1167,0
DA:1169,0
DA:1170,0
DA:1171,0
DA:1172,0
DA:1213,0
DA:1216,0
DA:1219,0
DA:1225,0
DA:1227,0
DA:1229,0
DA:1547,0
DA:1557,0
DA:1597,2
DA:1603,2
DA:1605,0
DA:1606,0
DA:1607,0
DA:1608,0
DA:1609,0
DA:1612,7
DA:1613,5
DA:1614,5
DA:1615,0
DA:1616,2
DA:1668,2
DA:1679,2
LF:29
LH:8
end_of_record
TN:
SF:/usr/include/c++/13/bits/stl_construct.h
FN:94,97,_ZSt12construct_atIcJRKcEEDTgsnwcvPvLi0E_T_pispcl7declvalIT0_EEEEPS3_DpOS4_
FNDA:0,_ZSt12construct_atIcJRKcEEDTgsnwcvPvLi0E_T_pispcl7declvalIT0_EEEEPS3_DpOS4_
FNF:1
FNH:0
DA:94,0
DA:97,0
LF:2
LH:0
end_of_record
TN:
SF:/usr/include/c++/13/bits/stl_iterator_base_funcs.h
FN:168,180,_ZSt9__advanceIN12my_container4ListIiE8iteratorElEvRT_T0_St26bidirectional_iterator_tag
FN:81,94,_ZSt10__distanceIN12my_container4ListIiE14const_iteratorEENSt15iterator_traitsIT_E15difference_typeES5_S5_St18input_iterator_tag
FNDA:3,_ZSt9__advanceIN12my_container4ListIiE8iteratorElEvRT_T0_St26bidirectional_iterator_tag
FNDA:0,_ZSt10__distanceIN12my_container4ListIiE14const_iteratorEENSt15iterator_traitsIT_E15difference_typeES5_S5_St18input_iterator_tag
FNF:2
FNH:1
DA:81,0
DA:87,0
DA:88,0
DA:90,0
DA:91,0
DA:93,0
DA:106,339
DA:151,678
DA:152,678
DA:168,3
DA:174,3
DA:175,0
DA:176,0
DA:178,6
DA:179,3
DA:180,3
DA:223,3
DA:224,3
DA:225,3
DA:250,3
DA:251,3
LF:21
LH:13
end_of_record
TN:
SF:/usr/include/c++/13/bits/stl_iterator_base_types.h
FNF:0
FNH:0
DA:240,342
LF:1
LH:1
end_of_record
TN:
SF:/usr/include/c++/13/bits/unique_ptr.h
FN:1069,1070,_ZSt11make_uniqueINSt7__cxx1112basic_stringIcSt11char_traitsIcESaIcEEEJEENSt8__detail9_MakeUniqIT_E15__single_objectEDpOT0_
FN:174,174,_ZNSt15__uniq_ptr_implINSt7__cxx1112basic_stringIcSt11char_traitsIcESaIcEEESt14default_deleteIS5_EEC2Ev
FN:176,176,_ZNSt15__uniq_ptr_implINSt7__cxx1112basic_stringIcSt11char_traitsIcESaIcEEESt14default_deleteIS5_EEC2EPS5_
FN:189,194,_ZNSt15__uniq_ptr_implINSt7__cxx1112basic_stringIcSt11char_traitsIcESaIcEEESt14default_deleteIS5_EEaSEOS8_
FN:197,197,_ZNSt15__uniq_ptr_implINSt7__cxx1112basic_stringIcSt11char_traitsIcESaIcEEESt14default_deleteIS5_EE6_M_ptrEv
FN:197,197,_ZNSt15__uniq_ptr_implINSt7__cxx1118basic_stringstreamIcSt11char_traitsIcESaIcEEESt14default_deleteIS5_EE6_M_ptrEv
FN:199,199,_ZNKSt15__uniq_ptr_implINSt7__cxx1112basic_stringIcSt11char_traitsIcESaIcEEESt14default_deleteIS5_EE6_M_ptrEv
FN:199,199,_ZNKSt15__uniq_ptr_implINSt7__cxx1118basic_stringstreamIcSt11char_traitsIcESaIcEEESt14default_deleteIS5_EE6_M_ptrEv
FN:201,201,_ZNSt15__uniq_ptr_implINSt7__cxx1112basic_stringIcSt11char_traitsIcESaIcEEESt14default_deleteIS5_EE10_M_deleterEv
FN:201,201,_ZNSt15__uniq_ptr_implINSt7__cxx1118basic_stringstreamIcSt11char_traitsIcESaIcEEESt14default_deleteIS5_EE10_M_deleterEv
FN:206,212,_ZNSt15__uniq_ptr_implINSt7__cxx1112basic_stringIcSt11char_traitsIcESaIcEEESt14default_deleteIS5_EE5resetEPS5_
FN:215,220,_ZNSt15__uniq_ptr_implINSt7__cxx1112basic_stringIcSt11char_traitsIcESaIcEEESt14default_deleteIS5_EE7releaseEv
FN:243,243,_ZNSt15__uniq_ptr_dataINSt7__cxx1112basic_stringIcSt11char_traitsIcESaIcEEESt14default_deleteIS5_ELb1ELb1EEaSEOS8_
FN:304,306,_ZNSt10unique_ptrINSt7__cxx1112basic_stringIcSt11char_traitsIcESaIcEEESt14default_deleteIS5_EEC2IS7_vEEv
FN:317,319,_ZNSt10unique_ptrINSt7__cxx1112basic_stringIcSt11char_traitsIcESaIcEEESt14default_deleteIS5_EEC2IS7_vEEPS5_
FN:398,406,_ZNSt10unique_ptrINSt7__cxx1112basic_stringIcSt11char_traitsIcESaIcEEESt14default_deleteIS5_EED2Ev
FN:398,406,_ZNSt10unique_ptrINSt7__cxx1118basic_stringstreamIcSt11char_traitsIcESaIcEEESt14default_deleteIS5_EED2Ev
FN:414,414,_ZNSt10unique_ptrINSt7__cxx1112basic_stringIcSt11char_traitsIcESaIcEEESt14default_deleteIS5_EEaSEOS8_
FN:451,455,_ZNKSt10unique_ptrINSt7__cxx1118basic_stringstreamIcSt11char_traitsIcESaIcEEESt14default_deleteIS5_EEdeEv
FN:460,464,_ZNKSt10unique_ptrINSt7__cxx1112basic_stringIcSt11char_traitsIcESaIcEEESt14default_deleteIS5_EEptEv
FN:469,470,_ZNKSt10unique_ptrINSt7__cxx1112basic_stringIcSt11char_traitsIcESaIcEEESt14default_deleteIS5_EE3getEv
FN:469,470,_ZNKSt10unique_ptrINSt7__cxx1118basic_stringstreamIcSt11char_traitsIcESaIcEEESt14default_deleteIS5_EE3getEv
FN:475,476,_ZNSt10unique_ptrINSt7__cxx1112basic_stringIcSt11char_traitsIcESaIcEEESt14default_deleteIS5_EE11get_deleterEv
FN:475,476,_ZNSt10unique_ptrINSt7__cxx1118basic_stringstreamIcSt11char_traitsIcESaIcEEESt14default_deleteIS5_EE11get_deleterEv
FN:486,487,_ZNKSt10unique_ptrINSt7__cxx1112basic_stringIcSt11char_traitsIcESaIcEEESt14default_deleteIS5_EEcvbEv
FN:837,838,_ZSteqINSt7__cxx1112basic_stringIcSt11char_traitsIcESaIcEEESt14default_deleteIS5_EEbRKSt10unique_ptrIT_T0_EDn
FN:93,100,_ZNKSt14default_deleteINSt7__cxx1112basic_stringIcSt11char_traitsIcESaIcEEEEclEPS5_
FN:93,100,_ZNKSt14default_deleteINSt7__cxx1118basic_stringstreamIcSt11char_traitsIcESaIcEEEEclEPS5_
FNDA:0,_ZSt11make_uniqueINSt7__cxx1112basic_stringIcSt11char_traitsIcESaIcEEEJEENSt8__detail9_MakeUniqIT_E15__single_objectEDpOT0_
FNDA:21,_ZNSt15__uniq_ptr_implINSt7__cxx1112basic_stringIcSt11char_traitsIcESaIcEEESt14default_deleteIS5_EEC2Ev
FNDA:0,_ZNSt15__uniq_ptr_implINSt7__cxx1112basic_stringIcSt11char_traitsIcESaIcEEESt14default_deleteIS5_EEC2EPS5_
FNDA:0,_ZNSt15__uniq_ptr_implINSt7__cxx1112basic_stringIcSt11char_traitsIcESaIcEEESt14default_deleteIS5_EEaSEOS8_
FNDA:21,_ZNSt15__uniq_ptr_implINSt7__cxx1112basic_stringIcSt11char_traitsIcESaIcEEESt14default_deleteIS5_EE6_M_ptrEv
FNDA:220,_ZNSt15__uniq_ptr_implINSt7__cxx1118basic_stringstreamIcSt11char_traitsIcESaIcEEESt14default_deleteIS5_EE6_M_ptrEv
FNDA:0,_ZNKSt15__uniq_ptr_implINSt7__cxx1112basic_stringIcSt11char_traitsIcESaIcEEESt14default_deleteIS5_EE6_M_ptrEv
FNDA:1158,_ZNKSt15__uniq_ptr_implINSt7__cxx1118basic_stringstreamIcSt11char_traitsIcESaIcEEESt14default_deleteIS5_EE6_M_ptrEv
FNDA:0,_ZNSt15__uniq_ptr_implINSt7__cxx1112basic_stringIcSt11char_traitsIcESaIcEEESt14default_deleteIS5_EE10_M_deleterEv
FNDA:110,_ZNSt15__uniq_ptr_implINSt7__cxx1118basic_stringstreamIcSt11char_traitsIcESaIcEEESt14default_deleteIS5_EE10_M_deleterEv
FNDA:0,_ZNSt15__uniq_ptr_implINSt7__cxx1112basic_stringIcSt11char_traitsIcESaIcEEESt14default_deleteIS5_EE5resetEPS5_
FNDA:0,_ZNSt15__uniq_ptr_implINSt7__cxx1112basic_stringIcSt11char_traitsIcESaIcEEESt14default_deleteIS5_EE7releaseEv
FNDA:0,_ZNSt15__uniq_ptr_dataINSt7__cxx1112basic_stringIcSt11char_traitsIcESaIcEEESt14default_deleteIS5_ELb1ELb1EEaSEOS8_
FNDA:21,_ZNSt10unique_ptrINSt7__cxx1112basic_stringIcSt11char_traitsIcESaIcEEESt14default_deleteIS5_EEC2IS7_vEEv
FNDA:0,_ZNSt10unique_ptrINSt7__cxx1112basic_stringIcSt11char_traitsIcESaIcEEESt14default_deleteIS5_EEC2IS7_vEEPS5_
FNDA:21,_ZNSt10unique_ptrINSt7__cxx1112basic_stringIcSt11char_traitsIcESaIcEEESt14default_deleteIS5_EED2Ev
FNDA:110,_ZNSt10unique_ptrINSt7__cxx1118basic_stringstreamIcSt11char_traitsIcESaIcEEESt14default_deleteIS5_EED2Ev
FNDA:0,_ZNSt10unique_ptrINSt7__cxx1112basic_stringIcSt11char_traitsIcESaIcEEESt14default_deleteIS5_EEaSEOS8_
FNDA:1048,_ZNKSt10unique_ptrINSt7__cxx1118basic_stringstreamIcSt11char_traitsIcESaIcEEESt14default_deleteIS5_EEdeEv
FNDA:0,_ZNKSt10unique_ptrINSt7__cxx1112basic_stringIcSt11char_traitsIcESaIcEEESt14default_deleteIS5_EEptEv
FNDA:0,_ZNKSt10unique_ptrINSt7__cxx1112basic_stringIcSt11char_traitsIcESaIcEEESt14default_deleteIS5_EE3getEv
FNDA:1158,_ZNKSt10unique_ptrINSt7__cxx1118basic_stringstreamIcSt11char_traitsIcESaIcEEESt14default_deleteIS5_EE3getEv
FNDA:0,_ZNSt10unique_ptrINSt7__cxx1112basic_stringIcSt11char_traitsIcESaIcEEESt14default_deleteIS5_EE11get_deleterEv
FNDA:110,_ZNSt10unique_ptrINSt7__cxx1118basic_stringstreamIcSt11char_traitsIcESaIcEEESt14default_deleteIS5_EE11get_deleterEv
FNDA:0,_ZNKSt10unique_ptrINSt7__cxx1112basic_stringIcSt11char_traitsIcESaIcEEESt14default_deleteIS5_EEcvbEv
FNDA:0,_ZSteqINSt7__cxx1112basic_stringIcSt11char_traitsIcESaIcEEESt14default_deleteIS5_EEbRKSt10unique_ptrIT_T0_EDn
FNDA:0,_ZNKSt14default_deleteINSt7__cxx1112basic_stringIcSt11char_traitsIcESaIcEEEEclEPS5_
FNDA:110,_ZNKSt14default_deleteINSt7__cxx1118basic_stringstreamIcSt11char_traitsIcESaIcEEEEclEPS5_
FNF:28
FNH:12
DA:93,110
DA:99,110
DA:100,110
DA:174,21
DA:176,0
DA:189,0
DA:191,0
DA:192,0
DA:193,0
DA:197,241
DA:199,1158
DA:201,110
DA:206,0
DA:208,0
DA:209,0
DA:210,0
DA:211,0
DA:212,0
DA:215,0
DA:217,0
DA:218,0
DA:219,0
DA:243,0
DA:304,21
DA:305,21
DA:306,21
DA:317,0
DA:318,0
DA:319,0
DA:398,131
DA:402,131
DA:403,131
DA:404,110
DA:405,131
DA:406,131
DA:414,0
DA:451,1048
DA:453,1048
DA:454,1048
DA:460,0
DA:463,0
DA:469,1158
DA:470,1158
DA:475,110
DA:476,110
DA:486,0
DA:487,0
DA:837,0
DA:838,0
DA:1069,0
DA:1070,0
LF:51
LH:23
end_of_record
TN:
SF:/usr/include/c++/13/ext/alloc_traits.h
FNF:0
FNH:0
DA:98,170
LF:1
LH:1
end_of_record
TN:
SF:/usr/include/c++/13/limits
FN:1274,1274,_ZNSt14numeric_limitsImE3maxEv
FNDA:1,_ZNSt14numeric_limitsImE3maxEv
FNF:1
FNH:1
DA:1274,1
LF:1
LH:1
end_of_record
TN:
SF:/usr/include/c++/13/new
FN:174,175,_ZnwmPv
FNDA:86,_ZnwmPv
FNF:1
FNH:1
DA:174,86
DA:175,86
LF:2
LH:2
end_of_record
TN:
SF:/usr/include/c++/13/tuple
FN:125,125,_ZNSt10_Head_baseILm1ESt14default_deleteINSt7__cxx1112basic_stringIcSt11char_traitsIcESaIcEEEELb1EE7_M_headERS8_
FN:125,125,_ZNSt10_Head_baseILm1ESt14default_deleteINSt7__cxx1118basic_stringstreamIcSt11char_traitsIcESaIcEEEELb1EE7_M_headERS8_
FN:1317,1319,_ZNSt5tupleIJPNSt7__cxx1112basic_stringIcSt11char_traitsIcESaIcEEESt14default_deleteIS5_EEEC2ILb1ELb1EEEv
FN:1787,1788,_ZSt12__get_helperILm0EPNSt7__cxx1112basic_stringIcSt11char_traitsIcESaIcEEEJSt14default_deleteIS5_EEERT0_RSt11_Tuple_implIXT_EJS9_DpT1_EE
FN:1787,1788,_ZSt12__get_helperILm0EPNSt7__cxx1118basic_stringstreamIcSt11char_traitsIcESaIcEEEJSt14default_deleteIS5_EEERT0_RSt11_Tuple_implIXT_EJS9_DpT1_EE
FN:1787,1788,_ZSt12__get_helperILm1ESt14default_deleteINSt7__cxx1112basic_stringIcSt11char_traitsIcESaIcEEEEJEERT0_RSt11_Tuple_implIXT_EJS8_DpT1_EE
FN:1787,1788,_ZSt12__get_helperILm1ESt14default_deleteINSt7__cxx1118basic_stringstreamIcSt11char_traitsIcESaIcEEEEJEERT0_RSt11_Tuple_implIXT_EJS8_DpT1_EE
FN:1792,1793,_ZSt12__get_helperILm0EPNSt7__cxx1112basic_stringIcSt11char_traitsIcESaIcEEEJSt14default_deleteIS5_EEERKT0_RKSt11_Tuple_implIXT_EJS9_DpT1_EE
FN:1792,1793,_ZSt12__get_helperILm0EPNSt7__cxx1118basic_stringstreamIcSt11char_traitsIcESaIcEEEJSt14default_deleteIS5_EEERKT0_RKSt11_Tuple_implIXT_EJS9_DpT1_EE
FN:1803,1804,_ZSt3getILm0EJPNSt7__cxx1112basic_stringIcSt11char_traitsIcESaIcEEESt14default_deleteIS5_EEERNSt13tuple_elementIXT_ESt5tupleIJDpT0_EEE4typeERSD_
FN:1803,1804,_ZSt3getILm0EJPNSt7__cxx1118basic_stringstreamIcSt11char_traitsIcESaIcEEESt14default_deleteIS5_EEERNSt13tuple_elementIXT_ESt5tupleIJDpT0_EEE4typeERSD_
FN:1803,1804,_ZSt3getILm1EJPNSt7__cxx1112basic_stringIcSt11char_traitsIcESaIcEEESt14default_deleteIS5_EEERNSt13tuple_elementIXT_ESt5tupleIJDpT0_EEE4typeERSD_
FN:1803,1804,_ZSt3getILm1EJPNSt7__cxx1118basic_stringstreamIcSt11char_traitsIcESaIcEEESt14default_deleteIS5_EEERNSt13tuple_elementIXT_ESt5tupleIJDpT0_EEE4typeERSD_
FN:1809,1810,_ZSt3getILm0EJPNSt7__cxx1112basic_stringIcSt11char_traitsIcESaIcEEESt14default_deleteIS5_EEERKNSt13tuple_elementIXT_ESt5tupleIJDpT0_EEE4typeERKSD_
FN:1809,1810,_ZSt3getILm0EJPNSt7__cxx1118basic_stringstreamIcSt11char_traitsIcESaIcEEESt14default_deleteIS5_EEERKNSt13tuple_elementIXT_ESt5tupleIJDpT0_EEE4typeERKSD_
FN:190,191,_ZNSt10_Head_baseILm0EPNSt7__cxx1112basic_stringIcSt11char_traitsIcESaIcEEELb0EEC2Ev
FN:234,234,_ZNSt10_Head_baseILm0EPNSt7__cxx1112basic_stringIcSt11char_traitsIcESaIcEEELb0EE7_M_headERS7_
FN:234,234,_ZNSt10_Head_baseILm0EPNSt7__cxx1118basic_stringstreamIcSt11char_traitsIcESaIcEEELb0EE7_M_headERS7_
FN:237,237,_ZNSt10_Head_baseILm0EPNSt7__cxx1112basic_stringIcSt11char_traitsIcESaIcEEELb0EE7_M_headERKS7_
FN:237,237,_ZNSt10_Head_baseILm0EPNSt7__cxx1118basic_stringstreamIcSt11char_traitsIcESaIcEEELb0EE7_M_headERKS7_
FN:269,269,_ZNSt11_Tuple_implILm0EJPNSt7__cxx1112basic_stringIcSt11char_traitsIcESaIcEEESt14default_deleteIS5_EEE7_M_headERS9_
FN:269,269,_ZNSt11_Tuple_implILm0EJPNSt7__cxx1118basic_stringstreamIcSt11char_traitsIcESaIcEEESt14default_deleteIS5_EEE7_M_headERS9_
FN:272,272,_ZNSt11_Tuple_implILm0EJPNSt7__cxx1112basic_stringIcSt11char_traitsIcESaIcEEESt14default_deleteIS5_EEE7_M_headERKS9_
FN:272,272,_ZNSt11_Tuple_implILm0EJPNSt7__cxx1118basic_stringstreamIcSt11char_traitsIcESaIcEEESt14default_deleteIS5_EEE7_M_headERKS9_
FN:280,281,_ZNSt11_Tuple_implILm0EJPNSt7__cxx1112basic_stringIcSt11char_traitsIcESaIcEEESt14default_deleteIS5_EEEC2Ev
FN:497,497,_ZNSt11_Tuple_implILm1EJSt14default_deleteINSt7__cxx1112basic_stringIcSt11char_traitsIcESaIcEEEEEE7_M_headERS8_
FN:497,497,_ZNSt11_Tuple_implILm1EJSt14default_deleteINSt7__cxx1118basic_stringstreamIcSt11char_traitsIcESaIcEEEEEE7_M_headERS8_
FN:503,504,_ZNSt11_Tuple_implILm1EJSt14default_deleteINSt7__cxx1112basic_stringIcSt11char_traitsIcESaIcEEEEEEC2Ev
FN:81,82,_ZNSt10_Head_baseILm1ESt14default_deleteINSt7__cxx1112basic_stringIcSt11char_traitsIcESaIcEEEELb1EEC2Ev
FNDA:0,_ZNSt10_Head_baseILm1ESt14default_deleteINSt7__cxx1112basic_stringIcSt11char_traitsIcESaIcEEEELb1EE7_M_headERS8_
FNDA:110,_ZNSt10_Head_baseILm1ESt14default_deleteINSt7__cxx1118basic_stringstreamIcSt11char_traitsIcESaIcEEEELb1EE7_M_headERS8_
FNDA:21,_ZNSt5tupleIJPNSt7__cxx1112basic_stringIcSt11char_traitsIcESaIcEEESt14default_deleteIS5_EEEC2ILb1ELb1EEEv
FNDA:21,_ZSt12__get_helperILm0EPNSt7__cxx1112basic_stringIcSt11char_traitsIcESaIcEEEJSt14default_deleteIS5_EEERT0_RSt11_Tuple_implIXT_EJS9_DpT1_EE
FNDA:220,_ZSt12__get_helperILm0EPNSt7__cxx1118basic_stringstreamIcSt11char_traitsIcESaIcEEEJSt14default_deleteIS5_EEERT0_RSt11_Tuple_implIXT_EJS9_DpT1_EE
FNDA:0,_ZSt12__get_helperILm1ESt14default_deleteINSt7__cxx1112basic_stringIcSt11char_traitsIcESaIcEEEEJEERT0_RSt11_Tuple_implIXT_EJS8_DpT1_EE
FNDA:110,_ZSt12__get_helperILm1ESt14default_deleteINSt7__cxx1118basic_stringstreamIcSt11char_traitsIcESaIcEEEEJEERT0_RSt11_Tuple_implIXT_EJS8_DpT1_EE
FNDA:0,_ZSt12__get_helperILm0EPNSt7__cxx1112basic_stringIcSt11char_traitsIcESaIcEEEJSt14default_deleteIS5_EEERKT0_RKSt11_Tuple_implIXT_EJS9_DpT1_EE
FNDA:1158,_ZSt12__get_helperILm0EPNSt7__cxx1118basic_stringstreamIcSt11char_traitsIcESaIcEEEJSt14default_deleteIS5_EEERKT0_RKSt11_Tuple_implIXT_EJS9_DpT1_EE
FNDA:21,_ZSt3getILm0EJPNSt7__cxx1112basic_stringIcSt11char_traitsIcESaIcEEESt14default_deleteIS5_EEERNSt13tuple_elementIXT_ESt5tupleIJDpT0_EEE4typeERSD_
FNDA:220,_ZSt3getILm0EJPNSt7__cxx1118basic_stringstreamIcSt11char_traitsIcESaIcEEESt14default_deleteIS5_EEERNSt13tuple_elementIXT_ESt5tupleIJDpT0_EEE4typeERSD_
FNDA:0,_ZSt3getILm1EJPNSt7__cxx1112basic_stringIcSt11char_traitsIcESaIcEEESt14default_deleteIS5_EEERNSt13tuple_elementIXT_ESt5tupleIJDpT0_EEE4typeERSD_
FNDA:110,_ZSt3getILm1EJPNSt7__cxx1118basic_stringstreamIcSt11char_traitsIcESaIcEEESt14default_deleteIS5_EEERNSt13tuple_elementIXT_ESt5tupleIJDpT0_EEE4typeERSD_
FNDA:0,_ZSt3getILm0EJPNSt7__cxx1112basic_stringIcSt11char_traitsIcESaIcEEESt14default_deleteIS5_EEERKNSt13tuple_elementIXT_ESt5tupleIJDpT0_EEE4typeERKSD_
FNDA:1158,_ZSt3getILm0EJPNSt7__cxx1118basic_stringstreamIcSt11char_traitsIcESaIcEEESt14default_deleteIS5_EEERKNSt13tuple_elementIXT_ESt5tupleIJDpT0_EEE4typeERKSD_
FNDA:21,_ZNSt10_Head_baseILm0EPNSt7__cxx1112basic_stringIcSt11char_traitsIcESaIcEEELb0EEC2Ev
FNDA:21,_ZNSt10_Head_baseILm0EPNSt7__cxx1112basic_stringIcSt11char_traitsIcESaIcEEELb0EE7_M_headERS7_
FNDA:220,_ZNSt10_Head_baseILm0EPNSt7__cxx1118basic_stringstreamIcSt11char_traitsIcESaIcEEELb0EE7_M_headERS7_
FNDA:0,_ZNSt10_Head_baseILm0EPNSt7__cxx1112basic_stringIcSt11char_traitsIcESaIcEEELb0EE7_M_headERKS7_
FNDA:1158,_ZNSt10_Head_baseILm0EPNSt7__cxx1118basic_stringstreamIcSt11char_traitsIcESaIcEEELb0EE7_M_headERKS7_
FNDA:21,_ZNSt11_Tuple_implILm0EJPNSt7__cxx1112basic_stringIcSt11char_traitsIcESaIcEEESt14default_deleteIS5_EEE7_M_headERS9_
FNDA:220,_ZNSt11_Tuple_implILm0EJPNSt7__cxx1118basic_stringstreamIcSt11char_traitsIcESaIcEEESt14default_deleteIS5_EEE7_M_headERS9_
FNDA:0,_ZNSt11_Tuple_implILm0EJPNSt7__cxx1112basic_stringIcSt11char_traitsIcESaIcEEESt14default_deleteIS5_EEE7_M_headERKS9_
FNDA:1158,_ZNSt11_Tuple_implILm0EJPNSt7__cxx1118basic_stringstreamIcSt11char_traitsIcESaIcEEESt14default_deleteIS5_EEE7_M_headERKS9_
FNDA:21,_ZNSt11_Tuple_implILm0EJPNSt7__cxx1112basic_stringIcSt11char_traitsIcESaIcEEESt14default_deleteIS5_EEEC2Ev
FNDA:0,_ZNSt11_Tuple_implILm1EJSt14default_deleteINSt7__cxx1112basic_stringIcSt11char_traitsIcESaIcEEEEEE7_M_headERS8_
FNDA:110,_ZNSt11_Tuple_implILm1EJSt14default_deleteINSt7__cxx1118basic_stringstreamIcSt11char_traitsIcESaIcEEEEEE7_M_headERS8_
FNDA:21,_ZNSt11_Tuple_implILm1EJSt14default_deleteINSt7__cxx1112basic_stringIcSt11char_traitsIcESaIcEEEEEEC2Ev
FNDA:21,_ZNSt10_Head_baseILm1ESt14default_deleteINSt7__cxx1112basic_stringIcSt11char_traitsIcESaIcEEEELb1EEC2Ev
FNF:29
FNH:21
DA:81,21
DA:82,21
DA:125,110
DA:190,21
DA:191,21
DA:234,241
DA:237,1158
DA:269,241
DA:272,1158
DA:280,21
DA:281,21
DA:497,110
DA:503,21
DA:504,21
DA:1317,21
DA:1319,21
DA:1787,351
DA:1788,351
DA:1792,1158
DA:1793,1158
DA:1803,351
DA:1804,351
DA:1809,1158
DA:1810,1158
LF:24
LH:24
end_of_record
TN:
SF:/usr/include/c++/13/type_traits
FN:3649,3656,_ZSt21is_constant_evaluatedv
FN:67,67,_ZNKSt17integral_constantIbLb0EEcvbEv
FNDA:798,_ZSt21is_constant_evaluatedv
FNDA:2,_ZNKSt17integral_constantIbLb0EEcvbEv
FNF:2
FNH:2
DA:67,2
DA:3649,798
DA:3654,798
LF:3
LH:3
end_of_record
TN:
SF:/usr/include/x86_64-linux-gnu/c++/13/bits/c++config.h
FN:540,551,_ZSt23__is_constant_evaluatedv
FNDA:7963,_ZSt23__is_constant_evaluatedv
FNF:1
FNH:1
DA:540,7963
DA:547,7963
LF:2
LH:2
end_of_record
