TN:
SF:/mnt/c/Users/senya/CLionProjects/fund_alg_4sem/lab1_4/cmake-build-debug/_deps/googletest-src/googletest/include/gtest/gtest-assertion-result.h
FN:155,161,_ZN7testing15AssertionResultC2IbEERKT_PNSt9enable_ifIXntsrSt14is_convertibleIS2_S0_E5valueEvE4typeE
FN:174,174,_ZNK7testing15AssertionResultcvbEv
FN:183,185,_ZNK7testing15AssertionResult7messageEv
FN:187,187,_ZNK7testing15AssertionResult15failure_messageEv
FNDA:29,_ZN7testing15AssertionResultC2IbEERKT_PNSt9enable_ifIXntsrSt14is_convertibleIS2_S0_E5valueEvE4typeE
FNDA:29,_ZNK7testing15AssertionResultcvbEv
FNDA:0,_ZNK7testing15AssertionResult7messageEv
FNDA:0,_ZNK7testing15AssertionResult15failure_messageEv
FNF:4
FNH:2
DA:155,29
DA:161,29
DA:174,29
DA:183,0
DA:184,0
DA:187,0
LF:6
LH:3
end_of_record
TN:
SF:/mnt/c/Users/senya/CLionProjects/fund_alg_4sem/lab1_4/cmake-build-debug/_deps/googletest-src/googletest/include/gtest/gtest-printers.h
FN:1017,1023,_ZN7testing8internal21UniversalTersePrinterIPKcE5PrintES3_PSo
FN:1108,1113,_ZN7testing8internal14UniversalPrintINSt7__cxx1112basic_stringIcSt11char_traitsIcESaIcEEEEEvRKT_PSo
FN:1108,1113,_ZN7testing8internal14UniversalPrintIiEEvRKT_PSo
FN:1108,1113,_ZN7testing8internal14UniversalPrintImEEvRKT_PSo
FN:1148,1152,_ZN7testing13PrintToStringINSt7__cxx1112basic_stringIcSt11char_traitsIcESaIcEEEEES6_RKT_
FN:1148,1152,_ZN7testing13PrintToStringIPKcEENSt7__cxx1112basic_stringIcSt11char_traitsIcESaIcEEERKT_
FN:1148,1152,_ZN7testing13PrintToStringIiEENSt7__cxx1112basic_stringIcSt11char_traitsIcESaIcEEERKT_
FN:1148,1152,_ZN7testing13PrintToStringImEENSt7__cxx1112basic_stringIcSt11char_traitsIcESaIcEEERKT_
FN:221,226,_ZN7testing8internal52internal_stream_operator_without_lexical_name_lookup13StreamPrinter10PrintValueIivEEDTcvvlsdefp0_fp_ERKT_PSo
FN:221,226,_ZN7testing8internal52internal_stream_operator_without_lexical_name_lookup13StreamPrinter10PrintValueImvEEDTcvvlsdefp0_fp_ERKT_PSo
FN:326,337,_ZN7testing8internal17PrintWithFallbackIiEEvRKT_PSo
FN:326,337,_ZN7testing8internal17PrintWithFallbackImEEvRKT_PSo
FN:357,359,_ZN7testing8internal19FormatForComparisonINSt7__cxx1112basic_stringIcSt11char_traitsIcESaIcEEEA2_cE6FormatERKS7_
FN:357,359,_ZN7testing8internal19FormatForComparisonINSt7__cxx1112basic_stringIcSt11char_traitsIcESaIcEEEA6_cE6FormatERKS7_
FN:357,359,_ZN7testing8internal19FormatForComparisonIiiE6FormatB5cxx11ERKi
FN:357,359,_ZN7testing8internal19FormatForComparisonIimE6FormatB5cxx11ERKi
FN:357,359,_ZN7testing8internal19FormatForComparisonImiE6FormatB5cxx11ERKm
FN:366,368,_ZN7testing8internal19FormatForComparisonIA2_cNSt7__cxx1112basic_stringIcSt11char_traitsIcESaIcEEEE6FormatEPKc
FN:366,368,_ZN7testing8internal19FormatForComparisonIA6_cNSt7__cxx1112basic_stringIcSt11char_traitsIcESaIcEEEE6FormatEPKc
FN:411,411,_ZN7testing8internal19FormatForComparisonIPKcNSt7__cxx1112basic_stringIcSt11char_traitsIcESaIcEEEE6FormatES3_
FN:437,440,_ZN7testing8internal33FormatForComparisonFailureMessageIA2_cNSt7__cxx1112basic_stringIcSt11char_traitsIcESaIcEEEEES8_RKT_RKT0_
FN:437,440,_ZN7testing8internal33FormatForComparisonFailureMessageIA6_cNSt7__cxx1112basic_stringIcSt11char_traitsIcESaIcEEEEES8_RKT_RKT0_
FN:437,440,_ZN7testing8internal33FormatForComparisonFailureMessageINSt7__cxx1112basic_stringIcSt11char_traitsIcESaIcEEEA2_cEES7_RKT_RKT0_
FN:437,440,_ZN7testing8internal33FormatForComparisonFailureMessageINSt7__cxx1112basic_stringIcSt11char_traitsIcESaIcEEEA6_cEES7_RKT_RKT0_
FN:437,440,_ZN7testing8internal33FormatForComparisonFailureMessageIiiEENSt7__cxx1112basic_stringIcSt11char_traitsIcESaIcEEERKT_RKT0_
FN:437,440,_ZN7testing8internal33FormatForComparisonFailureMessageIimEENSt7__cxx1112basic_stringIcSt11char_traitsIcESaIcEEERKT_RKT0_
FN:437,440,_ZN7testing8internal33FormatForComparisonFailureMessageImiEENSt7__cxx1112basic_stringIcSt11char_traitsIcESaIcEEERKT_RKT0_
FN:464,466,_ZN7testing8internal7PrintToIiEEvRKT_PSo
FN:464,466,_ZN7testing8internal7PrintToImEEvRKT_PSo
FN:660,662,_ZN7testing8internal7PrintToERKNSt7__cxx1112basic_stringIcSt11char_traitsIcESaIcEEEPSo
FN:799,809,_ZN7testing8internal16UniversalPrinterINSt7__cxx1112basic_stringIcSt11char_traitsIcESaIcEEEE5PrintERKS7_PSo
FN:799,809,_ZN7testing8internal16UniversalPrinterIiE5PrintERKiPSo
FN:799,809,_ZN7testing8internal16UniversalPrinterImE5PrintERKmPSo
FN:989,991,_ZN7testing8internal21UniversalTersePrinterINSt7__cxx1112basic_stringIcSt11char_traitsIcESaIcEEEE5PrintERKS7_PSo
FN:989,991,_ZN7testing8internal21UniversalTersePrinterIiE5PrintERKiPSo
FN:989,991,_ZN7testing8internal21UniversalTersePrinterImE5PrintERKmPSo
FNDA:0,_ZN7testing8internal21UniversalTersePrinterIPKcE5PrintES3_PSo
FNDA:0,_ZN7testing8internal14UniversalPrintINSt7__cxx1112basic_stringIcSt11char_traitsIcESaIcEEEEEvRKT_PSo
FNDA:0,_ZN7testing8internal14UniversalPrintIiEEvRKT_PSo
FNDA:0,_ZN7testing8internal14UniversalPrintImEEvRKT_PSo
FNDA:0,_ZN7testing13PrintToStringINSt7__cxx1112basic_stringIcSt11char_traitsIcESaIcEEEEES6_RKT_
FNDA:0,_ZN7testing13PrintToStringIPKcEENSt7__cxx1112basic_stringIcSt11char_traitsIcESaIcEEERKT_
FNDA:0,_ZN7testing13PrintToStringIiEENSt7__cxx1112basic_stringIcSt11char_traitsIcESaIcEEERKT_
FNDA:0,_ZN7testing13PrintToStringImEENSt7__cxx1112basic_stringIcSt11char_traitsIcESaIcEEERKT_
FNDA:0,_ZN7testing8internal52internal_stream_operator_without_lexical_name_lookup13StreamPrinter10PrintValueIivEEDTcvvlsdefp0_fp_ERKT_PSo
FNDA:0,_ZN7testing8internal52internal_stream_operator_without_lexical_name_lookup13StreamPrinter10PrintValueImvEEDTcvvlsdefp0_fp_ERKT_PSo
FNDA:0,_ZN7testing8internal17PrintWithFallbackIiEEvRKT_PSo
FNDA:0,_ZN7testing8internal17PrintWithFallbackImEEvRKT_PSo
FNDA:0,_ZN7testing8internal19FormatForComparisonINSt7__cxx1112basic_stringIcSt11char_traitsIcESaIcEEEA2_cE6FormatERKS7_
FNDA:0,_ZN7testing8internal19FormatForComparisonINSt7__cxx1112basic_stringIcSt11char_traitsIcESaIcEEEA6_cE6FormatERKS7_
FNDA:0,_ZN7testing8internal19FormatForComparisonIiiE6FormatB5cxx11ERKi
FNDA:0,_ZN7testing8internal19FormatForComparisonIimE6FormatB5cxx11ERKi
FNDA:0,_ZN7testing8internal19FormatForComparisonImiE6FormatB5cxx11ERKm
FNDA:0,_ZN7testing8internal19FormatForComparisonIA2_cNSt7__cxx1112basic_stringIcSt11char_traitsIcESaIcEEEE6FormatEPKc
FNDA:0,_ZN7testing8internal19FormatForComparisonIA6_cNSt7__cxx1112basic_stringIcSt11char_traitsIcESaIcEEEE6FormatEPKc
FNDA:0,_ZN7testing8internal19FormatForComparisonIPKcNSt7__cxx1112basic_stringIcSt11char_traitsIcESaIcEEEE6FormatES3_
FNDA:0,_ZN7testing8internal33FormatForComparisonFailureMessageIA2_cNSt7__cxx1112basic_stringIcSt11char_traitsIcESaIcEEEEES8_RKT_RKT0_
FNDA:0,_ZN7testing8internal33FormatForComparisonFailureMessageIA6_cNSt7__cxx1112basic_stringIcSt11char_traitsIcESaIcEEEEES8_RKT_RKT0_
FNDA:0,_ZN7testing8internal33FormatForComparisonFailureMessageINSt7__cxx1112basic_stringIcSt11char_traitsIcESaIcEEEA2_cEES7_RKT_RKT0_
FNDA:0,_ZN7testing8internal33FormatForComparisonFailureMessageINSt7__cxx1112basic_stringIcSt11char_traitsIcESaIcEEEA6_cEES7_RKT_RKT0_
FNDA:0,_ZN7testing8internal33FormatForComparisonFailureMessageIiiEENSt7__cxx1112basic_stringIcSt11char_traitsIcESaIcEEERKT_RKT0_
FNDA:0,_ZN7testing8internal33FormatForComparisonFailureMessageIimEENSt7__cxx1112basic_stringIcSt11char_traitsIcESaIcEEERKT_RKT0_
FNDA:0,_ZN7testing8internal33FormatForComparisonFailureMessageImiEENSt7__cxx1112basic_stringIcSt11char_traitsIcESaIcEEERKT_RKT0_
FNDA:0,_ZN7testing8internal7PrintToIiEEvRKT_PSo
FNDA:0,_ZN7testing8internal7PrintToImEEvRKT_PSo
FNDA:0,_ZN7testing8internal7PrintToERKNSt7__cxx1112basic_stringIcSt11char_traitsIcESaIcEEEPSo
FNDA:0,_ZN7testing8internal16UniversalPrinterINSt7__cxx1112basic_stringIcSt11char_traitsIcESaIcEEEE5PrintERKS7_PSo
FNDA:0,_ZN7testing8internal16UniversalPrinterIiE5PrintERKiPSo
FNDA:0,_ZN7testing8internal16UniversalPrinterImE5PrintERKmPSo
FNDA:0,_ZN7testing8internal21UniversalTersePrinterINSt7__cxx1112basic_stringIcSt11char_traitsIcESaIcEEEE5PrintERKS7_PSo
FNDA:0,_ZN7testing8internal21UniversalTersePrinterIiE5PrintERKiPSo
FNDA:0,_ZN7testing8internal21UniversalTersePrinterImE5PrintERKmPSo
FNF:36
FNH:0
DA:221,0
DA:225,0
DA:226,0
DA:326,0
DA:336,0
DA:337,0
DA:357,0
DA:358,0
DA:366,0
DA:367,0
DA:411,0
DA:437,0
DA:439,0
DA:464,0
DA:465,0
DA:466,0
DA:660,0
DA:661,0
DA:662,0
DA:799,0
DA:808,0
DA:809,0
DA:989,0
DA:990,0
DA:991,0
DA:1017,0
DA:1018,0
DA:1019,0
DA:1021,0
DA:1023,0
DA:1108,0
DA:1112,0
DA:1113,0
DA:1148,0
DA:1149,0
DA:1150,0
DA:1151,0
DA:1152,0
LF:38
LH:0
end_of_record
TN:
SF:/mnt/c/Users/senya/CLionProjects/fund_alg_4sem/lab1_4/cmake-build-debug/_deps/googletest-src/googletest/include/gtest/gtest.h
FN:1359,1365,_ZN7testing8internal18CmpHelperEQFailureINSt7__cxx1112basic_stringIcSt11char_traitsIcESaIcEEEA2_cEENS_15AssertionResultEPKcSB_RKT_RKT0_
FN:1359,1365,_ZN7testing8internal18CmpHelperEQFailureINSt7__cxx1112basic_stringIcSt11char_traitsIcESaIcEEEA6_cEENS_15AssertionResultEPKcSB_RKT_RKT0_
FN:1359,1365,_ZN7testing8internal18CmpHelperEQFailureIiiEENS_15AssertionResultEPKcS4_RKT_RKT0_
FN:1359,1365,_ZN7testing8internal18CmpHelperEQFailureImiEENS_15AssertionResultEPKcS4_RKT_RKT0_
FN:1376,1384,_ZN7testing8internal11CmpHelperEQINSt7__cxx1112basic_stringIcSt11char_traitsIcESaIcEEEA2_cEENS_15AssertionResultEPKcSB_RKT_RKT0_
FN:1376,1384,_ZN7testing8internal11CmpHelperEQINSt7__cxx1112basic_stringIcSt11char_traitsIcESaIcEEEA6_cEENS_15AssertionResultEPKcSB_RKT_RKT0_
FN:1376,1384,_ZN7testing8internal11CmpHelperEQIiiEENS_15AssertionResultEPKcS4_RKT_RKT0_
FN:1376,1384,_ZN7testing8internal11CmpHelperEQImiEENS_15AssertionResultEPKcS4_RKT_RKT0_
FN:1395,1399,_ZN7testing8internal8EqHelper7CompareINSt7__cxx1112basic_stringIcSt11char_traitsIcESaIcEEEA2_cLPv0EEENS_15AssertionResultEPKcSD_RKT_RKT0_
FN:1395,1399,_ZN7testing8internal8EqHelper7CompareINSt7__cxx1112basic_stringIcSt11char_traitsIcESaIcEEEA6_cLPv0EEENS_15AssertionResultEPKcSD_RKT_RKT0_
FN:1395,1399,_ZN7testing8internal8EqHelper7CompareIiiLPv0EEENS_15AssertionResultEPKcS6_RKT_RKT0_
FN:1395,1399,_ZN7testing8internal8EqHelper7CompareImiLPv0EEENS_15AssertionResultEPKcS6_RKT_RKT0_
FN:256,256,_ZN7testing4Test14SetUpTestSuiteEv
FN:264,264,_ZN7testing4Test17TearDownTestSuiteEv
FN:269,269,_ZN7testing4Test16TearDownTestCaseEv
FN:270,270,_ZN7testing4Test13SetUpTestCaseEv
FN:357,357,_ZN7testing4Test5SetupEv
FNDA:0,_ZN7testing8internal18CmpHelperEQFailureINSt7__cxx1112basic_stringIcSt11char_traitsIcESaIcEEEA2_cEENS_15AssertionResultEPKcSB_RKT_RKT0_
FNDA:0,_ZN7testing8internal18CmpHelperEQFailureINSt7__cxx1112basic_stringIcSt11char_traitsIcESaIcEEEA6_cEENS_15AssertionResultEPKcSB_RKT_RKT0_
FNDA:0,_ZN7testing8internal18CmpHelperEQFailureIiiEENS_15AssertionResultEPKcS4_RKT_RKT0_
FNDA:0,_ZN7testing8internal18CmpHelperEQFailureImiEENS_15AssertionResultEPKcS4_RKT_RKT0_
FNDA:2,_ZN7testing8internal11CmpHelperEQINSt7__cxx1112basic_stringIcSt11char_traitsIcESaIcEEEA2_cEENS_15AssertionResultEPKcSB_RKT_RKT0_
FNDA:1,_ZN7testing8internal11CmpHelperEQINSt7__cxx1112basic_stringIcSt11char_traitsIcESaIcEEEA6_cEENS_15AssertionResultEPKcSB_RKT_RKT0_
FNDA:8,_ZN7testing8internal11CmpHelperEQIiiEENS_15AssertionResultEPKcS4_RKT_RKT0_
FNDA:9,_ZN7testing8internal11CmpHelperEQImiEENS_15AssertionResultEPKcS4_RKT_RKT0_
FNDA:2,_ZN7testing8internal8EqHelper7CompareINSt7__cxx1112basic_stringIcSt11char_traitsIcESaIcEEEA2_cLPv0EEENS_15AssertionResultEPKcSD_RKT_RKT0_
FNDA:1,_ZN7testing8internal8EqHelper7CompareINSt7__cxx1112basic_stringIcSt11char_traitsIcESaIcEEEA6_cLPv0EEENS_15AssertionResultEPKcSD_RKT_RKT0_
FNDA:8,_ZN7testing8internal8EqHelper7CompareIiiLPv0EEENS_15AssertionResultEPKcS6_RKT_RKT0_
FNDA:9,_ZN7testing8internal8EqHelper7CompareImiLPv0EEENS_15AssertionResultEPKcS6_RKT_RKT0_
FNDA:0,_ZN7testing4Test14SetUpTestSuiteEv
FNDA:0,_ZN7testing4Test17TearDownTestSuiteEv
FNDA:0,_ZN7testing4Test16TearDownTestCaseEv
FNDA:0,_ZN7testing4Test13SetUpTestCaseEv
FNDA:0,_ZN7testing4Test5SetupEv
FNF:17
FNH:8
DA:256,0
DA:264,0
DA:269,0
DA:270,0
DA:357,0
DA:1359,0
DA:1364,0
DA:1376,20
DA:1379,20
DA:1380,20
DA:1383,0
DA:1395,20
DA:1398,20
LF:13
LH:5
end_of_record
TN:
SF:/mnt/c/Users/senya/CLionProjects/fund_alg_4sem/lab1_4/cmake-build-debug/_deps/googletest-src/googletest/include/gtest/internal/gtest-internal.h
FN:419,425,_ZN7testing8internal9GetTypeIdIN12my_container9StackTestEEEPKvv
FN:438,438,_ZN7testing8internal15TestFactoryBaseD0Ev
FN:438,438,_ZN7testing8internal15TestFactoryBaseD2Ev
FN:445,445,_ZN7testing8internal15TestFactoryBaseC2Ev
FN:457,457,_ZN7testing8internal15TestFactoryImplIN12my_container25StackTest_SwapMethod_TestEE10CreateTestEv
FN:457,457,_ZN7testing8internal15TestFactoryImplIN12my_container25StackTest_TopMethods_TestEE10CreateTestEv
FN:457,457,_ZN7testing8internal15TestFactoryImplIN12my_container26StackTest_Comparisons_TestEE10CreateTestEv
FN:457,457,_ZN7testing8internal15TestFactoryImplIN12my_container26StackTest_StringStack_TestEE10CreateTestEv
FN:457,457,_ZN7testing8internal15TestFactoryImplIN12my_container29StackTest_CopyAssignment_TestEE10CreateTestEv
FN:457,457,_ZN7testing8internal15TestFactoryImplIN12my_container29StackTest_MoveAssignment_TestEE10CreateTestEv
FN:457,457,_ZN7testing8internal15TestFactoryImplIN12my_container30StackTest_CopyConstructor_TestEE10CreateTestEv
FN:457,457,_ZN7testing8internal15TestFactoryImplIN12my_container30StackTest_MoveConstructor_TestEE10CreateTestEv
FN:457,457,_ZN7testing8internal15TestFactoryImplIN12my_container32StackTest_PushPopOperations_TestEE10CreateTestEv
FN:457,457,_ZN7testing8internal15TestFactoryImplIN12my_container33StackTest_DefaultConstructor_TestEE10CreateTestEv
FN:457,457,_ZN7testing8internal15TestFactoryImplIN12my_container41StackTest_InitializerListConstructor_TestEE10CreateTestEv
FN:478,479,_ZN7testing8internal12CodeLocationC2ERKNSt7__cxx1112basic_stringIcSt11char_traitsIcESaIcEEEi
FN:491,494,_ZN7testing8internal19GetNotDefaultOrNullEPFvvES2_
FN:506,525,_ZN7testing8internal16SuiteApiResolverIN12my_container9StackTestEE19GetSetUpCaseOrSuiteEPKci
FN:527,546,_ZN7testing8internal16SuiteApiResolverIN12my_container9StackTestEE22GetTearDownCaseOrSuiteEPKci
FN:843,843,_ZN7testing8internal14TrueWithStringC2Ev
FN:846,846,_ZNK7testing8internal14TrueWithStringcvbEv
FNDA:22,_ZN7testing8internal9GetTypeIdIN12my_container9StackTestEEEPKvv
FNDA:0,_ZN7testing8internal15TestFactoryBaseD0Ev
FNDA:22,_ZN7testing8internal15TestFactoryBaseD2Ev
FNDA:22,_ZN7testing8internal15TestFactoryBaseC2Ev
FNDA:1,_ZN7testing8internal15TestFactoryImplIN12my_container25StackTest_SwapMethod_TestEE10CreateTestEv
FNDA:1,_ZN7testing8internal15TestFactoryImplIN12my_container25StackTest_TopMethods_TestEE10CreateTestEv
FNDA:1,_ZN7testing8internal15TestFactoryImplIN12my_container26StackTest_Comparisons_TestEE10CreateTestEv
FNDA:1,_ZN7testing8internal15TestFactoryImplIN12my_container26StackTest_StringStack_TestEE10CreateTestEv
FNDA:1,_ZN7testing8internal15TestFactoryImplIN12my_container29StackTest_CopyAssignment_TestEE10CreateTestEv
FNDA:1,_ZN7testing8internal15TestFactoryImplIN12my_container29StackTest_MoveAssignment_TestEE10CreateTestEv
FNDA:1,_ZN7testing8internal15TestFactoryImplIN12my_container30StackTest_CopyConstructor_TestEE10CreateTestEv
FNDA:1,_ZN7testing8internal15TestFactoryImplIN12my_container30StackTest_MoveConstructor_TestEE10CreateTestEv
FNDA:1,_ZN7testing8internal15TestFactoryImplIN12my_container32StackTest_PushPopOperations_TestEE10CreateTestEv
FNDA:1,_ZN7testing8internal15TestFactoryImplIN12my_container33StackTest_DefaultConstructor_TestEE10CreateTestEv
FNDA:1,_ZN7testing8internal15TestFactoryImplIN12my_container41StackTest_InitializerListConstructor_TestEE10CreateTestEv
FNDA:22,_ZN7testing8internal12CodeLocationC2ERKNSt7__cxx1112basic_stringIcSt11char_traitsIcESaIcEEEi
FNDA:88,_ZN7testing8internal19GetNotDefaultOrNullEPFvvES2_
FNDA:22,_ZN7testing8internal16SuiteApiResolverIN12my_container9StackTestEE19GetSetUpCaseOrSuiteEPKci
FNDA:22,_ZN7testing8internal16SuiteApiResolverIN12my_container9StackTestEE22GetTearDownCaseOrSuiteEPKci
FNDA:1,_ZN7testing8internal14TrueWithStringC2Ev
FNDA:1,_ZNK7testing8internal14TrueWithStringcvbEv
FNF:21
FNH:20
DA:419,22
DA:424,22
DA:438,22
DA:445,22
DA:457,11
DA:478,22
DA:479,22
DA:491,88
DA:493,88
DA:506,22
DA:510,22
DA:512,22
DA:514,22
DA:517,0
DA:519,22
DA:527,22
DA:531,22
DA:533,22
DA:535,22
DA:538,0
DA:540,22
DA:843,1
DA:846,1
LF:23
LH:21
end_of_record
TN:
SF:/mnt/c/Users/senya/CLionProjects/fund_alg_4sem/lab1_4/cmake-build-debug/_deps/googletest-src/googletest/include/gtest/internal/gtest-port.h
FN:1042,1042,_ZN7testing8internal8GTestLog9GetStreamEv
FNDA:0,_ZN7testing8internal8GTestLog9GetStreamEv
FNF:1
FNH:0
DA:1042,0
LF:1
LH:0
end_of_record
TN:
SF:/mnt/c/Users/senya/CLionProjects/fund_alg_4sem/lab1_4/cmake-build-debug/_deps/googletest-src/googletest/include/gtest/internal/gtest-type-util.h
FN:61,87,_ZN7testing8internal31CanonicalizeForStdLibVersioningENSt7__cxx1112basic_stringIcSt11char_traitsIcESaIcEEE
FN:91,121,_ZN7testing8internal11GetTypeNameB5cxx11ERKSt9type_info
FNDA:0,_ZN7testing8internal31CanonicalizeForStdLibVersioningENSt7__cxx1112basic_stringIcSt11char_traitsIcESaIcEEE
FNDA:0,_ZN7testing8internal11GetTypeNameB5cxx11ERKSt9type_info
FNF:2
FNH:0
DA:61,0
DA:63,0
DA:64,0
DA:65,0
DA:67,0
DA:75,0
DA:78,0
DA:79,0
DA:80,0
DA:83,0
DA:84,0
DA:86,0
DA:91,0
DA:92,0
DA:94,0
DA:100,0
DA:101,0
DA:102,0
DA:103,0
DA:121,0
LF:20
LH:0
end_of_record
TN:
SF:/mnt/c/Users/senya/CLionProjects/fund_alg_4sem/lab1_4/include/container.h
FN:14,14,_ZN9ContainerINSt7__cxx1112basic_stringIcSt11char_traitsIcESaIcEEEEC2Ev
FN:14,14,_ZN9ContainerIiEC2Ev
FN:18,18,_ZN9ContainerINSt7__cxx1112basic_stringIcSt11char_traitsIcESaIcEEEED0Ev
FN:18,18,_ZN9ContainerINSt7__cxx1112basic_stringIcSt11char_traitsIcESaIcEEEED2Ev
FN:18,18,_ZN9ContainerIiED0Ev
FN:18,18,_ZN9ContainerIiED2Ev
FNDA:12,_ZN9ContainerINSt7__cxx1112basic_stringIcSt11char_traitsIcESaIcEEEEC2Ev
FNDA:32,_ZN9ContainerIiEC2Ev
FNDA:0,_ZN9ContainerINSt7__cxx1112basic_stringIcSt11char_traitsIcESaIcEEEED0Ev
FNDA:12,_ZN9ContainerINSt7__cxx1112basic_stringIcSt11char_traitsIcESaIcEEEED2Ev
FNDA:0,_ZN9ContainerIiED0Ev
FNDA:32,_ZN9ContainerIiED2Ev
FNF:6
FNH:4
DA:14,44
DA:18,44
LF:2
LH:2
end_of_record
TN:
SF:/mnt/c/Users/senya/CLionProjects/fund_alg_4sem/lab1_4/include/deque.h
FN:105,108,_ZNK12my_container5DequeIiEssERKS1_
FN:22,22,_ZN12my_container5DequeIiEC2Ev
FN:23,23,_ZN12my_container5DequeINSt7__cxx1112basic_stringIcSt11char_traitsIcESaIcEEEEC2ERKS7_
FN:23,23,_ZN12my_container5DequeIiEC2ERKS1_
FN:24,24,_ZN12my_container5DequeIiEC2EOS1_
FN:25,29,_ZN12my_container5DequeINSt7__cxx1112basic_stringIcSt11char_traitsIcESaIcEEEEC2ESt16initializer_listIS6_E
FN:25,29,_ZN12my_container5DequeIiEC2ESt16initializer_listIiE
FN:30,30,_ZN12my_container5DequeINSt7__cxx1112basic_stringIcSt11char_traitsIcESaIcEEEED0Ev
FN:30,30,_ZN12my_container5DequeINSt7__cxx1112basic_stringIcSt11char_traitsIcESaIcEEEED2Ev
FN:30,30,_ZN12my_container5DequeIiED0Ev
FN:30,30,_ZN12my_container5DequeIiED2Ev
FN:32,32,_ZN12my_container5DequeIiEaSERKS1_
FN:33,33,_ZN12my_container5DequeIiEaSEOS1_
FN:50,50,_ZN12my_container5DequeINSt7__cxx1112basic_stringIcSt11char_traitsIcESaIcEEEE5frontEv
FN:50,50,_ZN12my_container5DequeIiE5frontEv
FN:51,51,_ZNK12my_container5DequeINSt7__cxx1112basic_stringIcSt11char_traitsIcESaIcEEEE5frontEv
FN:51,51,_ZNK12my_container5DequeIiE5frontEv
FN:53,53,_ZN12my_container5DequeINSt7__cxx1112basic_stringIcSt11char_traitsIcESaIcEEEE4backEv
FN:53,53,_ZN12my_container5DequeIiE4backEv
FN:54,54,_ZNK12my_container5DequeINSt7__cxx1112basic_stringIcSt11char_traitsIcESaIcEEEE4backEv
FN:54,54,_ZNK12my_container5DequeIiE4backEv
FN:56,56,_ZN12my_container5DequeINSt7__cxx1112basic_stringIcSt11char_traitsIcESaIcEEEE5beginEv
FN:56,56,_ZN12my_container5DequeIiE5beginEv
FN:57,57,_ZNK12my_container5DequeINSt7__cxx1112basic_stringIcSt11char_traitsIcESaIcEEEE6cbeginEv
FN:57,57,_ZNK12my_container5DequeIiE6cbeginEv
FN:59,59,_ZN12my_container5DequeINSt7__cxx1112basic_stringIcSt11char_traitsIcESaIcEEEE3endEv
FN:59,59,_ZN12my_container5DequeIiE3endEv
FN:60,60,_ZNK12my_container5DequeINSt7__cxx1112basic_stringIcSt11char_traitsIcESaIcEEEE4cendEv
FN:60,60,_ZNK12my_container5DequeIiE4cendEv
FN:63,63,_ZN12my_container5DequeINSt7__cxx1112basic_stringIcSt11char_traitsIcESaIcEEEE6rbeginEv
FN:63,63,_ZN12my_container5DequeIiE6rbeginEv
FN:64,64,_ZNK12my_container5DequeINSt7__cxx1112basic_stringIcSt11char_traitsIcESaIcEEEE7crbeginEv
FN:64,64,_ZNK12my_container5DequeIiE7crbeginEv
FN:66,66,_ZN12my_container5DequeINSt7__cxx1112basic_stringIcSt11char_traitsIcESaIcEEEE4rendEv
FN:66,66,_ZN12my_container5DequeIiE4rendEv
FN:67,67,_ZNK12my_container5DequeINSt7__cxx1112basic_stringIcSt11char_traitsIcESaIcEEEE5crendEv
FN:67,67,_ZNK12my_container5DequeIiE5crendEv
FN:69,69,_ZNK12my_container5DequeINSt7__cxx1112basic_stringIcSt11char_traitsIcESaIcEEEE5emptyEv
FN:69,69,_ZNK12my_container5DequeIiE5emptyEv
FN:70,70,_ZNK12my_container5DequeINSt7__cxx1112basic_stringIcSt11char_traitsIcESaIcEEEE4sizeEv
FN:70,70,_ZNK12my_container5DequeIiE4sizeEv
FN:71,71,_ZNK12my_container5DequeINSt7__cxx1112basic_stringIcSt11char_traitsIcESaIcEEEE8max_sizeEv
FN:71,71,_ZNK12my_container5DequeIiE8max_sizeEv
FN:72,72,_ZN12my_container5DequeINSt7__cxx1112basic_stringIcSt11char_traitsIcESaIcEEEE5clearEv
FN:72,72,_ZN12my_container5DequeIiE5clearEv
FN:82,82,_ZN12my_container5DequeINSt7__cxx1112basic_stringIcSt11char_traitsIcESaIcEEEE9push_backERKS6_
FN:82,82,_ZN12my_container5DequeIiE9push_backERKi
FN:83,83,_ZN12my_container5DequeINSt7__cxx1112basic_stringIcSt11char_traitsIcESaIcEEEE8pop_backEv
FN:83,83,_ZN12my_container5DequeIiE8pop_backEv
FN:85,85,_ZN12my_container5DequeINSt7__cxx1112basic_stringIcSt11char_traitsIcESaIcEEEE10push_frontERKS6_
FN:85,85,_ZN12my_container5DequeIiE10push_frontERKi
FN:86,86,_ZN12my_container5DequeINSt7__cxx1112basic_stringIcSt11char_traitsIcESaIcEEEE9pop_frontEv
FN:86,86,_ZN12my_container5DequeIiE9pop_frontEv
FN:89,98,_ZN12my_container5DequeINSt7__cxx1112basic_stringIcSt11char_traitsIcESaIcEEEE6resizeEmRKS6_
FN:89,98,_ZN12my_container5DequeIiE6resizeEmRKi
FN:99,99,_ZN12my_container5DequeIiE4swapERS1_
FNDA:5,_ZNK12my_container5DequeIiEssERKS1_
FNDA:13,_ZN12my_container5DequeIiEC2Ev
FNDA:1,_ZN12my_container5DequeINSt7__cxx1112basic_stringIcSt11char_traitsIcESaIcEEEEC2ERKS7_
FNDA:1,_ZN12my_container5DequeIiEC2ERKS1_
FNDA:1,_ZN12my_container5DequeIiEC2EOS1_
FNDA:11,_ZN12my_container5DequeINSt7__cxx1112basic_stringIcSt11char_traitsIcESaIcEEEEC2ESt16initializer_listIS6_E
FNDA:17,_ZN12my_container5DequeIiEC2ESt16initializer_listIiE
FNDA:0,_ZN12my_container5DequeINSt7__cxx1112basic_stringIcSt11char_traitsIcESaIcEEEED0Ev
FNDA:12,_ZN12my_container5DequeINSt7__cxx1112basic_stringIcSt11char_traitsIcESaIcEEEED2Ev
FNDA:0,_ZN12my_container5DequeIiED0Ev
FNDA:32,_ZN12my_container5DequeIiED2Ev
FNDA:1,_ZN12my_container5DequeIiEaSERKS1_
FNDA:1,_ZN12my_container5DequeIiEaSEOS1_
FNDA:3,_ZN12my_container5DequeINSt7__cxx1112basic_stringIcSt11char_traitsIcESaIcEEEE5frontEv
FNDA:9,_ZN12my_container5DequeIiE5frontEv
FNDA:0,_ZNK12my_container5DequeINSt7__cxx1112basic_stringIcSt11char_traitsIcESaIcEEEE5frontEv
FNDA:0,_ZNK12my_container5DequeIiE5frontEv
FNDA:0,_ZN12my_container5DequeINSt7__cxx1112basic_stringIcSt11char_traitsIcESaIcEEEE4backEv
FNDA:0,_ZN12my_container5DequeIiE4backEv
FNDA:0,_ZNK12my_container5DequeINSt7__cxx1112basic_stringIcSt11char_traitsIcESaIcEEEE4backEv
FNDA:0,_ZNK12my_container5DequeIiE4backEv
FNDA:5,_ZN12my_container5DequeINSt7__cxx1112basic_stringIcSt11char_traitsIcESaIcEEEE5beginEv
FNDA:78,_ZN12my_container5DequeIiE5beginEv
FNDA:0,_ZNK12my_container5DequeINSt7__cxx1112basic_stringIcSt11char_traitsIcESaIcEEEE6cbeginEv
FNDA:10,_ZNK12my_container5DequeIiE6cbeginEv
FNDA:22,_ZN12my_container5DequeINSt7__cxx1112basic_stringIcSt11char_traitsIcESaIcEEEE3endEv
FNDA:50,_ZN12my_container5DequeIiE3endEv
FNDA:0,_ZNK12my_container5DequeINSt7__cxx1112basic_stringIcSt11char_traitsIcESaIcEEEE4cendEv
FNDA:10,_ZNK12my_container5DequeIiE4cendEv
FNDA:0,_ZN12my_container5DequeINSt7__cxx1112basic_stringIcSt11char_traitsIcESaIcEEEE6rbeginEv
FNDA:0,_ZN12my_container5DequeIiE6rbeginEv
FNDA:0,_ZNK12my_container5DequeINSt7__cxx1112basic_stringIcSt11char_traitsIcESaIcEEEE7crbeginEv
FNDA:0,_ZNK12my_container5DequeIiE7crbeginEv
FNDA:0,_ZN12my_container5DequeINSt7__cxx1112basic_stringIcSt11char_traitsIcESaIcEEEE4rendEv
FNDA:0,_ZN12my_container5DequeIiE4rendEv
FNDA:0,_ZNK12my_container5DequeINSt7__cxx1112basic_stringIcSt11char_traitsIcESaIcEEEE5crendEv
FNDA:0,_ZNK12my_container5DequeIiE5crendEv
FNDA:0,_ZNK12my_container5DequeINSt7__cxx1112basic_stringIcSt11char_traitsIcESaIcEEEE5emptyEv
FNDA:50,_ZNK12my_container5DequeIiE5emptyEv
FNDA:1,_ZNK12my_container5DequeINSt7__cxx1112basic_stringIcSt11char_traitsIcESaIcEEEE4sizeEv
FNDA:8,_ZNK12my_container5DequeIiE4sizeEv
FNDA:0,_ZNK12my_container5DequeINSt7__cxx1112basic_stringIcSt11char_traitsIcESaIcEEEE8max_sizeEv
FNDA:0,_ZNK12my_container5DequeIiE8max_sizeEv
FNDA:0,_ZN12my_container5DequeINSt7__cxx1112basic_stringIcSt11char_traitsIcESaIcEEEE5clearEv
FNDA:2,_ZN12my_container5DequeIiE5clearEv
FNDA:22,_ZN12my_container5DequeINSt7__cxx1112basic_stringIcSt11char_traitsIcESaIcEEEE9push_backERKS6_
FNDA:50,_ZN12my_container5DequeIiE9push_backERKi
FNDA:0,_ZN12my_container5DequeINSt7__cxx1112basic_stringIcSt11char_traitsIcESaIcEEEE8pop_backEv
FNDA:0,_ZN12my_container5DequeIiE8pop_backEv
FNDA:1,_ZN12my_container5DequeINSt7__cxx1112basic_stringIcSt11char_traitsIcESaIcEEEE10push_frontERKS6_
FNDA:34,_ZN12my_container5DequeIiE10push_frontERKi
FNDA:1,_ZN12my_container5DequeINSt7__cxx1112basic_stringIcSt11char_traitsIcESaIcEEEE9pop_frontEv
FNDA:35,_ZN12my_container5DequeIiE9pop_frontEv
FNDA:0,_ZN12my_container5DequeINSt7__cxx1112basic_stringIcSt11char_traitsIcESaIcEEEE6resizeEmRKS6_
FNDA:0,_ZN12my_container5DequeIiE6resizeEmRKi
FNDA:1,_ZN12my_container5DequeIiE4swapERS1_
FNF:56
FNH:30
DA:22,13
DA:23,2
DA:24,1
DA:25,28
DA:26,97
DA:27,69
DA:29,28
DA:30,44
DA:32,1
DA:33,1
DA:50,12
DA:51,0
DA:53,0
DA:54,0
DA:56,83
DA:57,10
DA:59,72
DA:60,10
DA:63,0
DA:64,0
DA:66,0
DA:67,0
DA:69,50
DA:70,9
DA:71,0
DA:72,2
DA:82,72
DA:83,0
DA:85,35
DA:86,36
DA:89,0
DA:90,0
DA:91,0
DA:93,0
DA:94,0
DA:95,0
DA:98,0
DA:99,1
DA:105,5
DA:106,5
DA:107,10
LF:41
LH:25
end_of_record
TN:
SF:/mnt/c/Users/senya/CLionProjects/fund_alg_4sem/lab1_4/include/list.h
FN:111,111,_ZN12my_container4ListINSt7__cxx1112basic_stringIcSt11char_traitsIcESaIcEEEE14const_iteratorC2EPKNS7_4NodeE
FN:111,111,_ZN12my_container4ListIiE14const_iteratorC2EPKNS1_4NodeE
FN:112,112,_ZN12my_container4ListINSt7__cxx1112basic_stringIcSt11char_traitsIcESaIcEEEE14const_iteratorC2ERKNS7_8iteratorE
FN:112,112,_ZN12my_container4ListIiE14const_iteratorC2ERKNS1_8iteratorE
FN:114,114,_ZNK12my_container4ListINSt7__cxx1112basic_stringIcSt11char_traitsIcESaIcEEEE14const_iteratordeEv
FN:114,114,_ZNK12my_container4ListIiE14const_iteratordeEv
FN:117,117,_ZN12my_container4ListINSt7__cxx1112basic_stringIcSt11char_traitsIcESaIcEEEE14const_iteratorppEv
FN:117,117,_ZN12my_container4ListIiE14const_iteratorppEv
FN:119,119,_ZN12my_container4ListINSt7__cxx1112basic_stringIcSt11char_traitsIcESaIcEEEE14const_iteratormmEv
FN:119,119,_ZN12my_container4ListIiE14const_iteratormmEv
FN:122,122,_ZNK12my_container4ListINSt7__cxx1112basic_stringIcSt11char_traitsIcESaIcEEEE14const_iteratoreqERKS8_
FN:122,122,_ZNK12my_container4ListIiE14const_iteratoreqERKS2_
FN:123,123,_ZNK12my_container4ListINSt7__cxx1112basic_stringIcSt11char_traitsIcESaIcEEEE14const_iteratorneERKS8_
FN:123,123,_ZNK12my_container4ListIiE14const_iteratorneERKS2_
FN:127,127,_ZN12my_container4ListINSt7__cxx1112basic_stringIcSt11char_traitsIcESaIcEEEE5beginEv
FN:127,127,_ZN12my_container4ListIiE5beginEv
FN:128,128,_ZN12my_container4ListINSt7__cxx1112basic_stringIcSt11char_traitsIcESaIcEEEE3endEv
FN:128,128,_ZN12my_container4ListIiE3endEv
FN:129,129,_ZNK12my_container4ListINSt7__cxx1112basic_stringIcSt11char_traitsIcESaIcEEEE5beginEv
FN:129,129,_ZNK12my_container4ListIiE5beginEv
FN:130,130,_ZNK12my_container4ListINSt7__cxx1112basic_stringIcSt11char_traitsIcESaIcEEEE3endEv
FN:130,130,_ZNK12my_container4ListIiE3endEv
FN:131,131,_ZNK12my_container4ListINSt7__cxx1112basic_stringIcSt11char_traitsIcESaIcEEEE6cbeginEv
FN:131,131,_ZNK12my_container4ListIiE6cbeginEv
FN:132,132,_ZNK12my_container4ListINSt7__cxx1112basic_stringIcSt11char_traitsIcESaIcEEEE4cendEv
FN:132,132,_ZNK12my_container4ListIiE4cendEv
FN:137,137,_ZN12my_container4ListINSt7__cxx1112basic_stringIcSt11char_traitsIcESaIcEEEE6rbeginEv
FN:137,137,_ZN12my_container4ListIiE6rbeginEv
FN:138,138,_ZN12my_container4ListINSt7__cxx1112basic_stringIcSt11char_traitsIcESaIcEEEE4rendEv
FN:138,138,_ZN12my_container4ListIiE4rendEv
FN:140,140,_ZNK12my_container4ListINSt7__cxx1112basic_stringIcSt11char_traitsIcESaIcEEEE7crbeginEv
FN:140,140,_ZNK12my_container4ListIiE7crbeginEv
FN:141,141,_ZNK12my_container4ListINSt7__cxx1112basic_stringIcSt11char_traitsIcESaIcEEEE5crendEv
FN:141,141,_ZNK12my_container4ListIiE5crendEv
FN:143,143,_ZNK12my_container4ListINSt7__cxx1112basic_stringIcSt11char_traitsIcESaIcEEEE6rbeginEv
FN:143,143,_ZNK12my_container4ListIiE6rbeginEv
FN:144,144,_ZNK12my_container4ListINSt7__cxx1112basic_stringIcSt11char_traitsIcESaIcEEEE4rendEv
FN:144,144,_ZNK12my_container4ListIiE4rendEv
FN:151,151,_ZN12my_container4ListINSt7__cxx1112basic_stringIcSt11char_traitsIcESaIcEEEE9push_backERKS6_
FN:151,151,_ZN12my_container4ListIiE9push_backERKi
FN:154,154,_ZN12my_container4ListINSt7__cxx1112basic_stringIcSt11char_traitsIcESaIcEEEE8pop_backEv
FN:154,154,_ZN12my_container4ListIiE8pop_backEv
FN:156,156,_ZN12my_container4ListINSt7__cxx1112basic_stringIcSt11char_traitsIcESaIcEEEE10push_frontERKS6_
FN:156,156,_ZN12my_container4ListIiE10push_frontERKi
FN:159,159,_ZN12my_container4ListINSt7__cxx1112basic_stringIcSt11char_traitsIcESaIcEEEE9pop_frontEv
FN:159,159,_ZN12my_container4ListIiE9pop_frontEv
FN:169,179,_ZN12my_container4ListINSt7__cxx1112basic_stringIcSt11char_traitsIcESaIcEEEEaSERK9ContainerIS6_E
FN:169,179,_ZN12my_container4ListIiEaSERK9ContainerIiE
FN:182,186,_ZNK12my_container4ListINSt7__cxx1112basic_stringIcSt11char_traitsIcESaIcEEEEeqERK9ContainerIS6_E
FN:182,186,_ZNK12my_container4ListIiEeqERK9ContainerIiE
FN:189,191,_ZNK12my_container4ListINSt7__cxx1112basic_stringIcSt11char_traitsIcESaIcEEEEneERK9ContainerIS6_E
FN:189,191,_ZNK12my_container4ListIiEneERK9ContainerIiE
FN:210,218,_ZN12my_container4ListINSt7__cxx1112basic_stringIcSt11char_traitsIcESaIcEEEE5eraseENS7_14const_iteratorE
FN:210,218,_ZN12my_container4ListIiE5eraseENS1_14const_iteratorE
FN:22,23,_ZN12my_container4ListINSt7__cxx1112basic_stringIcSt11char_traitsIcESaIcEEEE4NodeC2ERKS6_PS8_SB_
FN:22,23,_ZN12my_container4ListIiE4NodeC2ERKiPS2_S5_
FN:221,224,_ZN12my_container4ListIiE4swapERS1_
FN:227,230,_ZN12my_container4ListINSt7__cxx1112basic_stringIcSt11char_traitsIcESaIcEEEE6resizeEmRKS6_
FN:227,230,_ZN12my_container4ListIiE6resizeEmRKi
FN:233,242,_ZN12my_container4ListINSt7__cxx1112basic_stringIcSt11char_traitsIcESaIcEEEE6insertENS7_14const_iteratorERKS6_
FN:233,242,_ZN12my_container4ListIiE6insertENS1_14const_iteratorERKi
FN:256,259,_ZN12my_container4ListINSt7__cxx1112basic_stringIcSt11char_traitsIcESaIcEEEE5clearEv
FN:256,259,_ZN12my_container4ListIiE5clearEv
FN:262,265,_ZNK12my_container4ListINSt7__cxx1112basic_stringIcSt11char_traitsIcESaIcEEEE4backEv
FN:262,265,_ZNK12my_container4ListIiE4backEv
FN:268,271,_ZN12my_container4ListINSt7__cxx1112basic_stringIcSt11char_traitsIcESaIcEEEE4backEv
FN:268,271,_ZN12my_container4ListIiE4backEv
FN:274,277,_ZNK12my_container4ListINSt7__cxx1112basic_stringIcSt11char_traitsIcESaIcEEEE5frontEv
FN:274,277,_ZNK12my_container4ListIiE5frontEv
FN:280,283,_ZN12my_container4ListINSt7__cxx1112basic_stringIcSt11char_traitsIcESaIcEEEE5frontEv
FN:280,283,_ZN12my_container4ListIiE5frontEv
FN:286,289,_ZN12my_container4ListINSt7__cxx1112basic_stringIcSt11char_traitsIcESaIcEEEED0Ev
FN:286,289,_ZN12my_container4ListINSt7__cxx1112basic_stringIcSt11char_traitsIcESaIcEEEED2Ev
FN:286,289,_ZN12my_container4ListIiED0Ev
FN:286,289,_ZN12my_container4ListIiED2Ev
FN:292,305,_ZN12my_container4ListIiEaSEOS1_
FN:308,314,_ZN12my_container4ListINSt7__cxx1112basic_stringIcSt11char_traitsIcESaIcEEEEaSERKS7_
FN:308,314,_ZN12my_container4ListIiEaSERKS1_
FN:317,321,_ZN12my_container4ListIiEC2EOS1_
FN:32,38,_ZN12my_container4ListINSt7__cxx1112basic_stringIcSt11char_traitsIcESaIcEEEE9copyNodesERKS7_
FN:32,38,_ZN12my_container4ListIiE9copyNodesERKS1_
FN:324,326,_ZN12my_container4ListINSt7__cxx1112basic_stringIcSt11char_traitsIcESaIcEEEEC2ERKS7_
FN:324,326,_ZN12my_container4ListIiEC2ERKS1_
FN:334,338,_ZN12my_container4ListINSt7__cxx1112basic_stringIcSt11char_traitsIcESaIcEEEEC2Ev
FN:334,338,_ZN12my_container4ListIiEC2Ev
FN:71,71,_ZNK12my_container4ListINSt7__cxx1112basic_stringIcSt11char_traitsIcESaIcEEEE5emptyEv
FN:71,71,_ZNK12my_container4ListIiE5emptyEv
FN:72,72,_ZNK12my_container4ListINSt7__cxx1112basic_stringIcSt11char_traitsIcESaIcEEEE4sizeEv
FN:72,72,_ZNK12my_container4ListIiE4sizeEv
FN:73,73,_ZNK12my_container4ListINSt7__cxx1112basic_stringIcSt11char_traitsIcESaIcEEEE8max_sizeEv
FN:73,73,_ZNK12my_container4ListIiE8max_sizeEv
FN:87,87,_ZN12my_container4ListINSt7__cxx1112basic_stringIcSt11char_traitsIcESaIcEEEE8iteratorC2EPNS7_4NodeE
FN:87,87,_ZN12my_container4ListIiE8iteratorC2EPNS1_4NodeE
FN:89,89,_ZNK12my_container4ListINSt7__cxx1112basic_stringIcSt11char_traitsIcESaIcEEEE8iteratordeEv
FN:89,89,_ZNK12my_container4ListIiE8iteratordeEv
FN:92,92,_ZN12my_container4ListINSt7__cxx1112basic_stringIcSt11char_traitsIcESaIcEEEE8iteratorppEv
FN:92,92,_ZN12my_container4ListIiE8iteratorppEv
FN:94,94,_ZN12my_container4ListINSt7__cxx1112basic_stringIcSt11char_traitsIcESaIcEEEE8iteratormmEv
FN:94,94,_ZN12my_container4ListIiE8iteratormmEv
FNDA:0,_ZN12my_container4ListINSt7__cxx1112basic_stringIcSt11char_traitsIcESaIcEEEE14const_iteratorC2EPKNS7_4NodeE
FNDA:20,_ZN12my_container4ListIiE14const_iteratorC2EPKNS1_4NodeE
FNDA:52,_ZN12my_container4ListINSt7__cxx1112basic_stringIcSt11char_traitsIcESaIcEEEE14const_iteratorC2ERKNS7_8iteratorE
FNDA:175,_ZN12my_container4ListIiE14const_iteratorC2ERKNS1_8iteratorE
FNDA:0,_ZNK12my_container4ListINSt7__cxx1112basic_stringIcSt11char_traitsIcESaIcEEEE14const_iteratordeEv
FNDA:26,_ZNK12my_container4ListIiE14const_iteratordeEv
FNDA:0,_ZN12my_container4ListINSt7__cxx1112basic_stringIcSt11char_traitsIcESaIcEEEE14const_iteratorppEv
FNDA:26,_ZN12my_container4ListIiE14const_iteratorppEv
FNDA:0,_ZN12my_container4ListINSt7__cxx1112basic_stringIcSt11char_traitsIcESaIcEEEE14const_iteratormmEv
FNDA:0,_ZN12my_container4ListIiE14const_iteratormmEv
FNDA:0,_ZNK12my_container4ListINSt7__cxx1112basic_stringIcSt11char_traitsIcESaIcEEEE14const_iteratoreqERKS8_
FNDA:36,_ZNK12my_container4ListIiE14const_iteratoreqERKS2_
FNDA:0,_ZNK12my_container4ListINSt7__cxx1112basic_stringIcSt11char_traitsIcESaIcEEEE14const_iteratorneERKS8_
FNDA:18,_ZNK12my_container4ListIiE14const_iteratorneERKS2_
FNDA:5,_ZN12my_container4ListINSt7__cxx1112basic_stringIcSt11char_traitsIcESaIcEEEE5beginEv
FNDA:78,_ZN12my_container4ListIiE5beginEv
FNDA:50,_ZN12my_container4ListINSt7__cxx1112basic_stringIcSt11char_traitsIcESaIcEEEE3endEv
FNDA:106,_ZN12my_container4ListIiE3endEv
FNDA:0,_ZNK12my_container4ListINSt7__cxx1112basic_stringIcSt11char_traitsIcESaIcEEEE5beginEv
FNDA:0,_ZNK12my_container4ListIiE5beginEv
FNDA:0,_ZNK12my_container4ListINSt7__cxx1112basic_stringIcSt11char_traitsIcESaIcEEEE3endEv
FNDA:0,_ZNK12my_container4ListIiE3endEv
FNDA:0,_ZNK12my_container4ListINSt7__cxx1112basic_stringIcSt11char_traitsIcESaIcEEEE6cbeginEv
FNDA:10,_ZNK12my_container4ListIiE6cbeginEv
FNDA:0,_ZNK12my_container4ListINSt7__cxx1112basic_stringIcSt11char_traitsIcESaIcEEEE4cendEv
FNDA:10,_ZNK12my_container4ListIiE4cendEv
FNDA:0,_ZN12my_container4ListINSt7__cxx1112basic_stringIcSt11char_traitsIcESaIcEEEE6rbeginEv
FNDA:0,_ZN12my_container4ListIiE6rbeginEv
FNDA:0,_ZN12my_container4ListINSt7__cxx1112basic_stringIcSt11char_traitsIcESaIcEEEE4rendEv
FNDA:0,_ZN12my_container4ListIiE4rendEv
FNDA:0,_ZNK12my_container4ListINSt7__cxx1112basic_stringIcSt11char_traitsIcESaIcEEEE7crbeginEv
FNDA:0,_ZNK12my_container4ListIiE7crbeginEv
FNDA:0,_ZNK12my_container4ListINSt7__cxx1112basic_stringIcSt11char_traitsIcESaIcEEEE5crendEv
FNDA:0,_ZNK12my_container4ListIiE5crendEv
FNDA:0,_ZNK12my_container4ListINSt7__cxx1112basic_stringIcSt11char_traitsIcESaIcEEEE6rbeginEv
FNDA:0,_ZNK12my_container4ListIiE6rbeginEv
FNDA:0,_ZNK12my_container4ListINSt7__cxx1112basic_stringIcSt11char_traitsIcESaIcEEEE4rendEv
FNDA:0,_ZNK12my_container4ListIiE4rendEv
FNDA:25,_ZN12my_container4ListINSt7__cxx1112basic_stringIcSt11char_traitsIcESaIcEEEE9push_backERKS6_
FNDA:53,_ZN12my_container4ListIiE9push_backERKi
FNDA:25,_ZN12my_container4ListINSt7__cxx1112basic_stringIcSt11char_traitsIcESaIcEEEE8pop_backEv
FNDA:53,_ZN12my_container4ListIiE8pop_backEv
FNDA:1,_ZN12my_container4ListINSt7__cxx1112basic_stringIcSt11char_traitsIcESaIcEEEE10push_frontERKS6_
FNDA:34,_ZN12my_container4ListIiE10push_frontERKi
FNDA:1,_ZN12my_container4ListINSt7__cxx1112basic_stringIcSt11char_traitsIcESaIcEEEE9pop_frontEv
FNDA:35,_ZN12my_container4ListIiE9pop_frontEv
FNDA:0,_ZN12my_container4ListINSt7__cxx1112basic_stringIcSt11char_traitsIcESaIcEEEEaSERK9ContainerIS6_E
FNDA:0,_ZN12my_container4ListIiEaSERK9ContainerIiE
FNDA:0,_ZNK12my_container4ListINSt7__cxx1112basic_stringIcSt11char_traitsIcESaIcEEEEeqERK9ContainerIS6_E
FNDA:0,_ZNK12my_container4ListIiEeqERK9ContainerIiE
FNDA:0,_ZNK12my_container4ListINSt7__cxx1112basic_stringIcSt11char_traitsIcESaIcEEEEneERK9ContainerIS6_E
FNDA:0,_ZNK12my_container4ListIiEneERK9ContainerIiE
FNDA:26,_ZN12my_container4ListINSt7__cxx1112basic_stringIcSt11char_traitsIcESaIcEEEE5eraseENS7_14const_iteratorE
FNDA:88,_ZN12my_container4ListIiE5eraseENS1_14const_iteratorE
FNDA:38,_ZN12my_container4ListINSt7__cxx1112basic_stringIcSt11char_traitsIcESaIcEEEE4NodeC2ERKS6_PS8_SB_
FNDA:120,_ZN12my_container4ListIiE4NodeC2ERKiPS2_S5_
FNDA:1,_ZN12my_container4ListIiE4swapERS1_
FNDA:0,_ZN12my_container4ListINSt7__cxx1112basic_stringIcSt11char_traitsIcESaIcEEEE6resizeEmRKS6_
FNDA:0,_ZN12my_container4ListIiE6resizeEmRKi
FNDA:26,_ZN12my_container4ListINSt7__cxx1112basic_stringIcSt11char_traitsIcESaIcEEEE6insertENS7_14const_iteratorERKS6_
FNDA:87,_ZN12my_container4ListIiE6insertENS1_14const_iteratorERKi
FNDA:12,_ZN12my_container4ListINSt7__cxx1112basic_stringIcSt11char_traitsIcESaIcEEEE5clearEv
FNDA:34,_ZN12my_container4ListIiE5clearEv
FNDA:0,_ZNK12my_container4ListINSt7__cxx1112basic_stringIcSt11char_traitsIcESaIcEEEE4backEv
FNDA:0,_ZNK12my_container4ListIiE4backEv
FNDA:0,_ZN12my_container4ListINSt7__cxx1112basic_stringIcSt11char_traitsIcESaIcEEEE4backEv
FNDA:0,_ZN12my_container4ListIiE4backEv
FNDA:0,_ZNK12my_container4ListINSt7__cxx1112basic_stringIcSt11char_traitsIcESaIcEEEE5frontEv
FNDA:0,_ZNK12my_container4ListIiE5frontEv
FNDA:0,_ZN12my_container4ListINSt7__cxx1112basic_stringIcSt11char_traitsIcESaIcEEEE5frontEv
FNDA:0,_ZN12my_container4ListIiE5frontEv
FNDA:0,_ZN12my_container4ListINSt7__cxx1112basic_stringIcSt11char_traitsIcESaIcEEEED0Ev
FNDA:12,_ZN12my_container4ListINSt7__cxx1112basic_stringIcSt11char_traitsIcESaIcEEEED2Ev
FNDA:0,_ZN12my_container4ListIiED0Ev
FNDA:32,_ZN12my_container4ListIiED2Ev
FNDA:1,_ZN12my_container4ListIiEaSEOS1_
FNDA:0,_ZN12my_container4ListINSt7__cxx1112basic_stringIcSt11char_traitsIcESaIcEEEEaSERKS7_
FNDA:1,_ZN12my_container4ListIiEaSERKS1_
FNDA:1,_ZN12my_container4ListIiEC2EOS1_
FNDA:1,_ZN12my_container4ListINSt7__cxx1112basic_stringIcSt11char_traitsIcESaIcEEEE9copyNodesERKS7_
FNDA:2,_ZN12my_container4ListIiE9copyNodesERKS1_
FNDA:1,_ZN12my_container4ListINSt7__cxx1112basic_stringIcSt11char_traitsIcESaIcEEEEC2ERKS7_
FNDA:1,_ZN12my_container4ListIiEC2ERKS1_
FNDA:12,_ZN12my_container4ListINSt7__cxx1112basic_stringIcSt11char_traitsIcESaIcEEEEC2Ev
FNDA:31,_ZN12my_container4ListIiEC2Ev
FNDA:37,_ZNK12my_container4ListINSt7__cxx1112basic_stringIcSt11char_traitsIcESaIcEEEE5emptyEv
FNDA:135,_ZNK12my_container4ListIiE5emptyEv
FNDA:1,_ZNK12my_container4ListINSt7__cxx1112basic_stringIcSt11char_traitsIcESaIcEEEE4sizeEv
FNDA:8,_ZNK12my_container4ListIiE4sizeEv
FNDA:0,_ZNK12my_container4ListINSt7__cxx1112basic_stringIcSt11char_traitsIcESaIcEEEE8max_sizeEv
FNDA:0,_ZNK12my_container4ListIiE8max_sizeEv
FNDA:107,_ZN12my_container4ListINSt7__cxx1112basic_stringIcSt11char_traitsIcESaIcEEEE8iteratorC2EPNS7_4NodeE
FNDA:358,_ZN12my_container4ListIiE8iteratorC2EPNS1_4NodeE
FNDA:3,_ZNK12my_container4ListINSt7__cxx1112basic_stringIcSt11char_traitsIcESaIcEEEE8iteratordeEv
FNDA:9,_ZNK12my_container4ListIiE8iteratordeEv
FNDA:0,_ZN12my_container4ListINSt7__cxx1112basic_stringIcSt11char_traitsIcESaIcEEEE8iteratorppEv
FNDA:0,_ZN12my_container4ListIiE8iteratorppEv
FNDA:25,_ZN12my_container4ListINSt7__cxx1112basic_stringIcSt11char_traitsIcESaIcEEEE8iteratormmEv
FNDA:53,_ZN12my_container4ListIiE8iteratormmEv
FNF:99
FNH:51
DA:22,158
DA:23,158
DA:32,3
DA:33,3
DA:34,12
DA:35,9
DA:36,9
DA:38,3
DA:71,172
DA:72,9
DA:73,0
DA:87,465
DA:89,12
DA:92,0
DA:94,78
DA:111,20
DA:112,227
DA:114,26
DA:117,26
DA:119,0
DA:122,36
DA:123,18
DA:127,83
DA:128,156
DA:129,0
DA:130,0
DA:131,10
DA:132,10
DA:137,0
DA:138,0
DA:140,0
DA:141,0
DA:143,0
DA:144,0
DA:151,78
DA:154,78
DA:156,35
DA:159,36
DA:169,0
DA:170,0
DA:171,0
DA:173,0
DA:174,0
DA:175,0
DA:177,0
DA:178,0
DA:182,0
DA:183,0
DA:184,0
DA:185,0
DA:189,0
DA:190,0
DA:210,114
DA:211,114
DA:212,113
DA:213,113
DA:214,113
DA:215,113
DA:216,113
DA:217,113
DA:221,1
DA:222,1
DA:223,1
DA:224,1
DA:227,0
DA:228,0
DA:229,0
DA:230,0
DA:233,113
DA:234,113
DA:235,113
DA:237,113
DA:238,113
DA:239,113
DA:240,113
DA:241,113
DA:256,46
DA:258,124
DA:259,46
DA:262,0
DA:263,0
DA:264,0
DA:268,0
DA:269,0
DA:270,0
DA:274,0
DA:275,0
DA:276,0
DA:280,0
DA:281,0
DA:282,0
DA:286,44
DA:287,44
DA:288,44
DA:289,88
DA:292,1
DA:293,1
DA:294,1
DA:295,1
DA:297,1
DA:298,1
DA:300,1
DA:301,1
DA:302,1
DA:304,1
DA:308,1
DA:309,1
DA:310,1
DA:311,1
DA:313,1
DA:317,1
DA:318,1
DA:319,1
DA:320,1
DA:321,1
DA:324,2
DA:325,2
DA:326,2
DA:334,43
DA:335,43
DA:336,43
DA:337,43
DA:338,43
LF:123
LH:82
end_of_record
TN:
SF:/mnt/c/Users/senya/CLionProjects/fund_alg_4sem/lab1_4/include/stack.h
FN:107,109,_ZNK12my_container5StackINSt7__cxx1112basic_stringIcSt11char_traitsIcESaIcEEEE4sizeEv
FN:107,109,_ZNK12my_container5StackIiE4sizeEv
FN:112,114,_ZNK12my_container5StackIiE5emptyEv
FN:117,119,_ZN12my_container5StackINSt7__cxx1112basic_stringIcSt11char_traitsIcESaIcEEEE3topEv
FN:117,119,_ZN12my_container5StackIiE3topEv
FN:122,127,_ZN12my_container5StackIiEaSEOS1_
FN:130,135,_ZN12my_container5StackIiEaSERKS1_
FN:138,138,_ZN12my_container5StackINSt7__cxx1112basic_stringIcSt11char_traitsIcESaIcEEEEC2ERKSt16initializer_listIS6_E
FN:138,138,_ZN12my_container5StackIiEC2ERKSt16initializer_listIiE
FN:141,141,_ZN12my_container5StackIiEC2EOS1_
FN:144,144,_ZN12my_container5StackINSt7__cxx1112basic_stringIcSt11char_traitsIcESaIcEEEEC2ERKS7_
FN:144,144,_ZN12my_container5StackIiEC2ERKS1_
FN:147,147,_ZN12my_container5StackIiEC2Ev
FN:20,20,_ZN12my_container5StackINSt7__cxx1112basic_stringIcSt11char_traitsIcESaIcEEEED2Ev
FN:20,20,_ZN12my_container5StackIiED2Ev
FN:47,49,_ZNK12my_container5StackIiEneERKS1_
FN:57,59,_ZNK12my_container5StackIiEgeERKS1_
FN:62,64,_ZNK12my_container5StackIiEltERKS1_
FN:77,79,_ZNK12my_container5StackIiEeqERKS1_
FN:82,84,_ZNK12my_container5StackIiEssERKS1_
FN:87,89,_ZN12my_container5StackIiE4swapERS1_
FN:92,94,_ZN12my_container5StackINSt7__cxx1112basic_stringIcSt11char_traitsIcESaIcEEEE3popEv
FN:92,94,_ZN12my_container5StackIiE3popEv
FN:97,99,_ZN12my_container5StackINSt7__cxx1112basic_stringIcSt11char_traitsIcESaIcEEEE4pushEOS6_
FN:97,99,_ZN12my_container5StackIiE4pushEOi
FNDA:1,_ZNK12my_container5StackINSt7__cxx1112basic_stringIcSt11char_traitsIcESaIcEEEE4sizeEv
FNDA:8,_ZNK12my_container5StackIiE4sizeEv
FNDA:48,_ZNK12my_container5StackIiE5emptyEv
FNDA:3,_ZN12my_container5StackINSt7__cxx1112basic_stringIcSt11char_traitsIcESaIcEEEE3topEv
FNDA:9,_ZN12my_container5StackIiE3topEv
FNDA:1,_ZN12my_container5StackIiEaSEOS1_
FNDA:1,_ZN12my_container5StackIiEaSERKS1_
FNDA:11,_ZN12my_container5StackINSt7__cxx1112basic_stringIcSt11char_traitsIcESaIcEEEEC2ERKSt16initializer_listIS6_E
FNDA:17,_ZN12my_container5StackIiEC2ERKSt16initializer_listIiE
FNDA:1,_ZN12my_container5StackIiEC2EOS1_
FNDA:1,_ZN12my_container5StackINSt7__cxx1112basic_stringIcSt11char_traitsIcESaIcEEEEC2ERKS7_
FNDA:1,_ZN12my_container5StackIiEC2ERKS1_
FNDA:13,_ZN12my_container5StackIiEC2Ev
FNDA:12,_ZN12my_container5StackINSt7__cxx1112basic_stringIcSt11char_traitsIcESaIcEEEED2Ev
FNDA:32,_ZN12my_container5StackIiED2Ev
FNDA:1,_ZNK12my_container5StackIiEneERKS1_
FNDA:1,_ZNK12my_container5StackIiEgeERKS1_
FNDA:1,_ZNK12my_container5StackIiEltERKS1_
FNDA:1,_ZNK12my_container5StackIiEeqERKS1_
FNDA:5,_ZNK12my_container5StackIiEssERKS1_
FNDA:1,_ZN12my_container5StackIiE4swapERS1_
FNDA:1,_ZN12my_container5StackINSt7__cxx1112basic_stringIcSt11char_traitsIcESaIcEEEE3popEv
FNDA:35,_ZN12my_container5StackIiE3popEv
FNDA:1,_ZN12my_container5StackINSt7__cxx1112basic_stringIcSt11char_traitsIcESaIcEEEE4pushEOS6_
FNDA:34,_ZN12my_container5StackIiE4pushEOi
FNF:25
FNH:25
DA:20,44
DA:47,1
DA:48,1
DA:57,1
DA:58,1
DA:62,1
DA:63,1
DA:77,1
DA:78,1
DA:82,5
DA:83,5
DA:87,1
DA:88,1
DA:89,1
DA:92,36
DA:93,36
DA:94,35
DA:97,35
DA:98,35
DA:99,35
DA:107,9
DA:108,9
DA:112,48
DA:113,48
DA:117,12
DA:118,12
DA:122,1
DA:123,1
DA:124,1
DA:126,1
DA:130,1
DA:131,1
DA:132,1
DA:134,1
DA:138,28
DA:141,1
DA:144,2
DA:147,13
LF:38
LH:38
end_of_record
TN:
SF:/mnt/c/Users/senya/CLionProjects/fund_alg_4sem/lab1_4/test/test_stack.cpp
FN:13,18,_ZN12my_container9StackTest5SetUpEv
FN:21,21,_ZN12my_container33StackTest_DefaultConstructor_Test8TestBodyEv
FN:21,21,_ZN12my_container33StackTest_DefaultConstructor_TestC2Ev
FN:21,21,_ZN12my_container33StackTest_DefaultConstructor_TestD0Ev
FN:21,21,_ZN12my_container33StackTest_DefaultConstructor_TestD2Ev
FN:26,26,_ZN12my_container41StackTest_InitializerListConstructor_Test8TestBodyEv
FN:26,26,_ZN12my_container41StackTest_InitializerListConstructor_TestC2Ev
FN:26,26,_ZN12my_container41StackTest_InitializerListConstructor_TestD0Ev
FN:26,26,_ZN12my_container41StackTest_InitializerListConstructor_TestD2Ev
FN:32,32,_ZN12my_container30StackTest_CopyConstructor_Test8TestBodyEv
FN:32,32,_ZN12my_container30StackTest_CopyConstructor_TestC2Ev
FN:32,32,_ZN12my_container30StackTest_CopyConstructor_TestD0Ev
FN:32,32,_ZN12my_container30StackTest_CopyConstructor_TestD2Ev
FN:38,38,_ZN12my_container30StackTest_MoveConstructor_Test8TestBodyEv
FN:38,38,_ZN12my_container30StackTest_MoveConstructor_TestC2Ev
FN:38,38,_ZN12my_container30StackTest_MoveConstructor_TestD0Ev
FN:38,38,_ZN12my_container30StackTest_MoveConstructor_TestD2Ev
FN:44,48,_ZN12my_container29StackTest_CopyAssignment_Test8TestBodyEv
FN:44,48,_ZN12my_container29StackTest_CopyAssignment_TestC2Ev
FN:44,48,_ZN12my_container29StackTest_CopyAssignment_TestD0Ev
FN:44,48,_ZN12my_container29StackTest_CopyAssignment_TestD2Ev
FN:50,50,_ZN12my_container29StackTest_MoveAssignment_Test8TestBodyEv
FN:50,50,_ZN12my_container29StackTest_MoveAssignment_TestC2Ev
FN:50,50,_ZN12my_container29StackTest_MoveAssignment_TestD0Ev
FN:50,50,_ZN12my_container29StackTest_MoveAssignment_TestD2Ev
FN:57,57,_ZN12my_container25StackTest_TopMethods_Test8TestBodyEv
FN:57,57,_ZN12my_container25StackTest_TopMethods_TestC2Ev
FN:57,57,_ZN12my_container25StackTest_TopMethods_TestD0Ev
FN:57,57,_ZN12my_container25StackTest_TopMethods_TestD2Ev
FN:63,63,_ZN12my_container32StackTest_PushPopOperations_Test8TestBodyEv
FN:63,63,_ZN12my_container32StackTest_PushPopOperations_TestC2Ev
FN:63,63,_ZN12my_container32StackTest_PushPopOperations_TestD0Ev
FN:63,63,_ZN12my_container32StackTest_PushPopOperations_TestD2Ev
FN:73,73,_ZN12my_container25StackTest_SwapMethod_Test8TestBodyEv
FN:73,73,_ZN12my_container25StackTest_SwapMethod_TestC2Ev
FN:73,73,_ZN12my_container25StackTest_SwapMethod_TestD0Ev
FN:73,73,_ZN12my_container25StackTest_SwapMethod_TestD2Ev
FN:83,91,_ZN12my_container26StackTest_Comparisons_Test8TestBodyEv
FN:83,91,_ZN12my_container26StackTest_Comparisons_TestC2Ev
FN:83,91,_ZN12my_container26StackTest_Comparisons_TestD0Ev
FN:83,91,_ZN12my_container26StackTest_Comparisons_TestD2Ev
FN:93,102,_ZN12my_container26StackTest_StringStack_Test8TestBodyEv
FN:93,102,_ZN12my_container26StackTest_StringStack_TestC2Ev
FN:93,102,_ZN12my_container26StackTest_StringStack_TestD0Ev
FN:93,102,_ZN12my_container26StackTest_StringStack_TestD2Ev
FNDA:11,_ZN12my_container9StackTest5SetUpEv
FNDA:1,_ZN12my_container33StackTest_DefaultConstructor_Test8TestBodyEv
FNDA:1,_ZN12my_container33StackTest_DefaultConstructor_TestC2Ev
FNDA:1,_ZN12my_container33StackTest_DefaultConstructor_TestD0Ev
FNDA:1,_ZN12my_container33StackTest_DefaultConstructor_TestD2Ev
FNDA:1,_ZN12my_container41StackTest_InitializerListConstructor_Test8TestBodyEv
FNDA:1,_ZN12my_container41StackTest_InitializerListConstructor_TestC2Ev
FNDA:1,_ZN12my_container41StackTest_InitializerListConstructor_TestD0Ev
FNDA:1,_ZN12my_container41StackTest_InitializerListConstructor_TestD2Ev
FNDA:1,_ZN12my_container30StackTest_CopyConstructor_Test8TestBodyEv
FNDA:1,_ZN12my_container30StackTest_CopyConstructor_TestC2Ev
FNDA:1,_ZN12my_container30StackTest_CopyConstructor_TestD0Ev
FNDA:1,_ZN12my_container30StackTest_CopyConstructor_TestD2Ev
FNDA:1,_ZN12my_container30StackTest_MoveConstructor_Test8TestBodyEv
FNDA:1,_ZN12my_container30StackTest_MoveConstructor_TestC2Ev
FNDA:1,_ZN12my_container30StackTest_MoveConstructor_TestD0Ev
FNDA:1,_ZN12my_container30StackTest_MoveConstructor_TestD2Ev
FNDA:1,_ZN12my_container29StackTest_CopyAssignment_Test8TestBodyEv
FNDA:1,_ZN12my_container29StackTest_CopyAssignment_TestC2Ev
FNDA:1,_ZN12my_container29StackTest_CopyAssignment_TestD0Ev
FNDA:1,_ZN12my_container29StackTest_CopyAssignment_TestD2Ev
FNDA:1,_ZN12my_container29StackTest_MoveAssignment_Test8TestBodyEv
FNDA:1,_ZN12my_container29StackTest_MoveAssignment_TestC2Ev
FNDA:1,_ZN12my_container29StackTest_MoveAssignment_TestD0Ev
FNDA:1,_ZN12my_container29StackTest_MoveAssignment_TestD2Ev
FNDA:1,_ZN12my_container25StackTest_TopMethods_Test8TestBodyEv
FNDA:1,_ZN12my_container25StackTest_TopMethods_TestC2Ev
FNDA:1,_ZN12my_container25StackTest_TopMethods_TestD0Ev
FNDA:1,_ZN12my_container25StackTest_TopMethods_TestD2Ev
FNDA:1,_ZN12my_container32StackTest_PushPopOperations_Test8TestBodyEv
FNDA:1,_ZN12my_container32StackTest_PushPopOperations_TestC2Ev
FNDA:1,_ZN12my_container32StackTest_PushPopOperations_TestD0Ev
FNDA:1,_ZN12my_container32StackTest_PushPopOperations_TestD2Ev
FNDA:1,_ZN12my_container25StackTest_SwapMethod_Test8TestBodyEv
FNDA:1,_ZN12my_container25StackTest_SwapMethod_TestC2Ev
FNDA:1,_ZN12my_container25StackTest_SwapMethod_TestD0Ev
FNDA:1,_ZN12my_container25StackTest_SwapMethod_TestD2Ev
FNDA:1,_ZN12my_container26StackTest_Comparisons_Test8TestBodyEv
FNDA:1,_ZN12my_container26StackTest_Comparisons_TestC2Ev
FNDA:1,_ZN12my_container26StackTest_Comparisons_TestD0Ev
FNDA:1,_ZN12my_container26StackTest_Comparisons_TestD2Ev
FNDA:1,_ZN12my_container26StackTest_StringStack_Test8TestBodyEv
FNDA:1,_ZN12my_container26StackTest_StringStack_TestC2Ev
FNDA:1,_ZN12my_container26StackTest_StringStack_TestD0Ev
FNDA:1,_ZN12my_container26StackTest_StringStack_TestD2Ev
FNF:45
FNH:45
DA:13,11
DA:14,44
DA:15,11
DA:16,11
DA:17,11
DA:18,11
DA:21,4
DA:22,1
DA:23,1
DA:24,1
DA:26,4
DA:27,1
DA:28,1
DA:29,1
DA:30,1
DA:32,4
DA:33,1
DA:34,1
DA:35,1
DA:36,1
DA:38,4
DA:39,1
DA:40,1
DA:41,1
DA:42,1
DA:44,4
DA:45,1
DA:46,1
DA:47,1
DA:48,1
DA:50,4
DA:51,1
DA:52,1
DA:53,1
DA:54,1
DA:55,1
DA:57,4
DA:58,1
DA:59,1
DA:60,1
DA:61,1
DA:63,4
DA:64,1
DA:65,1
DA:66,1
DA:68,1
DA:69,1
DA:70,1
DA:71,1
DA:73,4
DA:74,1
DA:75,1
DA:77,1
DA:78,1
DA:79,1
DA:80,1
DA:81,1
DA:83,4
DA:84,1
DA:86,1
DA:87,1
DA:88,1
DA:89,1
DA:90,1
DA:91,1
DA:93,4
DA:94,2
DA:95,1
DA:96,1
DA:98,2
DA:99,1
DA:100,1
DA:101,1
DA:102,1
LF:74
LH:74
end_of_record
TN:
SF:/usr/include/c++/13/bits/alloc_traits.h
FNF:0
FNH:0
DA:482,301
DA:517,301
DA:576,524
DA:588,208
LF:4
LH:4
end_of_record
TN:
SF:/usr/include/c++/13/bits/allocator.h
FNF:0
FNH:0
DA:163,192
DA:168,983
DA:184,400
DA:191,301
DA:193,0
DA:194,0
DA:195,0
DA:198,301
DA:205,301
DA:207,0
DA:208,0
DA:210,301
LF:12
LH:7
end_of_record
TN:
SF:/usr/include/c++/13/bits/basic_string.h
FN:1071,1072,_ZNKSt7__cxx1112basic_stringIcSt11char_traitsIcESaIcEE4sizeEv
FN:1078,1079,_ZNKSt7__cxx1112basic_stringIcSt11char_traitsIcESaIcEE6lengthEv
FN:1084,1085,_ZNKSt7__cxx1112basic_stringIcSt11char_traitsIcESaIcEE8max_sizeEv
FN:1169,1173,_ZNKSt7__cxx1112basic_stringIcSt11char_traitsIcESaIcEE8capacityEv
FN:124,137,_ZNSt7__cxx1112basic_stringIcSt11char_traitsIcESaIcEE11_S_allocateERS3_m
FN:1366,1367,_ZNSt7__cxx1112basic_stringIcSt11char_traitsIcESaIcEEpLERKS4_
FN:1376,1377,_ZNSt7__cxx1112basic_stringIcSt11char_traitsIcESaIcEEpLEPKc
FN:1424,1425,_ZNSt7__cxx1112basic_stringIcSt11char_traitsIcESaIcEE6appendERKS4_
FN:1455,1460,_ZNSt7__cxx1112basic_stringIcSt11char_traitsIcESaIcEE6appendEPKcm
FN:1469,1475,_ZNSt7__cxx1112basic_stringIcSt11char_traitsIcESaIcEE6appendEPKc
FN:1681,1686,_ZNSt7__cxx1112basic_stringIcSt11char_traitsIcESaIcEE6assignEPKc
FN:188,189,_ZNSt7__cxx1112basic_stringIcSt11char_traitsIcESaIcEE12_Alloc_hiderC1EPcRKS3_
FN:192,193,_ZNSt7__cxx1112basic_stringIcSt11char_traitsIcESaIcEE12_Alloc_hiderC1EPcOS3_
FN:2069,2077,_ZNSt7__cxx1112basic_stringIcSt11char_traitsIcESaIcEE5eraseEmm
FN:212,213,_ZNSt7__cxx1112basic_stringIcSt11char_traitsIcESaIcEE7_M_dataEPc
FN:217,218,_ZNSt7__cxx1112basic_stringIcSt11char_traitsIcESaIcEE9_M_lengthEm
FN:2204,2210,_ZNSt7__cxx1112basic_stringIcSt11char_traitsIcESaIcEE7replaceEmmPKcm
FN:222,223,_ZNKSt7__cxx1112basic_stringIcSt11char_traitsIcESaIcEE7_M_dataEv
FN:2230,2234,_ZNSt7__cxx1112basic_stringIcSt11char_traitsIcESaIcEE7replaceEmmPKc
FN:227,234,_ZNSt7__cxx1112basic_stringIcSt11char_traitsIcESaIcEE13_M_local_dataEv
FN:238,245,_ZNKSt7__cxx1112basic_stringIcSt11char_traitsIcESaIcEE13_M_local_dataEv
FN:249,250,_ZNSt7__cxx1112basic_stringIcSt11char_traitsIcESaIcEE11_M_capacityEm
FN:254,258,_ZNSt7__cxx1112basic_stringIcSt11char_traitsIcESaIcEE13_M_set_lengthEm
FN:2595,2596,_ZNKSt7__cxx1112basic_stringIcSt11char_traitsIcESaIcEE5c_strEv
FN:2608,2609,_ZNKSt7__cxx1112basic_stringIcSt11char_traitsIcESaIcEE4dataEv
FN:262,271,_ZNKSt7__cxx1112basic_stringIcSt11char_traitsIcESaIcEE11_M_is_localEv
FN:2695,2699,_ZNKSt7__cxx1112basic_stringIcSt11char_traitsIcESaIcEE4findEPKcm
FN:280,284,_ZNSt7__cxx1112basic_stringIcSt11char_traitsIcESaIcEE10_M_disposeEv
FN:288,289,_ZNSt7__cxx1112basic_stringIcSt11char_traitsIcESaIcEE10_M_destroyEm
FN:336,337,_ZNSt7__cxx1112basic_stringIcSt11char_traitsIcESaIcEE16_M_get_allocatorEv
FN:3383,3394,_ZNKSt7__cxx1112basic_stringIcSt11char_traitsIcESaIcEE7compareEmmPKc
FN:341,342,_ZNKSt7__cxx1112basic_stringIcSt11char_traitsIcESaIcEE16_M_get_allocatorEv
FN:3710,3716,_ZSteqIcSt11char_traitsIcESaIcEEbRKNSt7__cxx1112basic_stringIT_T0_T1_EESA_
FN:3727,3732,_ZSteqIcSt11char_traitsIcESaIcEEbRKNSt7__cxx1112basic_stringIT_T0_T1_EEPKS5_
FN:386,393,_ZNKSt7__cxx1112basic_stringIcSt11char_traitsIcESaIcEE8_M_checkEmPKc
FN:397,401,_ZNKSt7__cxx1112basic_stringIcSt11char_traitsIcESaIcEE15_M_check_lengthEmmPKc
FN:407,411,_ZNKSt7__cxx1112basic_stringIcSt11char_traitsIcESaIcEE8_M_limitEmm
FN:415,419,_ZNKSt7__cxx1112basic_stringIcSt11char_traitsIcESaIcEE11_M_disjunctEPKc
FN:425,431,_ZNSt7__cxx1112basic_stringIcSt11char_traitsIcESaIcEE7_S_copyEPcPKcm
FN:435,441,_ZNSt7__cxx1112basic_stringIcSt11char_traitsIcESaIcEE7_S_moveEPcPKcm
FN:477,478,_ZNSt7__cxx1112basic_stringIcSt11char_traitsIcESaIcEE13_S_copy_charsEPcS5_S5_
FN:482,484,_ZNSt7__cxx1112basic_stringIcSt11char_traitsIcESaIcEE13_S_copy_charsEPcPKcS7_
FN:488,498,_ZNSt7__cxx1112basic_stringIcSt11char_traitsIcESaIcEE10_S_compareEmm
FN:522,528,_ZNSt7__cxx1112basic_stringIcSt11char_traitsIcESaIcEEC1Ev
FN:547,553,_ZNSt7__cxx1112basic_stringIcSt11char_traitsIcESaIcEEC2ERKS4_
FN:641,650,_ZNSt7__cxx1112basic_stringIcSt11char_traitsIcESaIcEEC1IS3_EEPKcRKS3_
FN:677,698,_ZNSt7__cxx1112basic_stringIcSt11char_traitsIcESaIcEEC2EOS4_
FN:803,804,_ZNSt7__cxx1112basic_stringIcSt11char_traitsIcESaIcEED2Ev
FN:823,824,_ZNSt7__cxx1112basic_stringIcSt11char_traitsIcESaIcEEaSEPKc
FNDA:2900,_ZNKSt7__cxx1112basic_stringIcSt11char_traitsIcESaIcEE4sizeEv
FNDA:1968,_ZNKSt7__cxx1112basic_stringIcSt11char_traitsIcESaIcEE6lengthEv
FNDA:524,_ZNKSt7__cxx1112basic_stringIcSt11char_traitsIcESaIcEE8max_sizeEv
FNDA:2428,_ZNKSt7__cxx1112basic_stringIcSt11char_traitsIcESaIcEE8capacityEv
FNDA:301,_ZNSt7__cxx1112basic_stringIcSt11char_traitsIcESaIcEE11_S_allocateERS3_m
FNDA:0,_ZNSt7__cxx1112basic_stringIcSt11char_traitsIcESaIcEEpLERKS4_
FNDA:0,_ZNSt7__cxx1112basic_stringIcSt11char_traitsIcESaIcEEpLEPKc
FNDA:22,_ZNSt7__cxx1112basic_stringIcSt11char_traitsIcESaIcEE6appendERKS4_
FNDA:66,_ZNSt7__cxx1112basic_stringIcSt11char_traitsIcESaIcEE6appendEPKcm
FNDA:42,_ZNSt7__cxx1112basic_stringIcSt11char_traitsIcESaIcEE6appendEPKc
FNDA:1,_ZNSt7__cxx1112basic_stringIcSt11char_traitsIcESaIcEE6assignEPKc
FNDA:224,_ZNSt7__cxx1112basic_stringIcSt11char_traitsIcESaIcEE12_Alloc_hiderC1EPcRKS3_
FNDA:551,_ZNSt7__cxx1112basic_stringIcSt11char_traitsIcESaIcEE12_Alloc_hiderC1EPcOS3_
FNDA:0,_ZNSt7__cxx1112basic_stringIcSt11char_traitsIcESaIcEE5eraseEmm
FNDA:596,_ZNSt7__cxx1112basic_stringIcSt11char_traitsIcESaIcEE7_M_dataEPc
FNDA:3238,_ZNSt7__cxx1112basic_stringIcSt11char_traitsIcESaIcEE9_M_lengthEm
FNDA:0,_ZNSt7__cxx1112basic_stringIcSt11char_traitsIcESaIcEE7replaceEmmPKcm
FNDA:12273,_ZNKSt7__cxx1112basic_stringIcSt11char_traitsIcESaIcEE7_M_dataEv
FNDA:0,_ZNSt7__cxx1112basic_stringIcSt11char_traitsIcESaIcEE7replaceEmmPKc
FNDA:915,_ZNSt7__cxx1112basic_stringIcSt11char_traitsIcESaIcEE13_M_local_dataEv
FNDA:3756,_ZNKSt7__cxx1112basic_stringIcSt11char_traitsIcESaIcEE13_M_local_dataEv
FNDA:398,_ZNSt7__cxx1112basic_stringIcSt11char_traitsIcESaIcEE11_M_capacityEm
FNDA:2982,_ZNSt7__cxx1112basic_stringIcSt11char_traitsIcESaIcEE13_M_set_lengthEm
FNDA:1599,_ZNKSt7__cxx1112basic_stringIcSt11char_traitsIcESaIcEE5c_strEv
FNDA:3,_ZNKSt7__cxx1112basic_stringIcSt11char_traitsIcESaIcEE4dataEv
FNDA:3756,_ZNKSt7__cxx1112basic_stringIcSt11char_traitsIcESaIcEE11_M_is_localEv
FNDA:0,_ZNKSt7__cxx1112basic_stringIcSt11char_traitsIcESaIcEE4findEPKcm
FNDA:1072,_ZNSt7__cxx1112basic_stringIcSt11char_traitsIcESaIcEE10_M_disposeEv
FNDA:301,_ZNSt7__cxx1112basic_stringIcSt11char_traitsIcESaIcEE10_M_destroyEm
FNDA:858,_ZNSt7__cxx1112basic_stringIcSt11char_traitsIcESaIcEE16_M_get_allocatorEv
FNDA:0,_ZNKSt7__cxx1112basic_stringIcSt11char_traitsIcESaIcEE7compareEmmPKc
FNDA:754,_ZNKSt7__cxx1112basic_stringIcSt11char_traitsIcESaIcEE16_M_get_allocatorEv
FNDA:0,_ZSteqIcSt11char_traitsIcESaIcEEbRKNSt7__cxx1112basic_stringIT_T0_T1_EESA_
FNDA:9,_ZSteqIcSt11char_traitsIcESaIcEEbRKNSt7__cxx1112basic_stringIT_T0_T1_EEPKS5_
FNDA:24,_ZNKSt7__cxx1112basic_stringIcSt11char_traitsIcESaIcEE8_M_checkEmPKc
FNDA:167,_ZNKSt7__cxx1112basic_stringIcSt11char_traitsIcESaIcEE15_M_check_lengthEmmPKc
FNDA:12,_ZNKSt7__cxx1112basic_stringIcSt11char_traitsIcESaIcEE8_M_limitEmm
FNDA:59,_ZNKSt7__cxx1112basic_stringIcSt11char_traitsIcESaIcEE11_M_disjunctEPKc
FNDA:839,_ZNSt7__cxx1112basic_stringIcSt11char_traitsIcESaIcEE7_S_copyEPcPKcm
FNDA:0,_ZNSt7__cxx1112basic_stringIcSt11char_traitsIcESaIcEE7_S_moveEPcPKcm
FNDA:208,_ZNSt7__cxx1112basic_stringIcSt11char_traitsIcESaIcEE13_S_copy_charsEPcS5_S5_
FNDA:214,_ZNSt7__cxx1112basic_stringIcSt11char_traitsIcESaIcEE13_S_copy_charsEPcPKcS7_
FNDA:0,_ZNSt7__cxx1112basic_stringIcSt11char_traitsIcESaIcEE10_S_compareEmm
FNDA:191,_ZNSt7__cxx1112basic_stringIcSt11char_traitsIcESaIcEEC1Ev
FNDA:208,_ZNSt7__cxx1112basic_stringIcSt11char_traitsIcESaIcEEC2ERKS4_
FNDA:180,_ZNSt7__cxx1112basic_stringIcSt11char_traitsIcESaIcEEC1IS3_EEPKcRKS3_
FNDA:140,_ZNSt7__cxx1112basic_stringIcSt11char_traitsIcESaIcEEC2EOS4_
FNDA:889,_ZNSt7__cxx1112basic_stringIcSt11char_traitsIcESaIcEED2Ev
FNDA:1,_ZNSt7__cxx1112basic_stringIcSt11char_traitsIcESaIcEEaSEPKc
FNF:49
FNH:39
DA:124,301
DA:126,301
DA:136,301
DA:188,224
DA:189,224
DA:192,551
DA:193,551
DA:212,596
DA:213,596
DA:217,3238
DA:218,3238
DA:222,12273
DA:223,12273
DA:227,915
DA:230,915
DA:238,3756
DA:241,3756
DA:249,398
DA:250,398
DA:254,2982
DA:256,2982
DA:257,2982
DA:258,2982
DA:262,3756
DA:264,3756
DA:266,1422
DA:267,0
DA:268,1422
DA:270,2334
DA:280,1072
DA:282,1072
DA:283,301
DA:284,1072
DA:288,301
DA:289,301
DA:336,858
DA:337,858
DA:341,754
DA:342,754
DA:351,720
DA:352,0
DA:353,0
DA:355,720
DA:365,140
DA:386,24
DA:388,24
DA:389,0
DA:392,24
DA:397,167
DA:399,167
DA:400,0
DA:401,167
DA:407,12
DA:409,12
DA:410,12
DA:415,59
DA:417,59
DA:418,59
DA:425,839
DA:427,839
DA:428,210
DA:430,629
DA:431,839
DA:435,0
DA:437,0
DA:438,0
DA:440,0
DA:441,0
DA:477,208
DA:478,208
DA:482,214
DA:484,214
DA:488,0
DA:490,0
DA:492,0
DA:493,0
DA:494,0
DA:495,0
DA:497,0
DA:522,191
DA:524,573
DA:527,191
DA:528,191
DA:547,208
DA:548,208
DA:549,208
DA:551,208
DA:553,208
DA:641,180
DA:642,180
DA:645,180
DA:646,0
DA:648,180
DA:649,180
DA:650,180
DA:677,140
DA:678,140
DA:680,140
DA:683,101
DA:684,101
DA:688,39
DA:689,39
DA:695,140
DA:696,140
DA:697,140
DA:698,140
DA:803,889
DA:804,889
DA:823,1
DA:824,1
DA:1071,2900
DA:1072,2900
DA:1078,1968
DA:1079,1968
DA:1084,524
DA:1085,1048
DA:1169,2428
DA:1171,2428
DA:1172,2428
DA:1366,0
DA:1367,0
DA:1376,0
DA:1377,0
DA:1424,22
DA:1425,22
DA:1455,66
DA:1458,66
DA:1459,66
DA:1469,42
DA:1472,42
DA:1473,42
DA:1474,42
DA:1681,1
DA:1684,1
DA:1685,1
DA:2069,0
DA:2071,0
DA:2072,0
DA:2073,0
DA:2074,0
DA:2075,0
DA:2076,0
DA:2204,0
DA:2208,0
DA:2209,0
DA:2230,0
DA:2233,0
DA:2595,1599
DA:2596,1599
DA:2608,3
DA:2609,3
DA:2695,0
DA:2698,0
DA:3383,0
DA:3386,0
DA:3387,0
DA:3388,0
DA:3389,0
DA:3390,0
DA:3391,0
DA:3392,0
DA:3393,0
DA:3710,0
DA:3714,0
DA:3715,0
DA:3727,9
DA:3730,9
DA:3731,9
LF:168
LH:120
end_of_record
TN:
SF:/usr/include/c++/13/bits/basic_string.tcc
FN:138,160,_ZNSt7__cxx1112basic_stringIcSt11char_traitsIcESaIcEE9_M_createERmm
FN:221,252,_ZNSt7__cxx1112basic_stringIcSt11char_traitsIcESaIcEE12_M_constructIPKcEEvT_S8_St20forward_iterator_tag
FN:221,252,_ZNSt7__cxx1112basic_stringIcSt11char_traitsIcESaIcEE12_M_constructIPcEEvT_S7_St20forward_iterator_tag
FN:239,239,_ZZNSt7__cxx1112basic_stringIcSt11char_traitsIcESaIcEE12_M_constructIPKcEEvT_S8_St20forward_iterator_tagEN6_GuardC2EPS4_
FN:239,239,_ZZNSt7__cxx1112basic_stringIcSt11char_traitsIcESaIcEE12_M_constructIPcEEvT_S7_St20forward_iterator_tagEN6_GuardC2EPS4_
FN:242,242,_ZZNSt7__cxx1112basic_stringIcSt11char_traitsIcESaIcEE12_M_constructIPKcEEvT_S8_St20forward_iterator_tagEN6_GuardD2Ev
FN:242,242,_ZZNSt7__cxx1112basic_stringIcSt11char_traitsIcESaIcEE12_M_constructIPcEEvT_S7_St20forward_iterator_tagEN6_GuardD2Ev
FN:325,345,_ZNSt7__cxx1112basic_stringIcSt11char_traitsIcESaIcEE9_M_mutateEmmPKcm
FN:350,359,_ZNSt7__cxx1112basic_stringIcSt11char_traitsIcESaIcEE8_M_eraseEmm
FN:413,428,_ZNSt7__cxx1112basic_stringIcSt11char_traitsIcESaIcEE9_M_appendEPKcm
FN:511,552,_ZNSt7__cxx1112basic_stringIcSt11char_traitsIcESaIcEE10_M_replaceEmmPKcm
FN:618,650,_ZNKSt7__cxx1112basic_stringIcSt11char_traitsIcESaIcEE4findEPKcmm
FNDA:301,_ZNSt7__cxx1112basic_stringIcSt11char_traitsIcESaIcEE9_M_createERmm
FNDA:192,_ZNSt7__cxx1112basic_stringIcSt11char_traitsIcESaIcEE12_M_constructIPKcEEvT_S8_St20forward_iterator_tag
FNDA:208,_ZNSt7__cxx1112basic_stringIcSt11char_traitsIcESaIcEE12_M_constructIPcEEvT_S7_St20forward_iterator_tag
FNDA:192,_ZZNSt7__cxx1112basic_stringIcSt11char_traitsIcESaIcEE12_M_constructIPKcEEvT_S8_St20forward_iterator_tagEN6_GuardC2EPS4_
FNDA:208,_ZZNSt7__cxx1112basic_stringIcSt11char_traitsIcESaIcEE12_M_constructIPcEEvT_S7_St20forward_iterator_tagEN6_GuardC2EPS4_
FNDA:192,_ZZNSt7__cxx1112basic_stringIcSt11char_traitsIcESaIcEE12_M_constructIPKcEEvT_S8_St20forward_iterator_tagEN6_GuardD2Ev
FNDA:208,_ZZNSt7__cxx1112basic_stringIcSt11char_traitsIcESaIcEE12_M_constructIPcEEvT_S7_St20forward_iterator_tagEN6_GuardD2Ev
FNDA:33,_ZNSt7__cxx1112basic_stringIcSt11char_traitsIcESaIcEE9_M_mutateEmmPKcm
FNDA:0,_ZNSt7__cxx1112basic_stringIcSt11char_traitsIcESaIcEE8_M_eraseEmm
FNDA:108,_ZNSt7__cxx1112basic_stringIcSt11char_traitsIcESaIcEE9_M_appendEPKcm
FNDA:59,_ZNSt7__cxx1112basic_stringIcSt11char_traitsIcESaIcEE10_M_replaceEmmPKcm
FNDA:0,_ZNKSt7__cxx1112basic_stringIcSt11char_traitsIcESaIcEE4findEPKcmm
FNF:12
FNH:10
DA:138,301
DA:143,301
DA:144,0
DA:149,301
DA:151,56
DA:153,56
DA:154,0
DA:159,301
DA:221,400
DA:225,400
DA:227,400
DA:229,112
DA:230,112
DA:239,400
DA:242,400
DA:245,400
DA:247,400
DA:249,400
DA:251,400
DA:252,400
DA:325,33
DA:329,33
DA:331,33
DA:332,33
DA:334,33
DA:335,33
DA:336,33
DA:337,33
DA:338,33
DA:339,0
DA:340,0
DA:342,33
DA:343,33
DA:344,33
DA:345,33
DA:350,0
DA:353,0
DA:355,0
DA:356,0
DA:358,0
DA:359,0
DA:413,108
DA:416,108
DA:418,108
DA:420,75
DA:421,75
DA:424,33
DA:426,108
DA:427,108
DA:511,59
DA:515,59
DA:517,59
DA:518,59
DA:520,59
DA:522,59
DA:524,59
DA:526,59
DA:528,0
DA:529,0
DA:530,0
DA:531,0
DA:532,0
DA:533,0
DA:537,59
DA:539,59
DA:540,0
DA:541,59
DA:542,59
DA:545,0
DA:548,0
DA:550,59
DA:551,59
DA:618,0
DA:623,0
DA:625,0
DA:626,0
DA:627,0
DA:628,0
DA:630,0
DA:631,0
DA:632,0
DA:633,0
DA:634,0
DA:636,0
DA:639,0
DA:640,0
DA:641,0
DA:645,0
DA:646,0
DA:647,0
DA:649,0
LF:91
LH:53
end_of_record
TN:
SF:/usr/include/c++/13/bits/char_traits.h
FN:136,137,_ZN9__gnu_cxx11char_traitsIcE2eqERKcS3_
FN:199,206,_ZN9__gnu_cxx11char_traitsIcE6lengthEPKc
FN:210,217,_ZN9__gnu_cxx11char_traitsIcE4findEPKcmRS2_
FN:222,248,_ZN9__gnu_cxx11char_traitsIcE4moveEPcPKcm
FN:253,268,_ZN9__gnu_cxx11char_traitsIcE4copyEPcPKcm
FN:351,359,_ZNSt11char_traitsIcE6assignERcRKc
FN:366,371,_ZNSt11char_traitsIcE2ltERKcS2_
FN:374,390,_ZNSt11char_traitsIcE7compareEPKcS2_m
FN:393,400,_ZNSt11char_traitsIcE6lengthEPKc
FN:403,412,_ZNSt11char_traitsIcE4findEPKcmRS1_
FN:415,424,_ZNSt11char_traitsIcE4moveEPcPKcm
FN:427,436,_ZNSt11char_traitsIcE4copyEPcPKcm
FNDA:0,_ZN9__gnu_cxx11char_traitsIcE2eqERKcS3_
FNDA:0,_ZN9__gnu_cxx11char_traitsIcE6lengthEPKc
FNDA:0,_ZN9__gnu_cxx11char_traitsIcE4findEPKcmRS2_
FNDA:0,_ZN9__gnu_cxx11char_traitsIcE4moveEPcPKcm
FNDA:0,_ZN9__gnu_cxx11char_traitsIcE4copyEPcPKcm
FNDA:5095,_ZNSt11char_traitsIcE6assignERcRKc
FNDA:0,_ZNSt11char_traitsIcE2ltERKcS2_
FNDA:3,_ZNSt11char_traitsIcE7compareEPKcS2_m
FNDA:254,_ZNSt11char_traitsIcE6lengthEPKc
FNDA:12,_ZNSt11char_traitsIcE4findEPKcmRS1_
FNDA:0,_ZNSt11char_traitsIcE4moveEPcPKcm
FNDA:788,_ZNSt11char_traitsIcE4copyEPcPKcm
FNF:12
FNH:5
DA:136,0
DA:137,0
DA:199,0
DA:202,0
DA:203,0
DA:204,0
DA:205,0
DA:210,0
DA:213,0
DA:214,0
DA:215,0
DA:216,0
DA:222,0
DA:225,0
DA:226,0
DA:228,0
DA:242,0
DA:243,0
DA:246,0
DA:247,0
DA:253,0
DA:256,0
DA:257,0
DA:259,0
DA:261,0
DA:262,0
DA:263,0
DA:266,0
DA:267,0
DA:351,5095
DA:354,5095
DA:355,0
DA:358,5095
DA:359,5095
DA:366,0
DA:369,0
DA:370,0
DA:374,3
DA:376,3
DA:377,0
DA:379,3
DA:381,0
DA:382,0
DA:383,0
DA:384,0
DA:385,0
DA:386,0
DA:389,3
DA:393,254
DA:396,254
DA:397,0
DA:399,254
DA:403,12
DA:405,12
DA:406,0
DA:408,12
DA:409,0
DA:411,12
DA:415,0
DA:417,0
DA:418,0
DA:420,0
DA:421,0
DA:423,0
DA:427,788
DA:429,788
DA:430,31
DA:432,757
DA:433,0
DA:435,757
LF:70
LH:20
end_of_record
TN:
SF:/usr/include/c++/13/bits/move.h
FN:138,139,_ZSt9addressofIKcEPT_RS1_
FN:138,139,_ZSt9addressofIcEPT_RS0_
FN:189,200,_ZSt4swapIPN12my_container4ListIiE4NodeEENSt9enable_ifIXsrSt6__and_IJSt6__not_ISt15__is_tuple_likeIT_EESt21is_move_constructibleIS9_ESt18is_move_assignableIS9_EEE5valueEvE4typeERS9_SJ_
FN:189,200,_ZSt4swapImENSt9enable_ifIXsrSt6__and_IJSt6__not_ISt15__is_tuple_likeIT_EESt21is_move_constructibleIS4_ESt18is_move_assignableIS4_EEE5valueEvE4typeERS4_SE_
FN:51,52,_ZSt11__addressofIKcEPT_RS1_
FN:51,52,_ZSt11__addressofIcEPT_RS0_
FN:70,71,_ZSt7forwardIRKcEOT_RNSt16remove_referenceIS2_E4typeE
FN:97,98,_ZSt4moveIRN12my_container5DequeIiEEEONSt16remove_referenceIT_E4typeEOS5_
FN:97,98,_ZSt4moveIRN12my_container5StackIiEEEONSt16remove_referenceIT_E4typeEOS5_
FN:97,98,_ZSt4moveIRPN12my_container4ListIiE4NodeEEONSt16remove_referenceIT_E4typeEOS7_
FN:97,98,_ZSt4moveIRPNSt7__cxx1112basic_stringIcSt11char_traitsIcESaIcEEEEONSt16remove_referenceIT_E4typeEOS9_
FN:97,98,_ZSt4moveIRPNSt7__cxx1118basic_stringstreamIcSt11char_traitsIcESaIcEEEEONSt16remove_referenceIT_E4typeEOS9_
FN:97,98,_ZSt4moveIRSaIcEEONSt16remove_referenceIT_E4typeEOS3_
FN:97,98,_ZSt4moveIRmEONSt16remove_referenceIT_E4typeEOS2_
FNDA:3756,_ZSt9addressofIKcEPT_RS1_
FNDA:915,_ZSt9addressofIcEPT_RS0_
FNDA:1,_ZSt4swapIPN12my_container4ListIiE4NodeEENSt9enable_ifIXsrSt6__and_IJSt6__not_ISt15__is_tuple_likeIT_EESt21is_move_constructibleIS9_ESt18is_move_assignableIS9_EEE5valueEvE4typeERS9_SJ_
FNDA:1,_ZSt4swapImENSt9enable_ifIXsrSt6__and_IJSt6__not_ISt15__is_tuple_likeIT_EESt21is_move_constructibleIS4_ESt18is_move_assignableIS4_EEE5valueEvE4typeERS4_SE_
FNDA:3756,_ZSt11__addressofIKcEPT_RS1_
FNDA:915,_ZSt11__addressofIcEPT_RS0_
FNDA:0,_ZSt7forwardIRKcEOT_RNSt16remove_referenceIS2_E4typeE
FNDA:2,_ZSt4moveIRN12my_container5DequeIiEEEONSt16remove_referenceIT_E4typeEOS5_
FNDA:2,_ZSt4moveIRN12my_container5StackIiEEEONSt16remove_referenceIT_E4typeEOS5_
FNDA:3,_ZSt4moveIRPN12my_container4ListIiE4NodeEEONSt16remove_referenceIT_E4typeEOS7_
FNDA:0,_ZSt4moveIRPNSt7__cxx1112basic_stringIcSt11char_traitsIcESaIcEEEEONSt16remove_referenceIT_E4typeEOS9_
FNDA:110,_ZSt4moveIRPNSt7__cxx1118basic_stringstreamIcSt11char_traitsIcESaIcEEEEONSt16remove_referenceIT_E4typeEOS9_
FNDA:691,_ZSt4moveIRSaIcEEONSt16remove_referenceIT_E4typeEOS3_
FNDA:3,_ZSt4moveIRmEONSt16remove_referenceIT_E4typeEOS2_
FNF:14
FNH:12
DA:51,4671
DA:52,4671
DA:70,0
DA:71,0
DA:97,811
DA:98,811
DA:138,4671
DA:139,4671
DA:189,2
DA:197,2
DA:198,2
DA:199,2
DA:200,2
LF:13
LH:11
end_of_record
TN:
SF:/usr/include/c++/13/bits/new_allocator.h
FN:126,152,_ZNSt15__new_allocatorIcE8allocateEmPKv
FN:156,173,_ZNSt15__new_allocatorIcE10deallocateEPcm
FNDA:301,_ZNSt15__new_allocatorIcE8allocateEmPKv
FNDA:301,_ZNSt15__new_allocatorIcE10deallocateEPcm
FNF:2
FNH:2
DA:88,192
DA:92,983
DA:126,301
DA:134,301
DA:140,0
DA:151,301
DA:156,301
DA:172,301
DA:233,301
LF:9
LH:8
end_of_record
TN:
SF:/usr/include/c++/13/bits/ptr_traits.h
FN:141,142,_ZNSt19__ptr_traits_ptr_toIPKcS0_Lb0EE10pointer_toERS0_
FN:141,142,_ZNSt19__ptr_traits_ptr_toIPccLb0EE10pointer_toERc
FNDA:3756,_ZNSt19__ptr_traits_ptr_toIPKcS0_Lb0EE10pointer_toERS0_
FNDA:915,_ZNSt19__ptr_traits_ptr_toIPccLb0EE10pointer_toERc
FNF:2
FNH:2
DA:141,4671
DA:142,4671
LF:2
LH:2
end_of_record
TN:
SF:/usr/include/c++/13/bits/stl_algobase.h
FN:1167,1173,_ZNSt7__equalILb0EE5equalIN12my_container4ListINSt7__cxx1112basic_stringIcSt11char_traitsIcESaIcEEEE14const_iteratorESB_EEbT_SC_T0_
FN:1167,1173,_ZNSt7__equalILb0EE5equalIN12my_container4ListIiE14const_iteratorES5_EEbT_S6_T0_
FN:1213,1220,_ZSt12__equal_aux1IN12my_container4ListINSt7__cxx1112basic_stringIcSt11char_traitsIcESaIcEEEE14const_iteratorES9_EbT_SA_T0_
FN:1213,1220,_ZSt12__equal_aux1IN12my_container4ListIiE14const_iteratorES3_EbT_S4_T0_
FN:1225,1230,_ZSt11__equal_auxIN12my_container4ListINSt7__cxx1112basic_stringIcSt11char_traitsIcESaIcEEEE14const_iteratorES9_EbT_SA_T0_
FN:1225,1230,_ZSt11__equal_auxIN12my_container4ListIiE14const_iteratorES3_EbT_S4_T0_
FN:1547,1558,_ZSt5equalIN12my_container4ListINSt7__cxx1112basic_stringIcSt11char_traitsIcESaIcEEEE14const_iteratorES9_EbT_SA_T0_
FN:1547,1558,_ZSt5equalIN12my_container4ListIiE14const_iteratorES3_EbT_S4_T0_
FN:1821,1865,_ZSt33lexicographical_compare_three_wayIN12my_container4ListIiE14const_iteratorES3_St17compare_three_wayEDTclfp3_defp_defp1_EET_S6_T0_S7_T1_
FN:1869,1877,_ZSt33lexicographical_compare_three_wayIN12my_container4ListIiE14const_iteratorES3_EDaT_S4_T0_S5_
FN:233,241,_ZSt3minImERKT_S2_S2_
FN:316,318,_ZSt12__niter_baseIN12my_container4ListINSt7__cxx1112basic_stringIcSt11char_traitsIcESaIcEEEE14const_iteratorEET_SA_
FN:316,318,_ZSt12__niter_baseIN12my_container4ListIiE14const_iteratorEET_S4_
FNDA:0,_ZNSt7__equalILb0EE5equalIN12my_container4ListINSt7__cxx1112basic_stringIcSt11char_traitsIcESaIcEEEE14const_iteratorESB_EEbT_SC_T0_
FNDA:0,_ZNSt7__equalILb0EE5equalIN12my_container4ListIiE14const_iteratorES5_EEbT_S6_T0_
FNDA:0,_ZSt12__equal_aux1IN12my_container4ListINSt7__cxx1112basic_stringIcSt11char_traitsIcESaIcEEEE14const_iteratorES9_EbT_SA_T0_
FNDA:0,_ZSt12__equal_aux1IN12my_container4ListIiE14const_iteratorES3_EbT_S4_T0_
FNDA:0,_ZSt11__equal_auxIN12my_container4ListINSt7__cxx1112basic_stringIcSt11char_traitsIcESaIcEEEE14const_iteratorES9_EbT_SA_T0_
FNDA:0,_ZSt11__equal_auxIN12my_container4ListIiE14const_iteratorES3_EbT_S4_T0_
FNDA:0,_ZSt5equalIN12my_container4ListINSt7__cxx1112basic_stringIcSt11char_traitsIcESaIcEEEE14const_iteratorES9_EbT_SA_T0_
FNDA:0,_ZSt5equalIN12my_container4ListIiE14const_iteratorES3_EbT_S4_T0_
FNDA:5,_ZSt33lexicographical_compare_three_wayIN12my_container4ListIiE14const_iteratorES3_St17compare_three_wayEDTclfp3_defp_defp1_EET_S6_T0_S7_T1_
FNDA:5,_ZSt33lexicographical_compare_three_wayIN12my_container4ListIiE14const_iteratorES3_EDaT_S4_T0_S5_
FNDA:90,_ZSt3minImERKT_S2_S2_
FNDA:0,_ZSt12__niter_baseIN12my_container4ListINSt7__cxx1112basic_stringIcSt11char_traitsIcESaIcEEEE14const_iteratorEET_SA_
FNDA:0,_ZSt12__niter_baseIN12my_container4ListIiE14const_iteratorEET_S4_
FNF:13
FNH:3
DA:233,90
DA:238,90
DA:239,0
DA:240,90
DA:316,0
DA:318,0
DA:1167,0
DA:1169,0
DA:1170,0
DA:1171,0
DA:1172,0
DA:1213,0
DA:1216,0
DA:1219,0
DA:1225,0
DA:1227,0
DA:1229,0
DA:1547,0
DA:1557,0
DA:1821,5
DA:1837,5
DA:1855,18
DA:1857,14
DA:1858,1
DA:1859,13
DA:1860,0
DA:1861,13
DA:1862,13
DA:1864,4
DA:1869,5
DA:1875,5
DA:1876,5
LF:32
LH:15
end_of_record
TN:
SF:/usr/include/c++/13/bits/stl_construct.h
FN:94,97,_ZSt12construct_atIcJRKcEEDTgsnwcvPvLi0E_T_pispcl7declvalIT0_EEEEPS3_DpOS4_
FNDA:0,_ZSt12construct_atIcJRKcEEDTgsnwcvPvLi0E_T_pispcl7declvalIT0_EEEEPS3_DpOS4_
FNF:1
FNH:0
DA:94,0
DA:97,0
LF:2
LH:0
end_of_record
TN:
SF:/usr/include/c++/13/bits/stl_function.h
FN:451,458,_ZNKSt4lessIPKcEclES1_S1_
FNDA:59,_ZNKSt4lessIPKcEclES1_S1_
FNF:1
FNH:1
DA:451,59
DA:454,59
DA:455,0
DA:457,59
LF:4
LH:3
end_of_record
TN:
SF:/usr/include/c++/13/bits/stl_iterator.h
FN:195,198,_ZNSt16reverse_iteratorIN12my_container4ListINSt7__cxx1112basic_stringIcSt11char_traitsIcESaIcEEEE14const_iteratorEEC2ES9_
FN:195,198,_ZNSt16reverse_iteratorIN12my_container4ListINSt7__cxx1112basic_stringIcSt11char_traitsIcESaIcEEEE8iteratorEEC2ES9_
FN:195,198,_ZNSt16reverse_iteratorIN12my_container4ListIiE14const_iteratorEEC2ES3_
FN:195,198,_ZNSt16reverse_iteratorIN12my_container4ListIiE8iteratorEEC2ES3_
FNDA:0,_ZNSt16reverse_iteratorIN12my_container4ListINSt7__cxx1112basic_stringIcSt11char_traitsIcESaIcEEEE14const_iteratorEEC2ES9_
FNDA:0,_ZNSt16reverse_iteratorIN12my_container4ListINSt7__cxx1112basic_stringIcSt11char_traitsIcESaIcEEEE8iteratorEEC2ES9_
FNDA:0,_ZNSt16reverse_iteratorIN12my_container4ListIiE14const_iteratorEEC2ES3_
FNDA:0,_ZNSt16reverse_iteratorIN12my_container4ListIiE8iteratorEEC2ES3_
FNF:4
FNH:0
DA:195,0
DA:197,0
DA:198,0
LF:3
LH:0
end_of_record
TN:
SF:/usr/include/c++/13/bits/stl_iterator_base_funcs.h
FN:168,180,_ZSt9__advanceIN12my_container4ListINSt7__cxx1112basic_stringIcSt11char_traitsIcESaIcEEEE14const_iteratorElEvRT_T0_St26bidirectional_iterator_tag
FN:168,180,_ZSt9__advanceIN12my_container4ListINSt7__cxx1112basic_stringIcSt11char_traitsIcESaIcEEEE8iteratorElEvRT_T0_St26bidirectional_iterator_tag
FN:168,180,_ZSt9__advanceIN12my_container4ListIiE14const_iteratorElEvRT_T0_St26bidirectional_iterator_tag
FN:168,180,_ZSt9__advanceIN12my_container4ListIiE8iteratorElEvRT_T0_St26bidirectional_iterator_tag
FNDA:0,_ZSt9__advanceIN12my_container4ListINSt7__cxx1112basic_stringIcSt11char_traitsIcESaIcEEEE14const_iteratorElEvRT_T0_St26bidirectional_iterator_tag
FNDA:0,_ZSt9__advanceIN12my_container4ListINSt7__cxx1112basic_stringIcSt11char_traitsIcESaIcEEEE8iteratorElEvRT_T0_St26bidirectional_iterator_tag
FNDA:0,_ZSt9__advanceIN12my_container4ListIiE14const_iteratorElEvRT_T0_St26bidirectional_iterator_tag
FNDA:0,_ZSt9__advanceIN12my_container4ListIiE8iteratorElEvRT_T0_St26bidirectional_iterator_tag
FNF:4
FNH:0
DA:106,400
DA:151,800
DA:152,800
DA:168,0
DA:174,0
DA:175,0
DA:176,0
DA:178,0
DA:179,0
DA:180,0
DA:223,0
DA:224,0
DA:225,0
DA:250,0
DA:251,0
LF:15
LH:3
end_of_record
TN:
SF:/usr/include/c++/13/bits/stl_iterator_base_types.h
FNF:0
FNH:0
DA:240,400
LF:1
LH:1
end_of_record
TN:
SF:/usr/include/c++/13/bits/unique_ptr.h
FN:174,174,_ZNSt15__uniq_ptr_implINSt7__cxx1112basic_stringIcSt11char_traitsIcESaIcEEESt14default_deleteIS5_EEC2Ev
FN:197,197,_ZNSt15__uniq_ptr_implINSt7__cxx1112basic_stringIcSt11char_traitsIcESaIcEEESt14default_deleteIS5_EE6_M_ptrEv
FN:197,197,_ZNSt15__uniq_ptr_implINSt7__cxx1118basic_stringstreamIcSt11char_traitsIcESaIcEEESt14default_deleteIS5_EE6_M_ptrEv
FN:199,199,_ZNKSt15__uniq_ptr_implINSt7__cxx1112basic_stringIcSt11char_traitsIcESaIcEEESt14default_deleteIS5_EE6_M_ptrEv
FN:201,201,_ZNSt15__uniq_ptr_implINSt7__cxx1112basic_stringIcSt11char_traitsIcESaIcEEESt14default_deleteIS5_EE10_M_deleterEv
FN:201,201,_ZNSt15__uniq_ptr_implINSt7__cxx1118basic_stringstreamIcSt11char_traitsIcESaIcEEESt14default_deleteIS5_EE10_M_deleterEv
FN:304,306,_ZNSt10unique_ptrINSt7__cxx1112basic_stringIcSt11char_traitsIcESaIcEEESt14default_deleteIS5_EEC2IS7_vEEv
FN:398,406,_ZNSt10unique_ptrINSt7__cxx1112basic_stringIcSt11char_traitsIcESaIcEEESt14default_deleteIS5_EED2Ev
FN:398,406,_ZNSt10unique_ptrINSt7__cxx1118basic_stringstreamIcSt11char_traitsIcESaIcEEESt14default_deleteIS5_EED2Ev
FN:460,464,_ZNKSt10unique_ptrINSt7__cxx1112basic_stringIcSt11char_traitsIcESaIcEEESt14default_deleteIS5_EEptEv
FN:469,470,_ZNKSt10unique_ptrINSt7__cxx1112basic_stringIcSt11char_traitsIcESaIcEEESt14default_deleteIS5_EE3getEv
FN:475,476,_ZNSt10unique_ptrINSt7__cxx1112basic_stringIcSt11char_traitsIcESaIcEEESt14default_deleteIS5_EE11get_deleterEv
FN:475,476,_ZNSt10unique_ptrINSt7__cxx1118basic_stringstreamIcSt11char_traitsIcESaIcEEESt14default_deleteIS5_EE11get_deleterEv
FN:486,487,_ZNKSt10unique_ptrINSt7__cxx1112basic_stringIcSt11char_traitsIcESaIcEEESt14default_deleteIS5_EEcvbEv
FN:837,838,_ZSteqINSt7__cxx1112basic_stringIcSt11char_traitsIcESaIcEEESt14default_deleteIS5_EEbRKSt10unique_ptrIT_T0_EDn
FN:93,100,_ZNKSt14default_deleteINSt7__cxx1112basic_stringIcSt11char_traitsIcESaIcEEEEclEPS5_
FN:93,100,_ZNKSt14default_deleteINSt7__cxx1118basic_stringstreamIcSt11char_traitsIcESaIcEEEEclEPS5_
FNDA:29,_ZNSt15__uniq_ptr_implINSt7__cxx1112basic_stringIcSt11char_traitsIcESaIcEEESt14default_deleteIS5_EEC2Ev
FNDA:29,_ZNSt15__uniq_ptr_implINSt7__cxx1112basic_stringIcSt11char_traitsIcESaIcEEESt14default_deleteIS5_EE6_M_ptrEv
FNDA:220,_ZNSt15__uniq_ptr_implINSt7__cxx1118basic_stringstreamIcSt11char_traitsIcESaIcEEESt14default_deleteIS5_EE6_M_ptrEv
FNDA:0,_ZNKSt15__uniq_ptr_implINSt7__cxx1112basic_stringIcSt11char_traitsIcESaIcEEESt14default_deleteIS5_EE6_M_ptrEv
FNDA:0,_ZNSt15__uniq_ptr_implINSt7__cxx1112basic_stringIcSt11char_traitsIcESaIcEEESt14default_deleteIS5_EE10_M_deleterEv
FNDA:110,_ZNSt15__uniq_ptr_implINSt7__cxx1118basic_stringstreamIcSt11char_traitsIcESaIcEEESt14default_deleteIS5_EE10_M_deleterEv
FNDA:29,_ZNSt10unique_ptrINSt7__cxx1112basic_stringIcSt11char_traitsIcESaIcEEESt14default_deleteIS5_EEC2IS7_vEEv
FNDA:29,_ZNSt10unique_ptrINSt7__cxx1112basic_stringIcSt11char_traitsIcESaIcEEESt14default_deleteIS5_EED2Ev
FNDA:110,_ZNSt10unique_ptrINSt7__cxx1118basic_stringstreamIcSt11char_traitsIcESaIcEEESt14default_deleteIS5_EED2Ev
FNDA:0,_ZNKSt10unique_ptrINSt7__cxx1112basic_stringIcSt11char_traitsIcESaIcEEESt14default_deleteIS5_EEptEv
FNDA:0,_ZNKSt10unique_ptrINSt7__cxx1112basic_stringIcSt11char_traitsIcESaIcEEESt14default_deleteIS5_EE3getEv
FNDA:0,_ZNSt10unique_ptrINSt7__cxx1112basic_stringIcSt11char_traitsIcESaIcEEESt14default_deleteIS5_EE11get_deleterEv
FNDA:110,_ZNSt10unique_ptrINSt7__cxx1118basic_stringstreamIcSt11char_traitsIcESaIcEEESt14default_deleteIS5_EE11get_deleterEv
FNDA:0,_ZNKSt10unique_ptrINSt7__cxx1112basic_stringIcSt11char_traitsIcESaIcEEESt14default_deleteIS5_EEcvbEv
FNDA:0,_ZSteqINSt7__cxx1112basic_stringIcSt11char_traitsIcESaIcEEESt14default_deleteIS5_EEbRKSt10unique_ptrIT_T0_EDn
FNDA:0,_ZNKSt14default_deleteINSt7__cxx1112basic_stringIcSt11char_traitsIcESaIcEEEEclEPS5_
FNDA:110,_ZNKSt14default_deleteINSt7__cxx1118basic_stringstreamIcSt11char_traitsIcESaIcEEEEclEPS5_
FNF:17
FNH:9
DA:93,110
DA:99,110
DA:100,110
DA:174,29
DA:197,249
DA:199,0
DA:201,110
DA:304,29
DA:305,29
DA:306,29
DA:398,139
DA:402,139
DA:403,139
DA:404,110
DA:405,139
DA:406,139
DA:460,0
DA:463,0
DA:469,0
DA:470,0
DA:475,110
DA:476,110
DA:486,0
DA:487,0
DA:837,0
DA:838,0
LF:26
LH:17
end_of_record
TN:
SF:/usr/include/c++/13/compare
FN:283,284,_ZSteqSt15strong_orderingNSt9__cmp_cat8__unspecE
FN:288,288,_ZSteqSt15strong_orderingS_
FN:549,564,_ZNKSt17compare_three_wayclIRKiS2_EEDaOT_OT0_
FNDA:13,_ZSteqSt15strong_orderingNSt9__cmp_cat8__unspecE
FNDA:5,_ZSteqSt15strong_orderingS_
FNDA:13,_ZNKSt17compare_three_wayclIRKiS2_EEDaOT_OT0_
FNF:3
FNH:3
DA:258,5
DA:283,13
DA:284,13
DA:288,5
DA:549,13
DA:563,13
LF:6
LH:6
end_of_record
TN:
SF:/usr/include/c++/13/ext/alloc_traits.h
FNF:0
FNH:0
DA:98,208
LF:1
LH:1
end_of_record
TN:
SF:/usr/include/c++/13/initializer_list
FN:69,69,_ZNKSt16initializer_listINSt7__cxx1112basic_stringIcSt11char_traitsIcESaIcEEEE4sizeEv
FN:69,69,_ZNKSt16initializer_listIiE4sizeEv
FN:73,73,_ZNKSt16initializer_listINSt7__cxx1112basic_stringIcSt11char_traitsIcESaIcEEEE5beginEv
FN:73,73,_ZNKSt16initializer_listIiE5beginEv
FN:77,77,_ZNKSt16initializer_listINSt7__cxx1112basic_stringIcSt11char_traitsIcESaIcEEEE3endEv
FN:77,77,_ZNKSt16initializer_listIiE3endEv
FNDA:11,_ZNKSt16initializer_listINSt7__cxx1112basic_stringIcSt11char_traitsIcESaIcEEEE4sizeEv
FNDA:17,_ZNKSt16initializer_listIiE4sizeEv
FNDA:22,_ZNKSt16initializer_listINSt7__cxx1112basic_stringIcSt11char_traitsIcESaIcEEEE5beginEv
FNDA:34,_ZNKSt16initializer_listIiE5beginEv
FNDA:11,_ZNKSt16initializer_listINSt7__cxx1112basic_stringIcSt11char_traitsIcESaIcEEEE3endEv
FNDA:17,_ZNKSt16initializer_listIiE3endEv
FNF:6
FNH:6
DA:69,28
DA:73,56
DA:77,28
LF:3
LH:3
end_of_record
TN:
SF:/usr/include/c++/13/limits
FN:1274,1274,_ZNSt14numeric_limitsImE3maxEv
FNDA:0,_ZNSt14numeric_limitsImE3maxEv
FNF:1
FNH:0
DA:1274,0
LF:1
LH:0
end_of_record
TN:
SF:/usr/include/c++/13/new
FN:174,175,_ZnwmPv
FNDA:86,_ZnwmPv
FNF:1
FNH:1
DA:174,86
DA:175,86
LF:2
LH:2
end_of_record
TN:
SF:/usr/include/c++/13/tuple
FN:125,125,_ZNSt10_Head_baseILm1ESt14default_deleteINSt7__cxx1112basic_stringIcSt11char_traitsIcESaIcEEEELb1EE7_M_headERS8_
FN:125,125,_ZNSt10_Head_baseILm1ESt14default_deleteINSt7__cxx1118basic_stringstreamIcSt11char_traitsIcESaIcEEEELb1EE7_M_headERS8_
FN:1317,1319,_ZNSt5tupleIJPNSt7__cxx1112basic_stringIcSt11char_traitsIcESaIcEEESt14default_deleteIS5_EEEC2ILb1ELb1EEEv
FN:1787,1788,_ZSt12__get_helperILm0EPNSt7__cxx1112basic_stringIcSt11char_traitsIcESaIcEEEJSt14default_deleteIS5_EEERT0_RSt11_Tuple_implIXT_EJS9_DpT1_EE
FN:1787,1788,_ZSt12__get_helperILm0EPNSt7__cxx1118basic_stringstreamIcSt11char_traitsIcESaIcEEEJSt14default_deleteIS5_EEERT0_RSt11_Tuple_implIXT_EJS9_DpT1_EE
FN:1787,1788,_ZSt12__get_helperILm1ESt14default_deleteINSt7__cxx1112basic_stringIcSt11char_traitsIcESaIcEEEEJEERT0_RSt11_Tuple_implIXT_EJS8_DpT1_EE
FN:1787,1788,_ZSt12__get_helperILm1ESt14default_deleteINSt7__cxx1118basic_stringstreamIcSt11char_traitsIcESaIcEEEEJEERT0_RSt11_Tuple_implIXT_EJS8_DpT1_EE
FN:1792,1793,_ZSt12__get_helperILm0EPNSt7__cxx1112basic_stringIcSt11char_traitsIcESaIcEEEJSt14default_deleteIS5_EEERKT0_RKSt11_Tuple_implIXT_EJS9_DpT1_EE
FN:1803,1804,_ZSt3getILm0EJPNSt7__cxx1112basic_stringIcSt11char_traitsIcESaIcEEESt14default_deleteIS5_EEERNSt13tuple_elementIXT_ESt5tupleIJDpT0_EEE4typeERSD_
FN:1803,1804,_ZSt3getILm0EJPNSt7__cxx1118basic_stringstreamIcSt11char_traitsIcESaIcEEESt14default_deleteIS5_EEERNSt13tuple_elementIXT_ESt5tupleIJDpT0_EEE4typeERSD_
FN:1803,1804,_ZSt3getILm1EJPNSt7__cxx1112basic_stringIcSt11char_traitsIcESaIcEEESt14default_deleteIS5_EEERNSt13tuple_elementIXT_ESt5tupleIJDpT0_EEE4typeERSD_
FN:1803,1804,_ZSt3getILm1EJPNSt7__cxx1118basic_stringstreamIcSt11char_traitsIcESaIcEEESt14default_deleteIS5_EEERNSt13tuple_elementIXT_ESt5tupleIJDpT0_EEE4typeERSD_
FN:1809,1810,_ZSt3getILm0EJPNSt7__cxx1112basic_stringIcSt11char_traitsIcESaIcEEESt14default_deleteIS5_EEERKNSt13tuple_elementIXT_ESt5tupleIJDpT0_EEE4typeERKSD_
FN:190,191,_ZNSt10_Head_baseILm0EPNSt7__cxx1112basic_stringIcSt11char_traitsIcESaIcEEELb0EEC2Ev
FN:234,234,_ZNSt10_Head_baseILm0EPNSt7__cxx1112basic_stringIcSt11char_traitsIcESaIcEEELb0EE7_M_headERS7_
FN:234,234,_ZNSt10_Head_baseILm0EPNSt7__cxx1118basic_stringstreamIcSt11char_traitsIcESaIcEEELb0EE7_M_headERS7_
FN:237,237,_ZNSt10_Head_baseILm0EPNSt7__cxx1112basic_stringIcSt11char_traitsIcESaIcEEELb0EE7_M_headERKS7_
FN:269,269,_ZNSt11_Tuple_implILm0EJPNSt7__cxx1112basic_stringIcSt11char_traitsIcESaIcEEESt14default_deleteIS5_EEE7_M_headERS9_
FN:269,269,_ZNSt11_Tuple_implILm0EJPNSt7__cxx1118basic_stringstreamIcSt11char_traitsIcESaIcEEESt14default_deleteIS5_EEE7_M_headERS9_
FN:272,272,_ZNSt11_Tuple_implILm0EJPNSt7__cxx1112basic_stringIcSt11char_traitsIcESaIcEEESt14default_deleteIS5_EEE7_M_headERKS9_
FN:280,281,_ZNSt11_Tuple_implILm0EJPNSt7__cxx1112basic_stringIcSt11char_traitsIcESaIcEEESt14default_deleteIS5_EEEC2Ev
FN:497,497,_ZNSt11_Tuple_implILm1EJSt14default_deleteINSt7__cxx1112basic_stringIcSt11char_traitsIcESaIcEEEEEE7_M_headERS8_
FN:497,497,_ZNSt11_Tuple_implILm1EJSt14default_deleteINSt7__cxx1118basic_stringstreamIcSt11char_traitsIcESaIcEEEEEE7_M_headERS8_
FN:503,504,_ZNSt11_Tuple_implILm1EJSt14default_deleteINSt7__cxx1112basic_stringIcSt11char_traitsIcESaIcEEEEEEC2Ev
FN:81,82,_ZNSt10_Head_baseILm1ESt14default_deleteINSt7__cxx1112basic_stringIcSt11char_traitsIcESaIcEEEELb1EEC2Ev
FNDA:0,_ZNSt10_Head_baseILm1ESt14default_deleteINSt7__cxx1112basic_stringIcSt11char_traitsIcESaIcEEEELb1EE7_M_headERS8_
FNDA:110,_ZNSt10_Head_baseILm1ESt14default_deleteINSt7__cxx1118basic_stringstreamIcSt11char_traitsIcESaIcEEEELb1EE7_M_headERS8_
FNDA:29,_ZNSt5tupleIJPNSt7__cxx1112basic_stringIcSt11char_traitsIcESaIcEEESt14default_deleteIS5_EEEC2ILb1ELb1EEEv
FNDA:29,_ZSt12__get_helperILm0EPNSt7__cxx1112basic_stringIcSt11char_traitsIcESaIcEEEJSt14default_deleteIS5_EEERT0_RSt11_Tuple_implIXT_EJS9_DpT1_EE
FNDA:220,_ZSt12__get_helperILm0EPNSt7__cxx1118basic_stringstreamIcSt11char_traitsIcESaIcEEEJSt14default_deleteIS5_EEERT0_RSt11_Tuple_implIXT_EJS9_DpT1_EE
FNDA:0,_ZSt12__get_helperILm1ESt14default_deleteINSt7__cxx1112basic_stringIcSt11char_traitsIcESaIcEEEEJEERT0_RSt11_Tuple_implIXT_EJS8_DpT1_EE
FNDA:110,_ZSt12__get_helperILm1ESt14default_deleteINSt7__cxx1118basic_stringstreamIcSt11char_traitsIcESaIcEEEEJEERT0_RSt11_Tuple_implIXT_EJS8_DpT1_EE
FNDA:0,_ZSt12__get_helperILm0EPNSt7__cxx1112basic_stringIcSt11char_traitsIcESaIcEEEJSt14default_deleteIS5_EEERKT0_RKSt11_Tuple_implIXT_EJS9_DpT1_EE
FNDA:29,_ZSt3getILm0EJPNSt7__cxx1112basic_stringIcSt11char_traitsIcESaIcEEESt14default_deleteIS5_EEERNSt13tuple_elementIXT_ESt5tupleIJDpT0_EEE4typeERSD_
FNDA:220,_ZSt3getILm0EJPNSt7__cxx1118basic_stringstreamIcSt11char_traitsIcESaIcEEESt14default_deleteIS5_EEERNSt13tuple_elementIXT_ESt5tupleIJDpT0_EEE4typeERSD_
FNDA:0,_ZSt3getILm1EJPNSt7__cxx1112basic_stringIcSt11char_traitsIcESaIcEEESt14default_deleteIS5_EEERNSt13tuple_elementIXT_ESt5tupleIJDpT0_EEE4typeERSD_
FNDA:110,_ZSt3getILm1EJPNSt7__cxx1118basic_stringstreamIcSt11char_traitsIcESaIcEEESt14default_deleteIS5_EEERNSt13tuple_elementIXT_ESt5tupleIJDpT0_EEE4typeERSD_
FNDA:0,_ZSt3getILm0EJPNSt7__cxx1112basic_stringIcSt11char_traitsIcESaIcEEESt14default_deleteIS5_EEERKNSt13tuple_elementIXT_ESt5tupleIJDpT0_EEE4typeERKSD_
FNDA:29,_ZNSt10_Head_baseILm0EPNSt7__cxx1112basic_stringIcSt11char_traitsIcESaIcEEELb0EEC2Ev
FNDA:29,_ZNSt10_Head_baseILm0EPNSt7__cxx1112basic_stringIcSt11char_traitsIcESaIcEEELb0EE7_M_headERS7_
FNDA:220,_ZNSt10_Head_baseILm0EPNSt7__cxx1118basic_stringstreamIcSt11char_traitsIcESaIcEEELb0EE7_M_headERS7_
FNDA:0,_ZNSt10_Head_baseILm0EPNSt7__cxx1112basic_stringIcSt11char_traitsIcESaIcEEELb0EE7_M_headERKS7_
FNDA:29,_ZNSt11_Tuple_implILm0EJPNSt7__cxx1112basic_stringIcSt11char_traitsIcESaIcEEESt14default_deleteIS5_EEE7_M_headERS9_
FNDA:220,_ZNSt11_Tuple_implILm0EJPNSt7__cxx1118basic_stringstreamIcSt11char_traitsIcESaIcEEESt14default_deleteIS5_EEE7_M_headERS9_
FNDA:0,_ZNSt11_Tuple_implILm0EJPNSt7__cxx1112basic_stringIcSt11char_traitsIcESaIcEEESt14default_deleteIS5_EEE7_M_headERKS9_
FNDA:29,_ZNSt11_Tuple_implILm0EJPNSt7__cxx1112basic_stringIcSt11char_traitsIcESaIcEEESt14default_deleteIS5_EEEC2Ev
FNDA:0,_ZNSt11_Tuple_implILm1EJSt14default_deleteINSt7__cxx1112basic_stringIcSt11char_traitsIcESaIcEEEEEE7_M_headERS8_
FNDA:110,_ZNSt11_Tuple_implILm1EJSt14default_deleteINSt7__cxx1118basic_stringstreamIcSt11char_traitsIcESaIcEEEEEE7_M_headERS8_
FNDA:29,_ZNSt11_Tuple_implILm1EJSt14default_deleteINSt7__cxx1112basic_stringIcSt11char_traitsIcESaIcEEEEEEC2Ev
FNDA:29,_ZNSt10_Head_baseILm1ESt14default_deleteINSt7__cxx1112basic_stringIcSt11char_traitsIcESaIcEEEELb1EEC2Ev
FNF:25
FNH:17
DA:81,29
DA:82,29
DA:125,110
DA:190,29
DA:191,29
DA:234,249
DA:237,0
DA:269,249
DA:272,0
DA:280,29
DA:281,29
DA:497,110
DA:503,29
DA:504,29
DA:1317,29
DA:1319,29
DA:1787,359
DA:1788,359
DA:1792,0
DA:1793,0
DA:1803,359
DA:1804,359
DA:1809,0
DA:1810,0
LF:24
LH:18
end_of_record
TN:
SF:/usr/include/c++/13/type_traits
FN:3649,3656,_ZSt21is_constant_evaluatedv
FNDA:908,_ZSt21is_constant_evaluatedv
FNF:1
FNH:1
DA:3649,908
DA:3654,908
LF:2
LH:2
end_of_record
TN:
SF:/usr/include/c++/13/typeinfo
FN:103,104,_ZNKSt9type_info4nameEv
FNDA:0,_ZNKSt9type_info4nameEv
FNF:1
FNH:0
DA:103,0
DA:104,0
LF:2
LH:0
end_of_record
TN:
SF:/usr/include/x86_64-linux-gnu/c++/13/bits/c++config.h
FN:540,551,_ZSt23__is_constant_evaluatedv
FNDA:8048,_ZSt23__is_constant_evaluatedv
FNF:1
FNH:1
DA:540,8048
DA:547,8048
LF:2
LH:2
end_of_record
