TN:
SF:/mnt/c/Users/Олеся/CLionProjects/deque/build/_deps/googletest-src/googletest/include/gtest/gtest-assertion-result.h
FN:155,_ZN7testing15AssertionResultC2IbEERKT_PNSt9enable_ifIXntsrSt14is_convertibleIS2_S0_E5valueEvE4typeE
FN:174,_ZNK7testing15AssertionResultcvbEv
FN:183,_ZNK7testing15AssertionResult7messageEv
FN:187,_ZNK7testing15AssertionResult15failure_messageEv
FNDA:22,_ZN7testing15AssertionResultC2IbEERKT_PNSt9enable_ifIXntsrSt14is_convertibleIS2_S0_E5valueEvE4typeE
FNDA:0,_ZNK7testing15AssertionResult7messageEv
FNDA:22,_ZNK7testing15AssertionResultcvbEv
FNDA:0,_ZNK7testing15AssertionResult15failure_messageEv
FNF:4
FNH:2
DA:155,22
DA:161,22
DA:174,22
DA:183,0
DA:184,0
DA:187,0
LF:6
LH:3
end_of_record
TN:
SF:/mnt/c/Users/Олеся/CLionProjects/deque/build/_deps/googletest-src/googletest/include/gtest/gtest-printers.h
FN:141,_ZN7testing8internal16ContainerPrinter10PrintValueI5DequeIiEvEEvRKT_PSo
FN:221,_ZN7testing8internal52internal_stream_operator_without_lexical_name_lookup13StreamPrinter10PrintValueIivEEDTcvvlsdefp0_fp_ERKT_PSo
FN:221,_ZN7testing8internal52internal_stream_operator_without_lexical_name_lookup13StreamPrinter10PrintValueImvEEDTcvvlsdefp0_fp_ERKT_PSo
FN:326,_ZN7testing8internal17PrintWithFallbackIiEEvRKT_PSo
FN:326,_ZN7testing8internal17PrintWithFallbackI5DequeIiEEEvRKT_PSo
FN:326,_ZN7testing8internal17PrintWithFallbackImEEvRKT_PSo
FN:357,_ZN7testing8internal19FormatForComparisonIimE6FormatB5cxx11ERKi
FN:357,_ZN7testing8internal19FormatForComparisonImiE6FormatB5cxx11ERKm
FN:357,_ZN7testing8internal19FormatForComparisonIiiE6FormatB5cxx11ERKi
FN:357,_ZN7testing8internal19FormatForComparisonI5DequeIiES3_E6FormatB5cxx11ERKS3_
FN:437,_ZN7testing8internal33FormatForComparisonFailureMessageIiiEENSt7__cxx1112basic_stringIcSt11char_traitsIcESaIcEEERKT_RKT0_
FN:437,_ZN7testing8internal33FormatForComparisonFailureMessageIimEENSt7__cxx1112basic_stringIcSt11char_traitsIcESaIcEEERKT_RKT0_
FN:437,_ZN7testing8internal33FormatForComparisonFailureMessageImiEENSt7__cxx1112basic_stringIcSt11char_traitsIcESaIcEEERKT_RKT0_
FN:437,_ZN7testing8internal33FormatForComparisonFailureMessageI5DequeIiES3_EENSt7__cxx1112basic_stringIcSt11char_traitsIcESaIcEEERKT_RKT0_
FN:464,_ZN7testing8internal7PrintToImEEvRKT_PSo
FN:464,_ZN7testing8internal7PrintToI5DequeIiEEEvRKT_PSo
FN:464,_ZN7testing8internal7PrintToIiEEvRKT_PSo
FN:799,_ZN7testing8internal16UniversalPrinterI5DequeIiEE5PrintERKS3_PSo
FN:799,_ZN7testing8internal16UniversalPrinterIiE5PrintERKiPSo
FN:799,_ZN7testing8internal16UniversalPrinterImE5PrintERKmPSo
FN:989,_ZN7testing8internal21UniversalTersePrinterImE5PrintERKmPSo
FN:989,_ZN7testing8internal21UniversalTersePrinterIiE5PrintERKiPSo
FN:989,_ZN7testing8internal21UniversalTersePrinterI5DequeIiEE5PrintERKS3_PSo
FN:1108,_ZN7testing8internal14UniversalPrintIiEEvRKT_PSo
FN:1108,_ZN7testing8internal14UniversalPrintI5DequeIiEEEvRKT_PSo
FN:1108,_ZN7testing8internal14UniversalPrintImEEvRKT_PSo
FN:1148,_ZN7testing13PrintToStringI5DequeIiEEENSt7__cxx1112basic_stringIcSt11char_traitsIcESaIcEEERKT_
FN:1148,_ZN7testing13PrintToStringIiEENSt7__cxx1112basic_stringIcSt11char_traitsIcESaIcEEERKT_
FN:1148,_ZN7testing13PrintToStringImEENSt7__cxx1112basic_stringIcSt11char_traitsIcESaIcEEERKT_
FNDA:0,_ZN7testing8internal33FormatForComparisonFailureMessageImiEENSt7__cxx1112basic_stringIcSt11char_traitsIcESaIcEEERKT_RKT0_
FNDA:0,_ZN7testing8internal17PrintWithFallbackIiEEvRKT_PSo
FNDA:0,_ZN7testing8internal17PrintWithFallbackI5DequeIiEEEvRKT_PSo
FNDA:0,_ZN7testing8internal19FormatForComparisonImiE6FormatB5cxx11ERKm
FNDA:0,_ZN7testing8internal21UniversalTersePrinterIiE5PrintERKiPSo
FNDA:0,_ZN7testing8internal52internal_stream_operator_without_lexical_name_lookup13StreamPrinter10PrintValueIivEEDTcvvlsdefp0_fp_ERKT_PSo
FNDA:0,_ZN7testing8internal17PrintWithFallbackImEEvRKT_PSo
FNDA:0,_ZN7testing8internal14UniversalPrintIiEEvRKT_PSo
FNDA:0,_ZN7testing13PrintToStringImEENSt7__cxx1112basic_stringIcSt11char_traitsIcESaIcEEERKT_
FNDA:0,_ZN7testing8internal16UniversalPrinterIiE5PrintERKiPSo
FNDA:0,_ZN7testing8internal33FormatForComparisonFailureMessageI5DequeIiES3_EENSt7__cxx1112basic_stringIcSt11char_traitsIcESaIcEEERKT_RKT0_
FNDA:0,_ZN7testing8internal19FormatForComparisonIiiE6FormatB5cxx11ERKi
FNDA:0,_ZN7testing8internal7PrintToIiEEvRKT_PSo
FNDA:0,_ZN7testing8internal21UniversalTersePrinterI5DequeIiEE5PrintERKS3_PSo
FNDA:0,_ZN7testing8internal16ContainerPrinter10PrintValueI5DequeIiEvEEvRKT_PSo
FNDA:0,_ZN7testing8internal14UniversalPrintI5DequeIiEEEvRKT_PSo
FNDA:0,_ZN7testing8internal14UniversalPrintImEEvRKT_PSo
FNDA:0,_ZN7testing8internal19FormatForComparisonI5DequeIiES3_E6FormatB5cxx11ERKS3_
FNDA:0,_ZN7testing8internal52internal_stream_operator_without_lexical_name_lookup13StreamPrinter10PrintValueImvEEDTcvvlsdefp0_fp_ERKT_PSo
FNDA:0,_ZN7testing8internal16UniversalPrinterImE5PrintERKmPSo
FNDA:0,_ZN7testing8internal33FormatForComparisonFailureMessageIiiEENSt7__cxx1112basic_stringIcSt11char_traitsIcESaIcEEERKT_RKT0_
FNDA:0,_ZN7testing13PrintToStringI5DequeIiEEENSt7__cxx1112basic_stringIcSt11char_traitsIcESaIcEEERKT_
FNDA:0,_ZN7testing8internal7PrintToImEEvRKT_PSo
FNDA:0,_ZN7testing8internal16UniversalPrinterI5DequeIiEE5PrintERKS3_PSo
FNDA:0,_ZN7testing13PrintToStringIiEENSt7__cxx1112basic_stringIcSt11char_traitsIcESaIcEEERKT_
FNDA:0,_ZN7testing8internal19FormatForComparisonIimE6FormatB5cxx11ERKi
FNDA:0,_ZN7testing8internal33FormatForComparisonFailureMessageIimEENSt7__cxx1112basic_stringIcSt11char_traitsIcESaIcEEERKT_RKT0_
FNDA:0,_ZN7testing8internal7PrintToI5DequeIiEEEvRKT_PSo
FNDA:0,_ZN7testing8internal21UniversalTersePrinterImE5PrintERKmPSo
FNF:29
FNH:0
DA:141,0
DA:142,0
DA:143,0
DA:144,0
DA:145,0
DA:146,0
DA:147,0
DA:148,0
DA:149,0
DA:150,0
DA:153,0
DA:156,0
DA:157,0
DA:160,0
DA:161,0
DA:163,0
DA:164,0
DA:221,0
DA:225,0
DA:226,0
DA:326,0
DA:336,0
DA:337,0
DA:357,0
DA:358,0
DA:437,0
DA:439,0
DA:464,0
DA:465,0
DA:466,0
DA:799,0
DA:808,0
DA:809,0
DA:989,0
DA:990,0
DA:991,0
DA:1108,0
DA:1112,0
DA:1113,0
DA:1148,0
DA:1149,0
DA:1150,0
DA:1151,0
DA:1152,0
LF:44
LH:0
end_of_record
TN:
SF:/mnt/c/Users/Олеся/CLionProjects/deque/build/_deps/googletest-src/googletest/include/gtest/gtest.h
FN:256,_ZN7testing4Test14SetUpTestSuiteEv
FN:264,_ZN7testing4Test17TearDownTestSuiteEv
FN:269,_ZN7testing4Test16TearDownTestCaseEv
FN:270,_ZN7testing4Test13SetUpTestCaseEv
FN:357,_ZN7testing4Test5SetupEv
FN:1359,_ZN7testing8internal18CmpHelperEQFailureI5DequeIiES3_EENS_15AssertionResultEPKcS6_RKT_RKT0_
FN:1359,_ZN7testing8internal18CmpHelperEQFailureImiEENS_15AssertionResultEPKcS4_RKT_RKT0_
FN:1359,_ZN7testing8internal18CmpHelperEQFailureIiiEENS_15AssertionResultEPKcS4_RKT_RKT0_
FN:1376,_ZN7testing8internal11CmpHelperEQI5DequeIiES3_EENS_15AssertionResultEPKcS6_RKT_RKT0_
FN:1376,_ZN7testing8internal11CmpHelperEQImiEENS_15AssertionResultEPKcS4_RKT_RKT0_
FN:1376,_ZN7testing8internal11CmpHelperEQIiiEENS_15AssertionResultEPKcS4_RKT_RKT0_
FN:1395,_ZN7testing8internal8EqHelper7CompareImiLPv0EEENS_15AssertionResultEPKcS6_RKT_RKT0_
FN:1395,_ZN7testing8internal8EqHelper7CompareI5DequeIiES4_LPv0EEENS_15AssertionResultEPKcS8_RKT_RKT0_
FN:1395,_ZN7testing8internal8EqHelper7CompareIiiLPv0EEENS_15AssertionResultEPKcS6_RKT_RKT0_
FNDA:0,_ZN7testing4Test17TearDownTestSuiteEv
FNDA:0,_ZN7testing8internal18CmpHelperEQFailureImiEENS_15AssertionResultEPKcS4_RKT_RKT0_
FNDA:0,_ZN7testing8internal18CmpHelperEQFailureIiiEENS_15AssertionResultEPKcS4_RKT_RKT0_
FNDA:2,_ZN7testing8internal11CmpHelperEQI5DequeIiES3_EENS_15AssertionResultEPKcS6_RKT_RKT0_
FNDA:0,_ZN7testing8internal18CmpHelperEQFailureI5DequeIiES3_EENS_15AssertionResultEPKcS6_RKT_RKT0_
FNDA:0,_ZN7testing4Test5SetupEv
FNDA:0,_ZN7testing4Test16TearDownTestCaseEv
FNDA:0,_ZN7testing4Test14SetUpTestSuiteEv
FNDA:11,_ZN7testing8internal8EqHelper7CompareIiiLPv0EEENS_15AssertionResultEPKcS6_RKT_RKT0_
FNDA:11,_ZN7testing8internal11CmpHelperEQIiiEENS_15AssertionResultEPKcS4_RKT_RKT0_
FNDA:6,_ZN7testing8internal8EqHelper7CompareImiLPv0EEENS_15AssertionResultEPKcS6_RKT_RKT0_
FNDA:2,_ZN7testing8internal8EqHelper7CompareI5DequeIiES4_LPv0EEENS_15AssertionResultEPKcS8_RKT_RKT0_
FNDA:6,_ZN7testing8internal11CmpHelperEQImiEENS_15AssertionResultEPKcS4_RKT_RKT0_
FNDA:0,_ZN7testing4Test13SetUpTestCaseEv
FNF:14
FNH:6
DA:256,0
DA:264,0
DA:269,0
DA:270,0
DA:357,0
DA:1359,0
DA:1364,0
DA:1376,19
DA:1379,19
DA:1380,19
DA:1383,0
DA:1395,19
DA:1398,19
LF:13
LH:5
end_of_record
TN:
SF:/mnt/c/Users/Олеся/CLionProjects/deque/build/_deps/googletest-src/googletest/include/gtest/internal/gtest-internal.h
FN:419,_ZN7testing8internal9GetTypeIdI9DequeTestEEPKvv
FN:438,_ZN7testing8internal15TestFactoryBaseD2Ev
FN:438,_ZN7testing8internal15TestFactoryBaseD0Ev
FN:445,_ZN7testing8internal15TestFactoryBaseC2Ev
FN:457,_ZN7testing8internal15TestFactoryImplI30DequeTest_MoveConstructor_TestE10CreateTestEv
FN:457,_ZN7testing8internal15TestFactoryImplI28DequeTest_SizeAndAccess_TestE10CreateTestEv
FN:457,_ZN7testing8internal15TestFactoryImplI35DequeTest_AtOperatorOutOfRange_TestE10CreateTestEv
FN:457,_ZN7testing8internal15TestFactoryImplI25DequeTest_ClearDeque_TestE10CreateTestEv
FN:457,_ZN7testing8internal15TestFactoryImplI33DequeTest_PopBackAndPopFront_TestE10CreateTestEv
FN:457,_ZN7testing8internal15TestFactoryImplI30DequeTest_AtOperatorValid_TestE10CreateTestEv
FN:457,_ZN7testing8internal15TestFactoryImplI29DequeTest_CopyAssignment_TestE10CreateTestEv
FN:457,_ZN7testing8internal15TestFactoryImplI35DequeTest_PushBackAndPushFront_TestE10CreateTestEv
FN:457,_ZN7testing8internal15TestFactoryImplI28DequeTest_IndexOperator_TestE10CreateTestEv
FN:457,_ZN7testing8internal15TestFactoryImplI30DequeTest_CopyConstructor_TestE10CreateTestEv
FN:457,_ZN7testing8internal15TestFactoryImplI29DequeTest_MoveAssignment_TestE10CreateTestEv
FN:478,_ZN7testing8internal12CodeLocationC2ERKNSt7__cxx1112basic_stringIcSt11char_traitsIcESaIcEEEi
FN:491,_ZN7testing8internal19GetNotDefaultOrNullEPFvvES2_
FN:506,_ZN7testing8internal16SuiteApiResolverI9DequeTestE19GetSetUpCaseOrSuiteEPKci
FN:527,_ZN7testing8internal16SuiteApiResolverI9DequeTestE22GetTearDownCaseOrSuiteEPKci
FN:843,_ZN7testing8internal14TrueWithStringC2Ev
FN:846,_ZNK7testing8internal14TrueWithStringcvbEv
FNDA:1,_ZN7testing8internal15TestFactoryImplI30DequeTest_AtOperatorValid_TestE10CreateTestEv
FNDA:1,_ZN7testing8internal15TestFactoryImplI29DequeTest_CopyAssignment_TestE10CreateTestEv
FNDA:0,_ZN7testing8internal15TestFactoryBaseD0Ev
FNDA:11,_ZN7testing8internal15TestFactoryBaseD2Ev
FNDA:1,_ZN7testing8internal15TestFactoryImplI33DequeTest_PopBackAndPopFront_TestE10CreateTestEv
FNDA:1,_ZN7testing8internal15TestFactoryImplI25DequeTest_ClearDeque_TestE10CreateTestEv
FNDA:1,_ZN7testing8internal15TestFactoryImplI30DequeTest_CopyConstructor_TestE10CreateTestEv
FNDA:1,_ZN7testing8internal15TestFactoryImplI29DequeTest_MoveAssignment_TestE10CreateTestEv
FNDA:11,_ZN7testing8internal9GetTypeIdI9DequeTestEEPKvv
FNDA:2,_ZN7testing8internal14TrueWithStringC2Ev
FNDA:1,_ZN7testing8internal15TestFactoryImplI35DequeTest_PushBackAndPushFront_TestE10CreateTestEv
FNDA:1,_ZN7testing8internal15TestFactoryImplI28DequeTest_IndexOperator_TestE10CreateTestEv
FNDA:11,_ZN7testing8internal12CodeLocationC2ERKNSt7__cxx1112basic_stringIcSt11char_traitsIcESaIcEEEi
FNDA:44,_ZN7testing8internal19GetNotDefaultOrNullEPFvvES2_
FNDA:2,_ZNK7testing8internal14TrueWithStringcvbEv
FNDA:1,_ZN7testing8internal15TestFactoryImplI30DequeTest_MoveConstructor_TestE10CreateTestEv
FNDA:11,_ZN7testing8internal16SuiteApiResolverI9DequeTestE19GetSetUpCaseOrSuiteEPKci
FNDA:11,_ZN7testing8internal16SuiteApiResolverI9DequeTestE22GetTearDownCaseOrSuiteEPKci
FNDA:1,_ZN7testing8internal15TestFactoryImplI28DequeTest_SizeAndAccess_TestE10CreateTestEv
FNDA:11,_ZN7testing8internal15TestFactoryBaseC2Ev
FNDA:1,_ZN7testing8internal15TestFactoryImplI35DequeTest_AtOperatorOutOfRange_TestE10CreateTestEv
FNF:21
FNH:20
DA:419,11
DA:424,11
DA:438,11
DA:445,11
DA:457,11
DA:478,11
DA:479,11
DA:491,44
DA:493,44
DA:506,11
DA:510,11
DA:512,11
DA:514,11
DA:517,0
DA:519,11
DA:527,11
DA:531,11
DA:533,11
DA:535,11
DA:538,0
DA:540,11
DA:843,2
DA:846,2
LF:23
LH:21
end_of_record
TN:
SF:/mnt/c/Users/Олеся/CLionProjects/deque/build/_deps/googletest-src/googletest/include/gtest/internal/gtest-port.h
FN:1042,_ZN7testing8internal8GTestLog9GetStreamEv
FNDA:0,_ZN7testing8internal8GTestLog9GetStreamEv
FNF:1
FNH:0
DA:1042,0
LF:1
LH:0
end_of_record
TN:
SF:/mnt/c/Users/Олеся/CLionProjects/deque/build/_deps/googletest-src/googletest/include/gtest/internal/gtest-type-util.h
FN:61,_ZN7testing8internal31CanonicalizeForStdLibVersioningENSt7__cxx1112basic_stringIcSt11char_traitsIcESaIcEEE
FN:91,_ZN7testing8internal11GetTypeNameB5cxx11ERKSt9type_info
FNDA:0,_ZN7testing8internal31CanonicalizeForStdLibVersioningENSt7__cxx1112basic_stringIcSt11char_traitsIcESaIcEEE
FNDA:0,_ZN7testing8internal11GetTypeNameB5cxx11ERKSt9type_info
FNF:2
FNH:0
DA:61,0
DA:63,0
DA:64,0
DA:65,0
DA:67,0
DA:75,0
DA:78,0
DA:79,0
DA:80,0
DA:83,0
DA:84,0
DA:86,0
DA:91,0
DA:92,0
DA:94,0
DA:100,0
DA:101,0
DA:102,0
DA:103,0
DA:121,0
LF:20
LH:0
end_of_record
TN:
SF:/mnt/c/Users/Олеся/CLionProjects/deque/include/deque.hpp
FN:13,_ZN5DequeIiEC2Ev
FN:19,_ZN5DequeIiEC2ESt16initializer_listIiE
FN:35,_ZNK5DequeIiEeqERK9ContainerIiE
FN:42,_ZNK5DequeIiEneERK9ContainerIiE
FN:47,_ZN5DequeIiEaSEOS0_
FN:53,_ZN5DequeIiEaSERKS0_
FN:59,_ZN5DequeIiEC2EOS0_
FN:62,_ZN5DequeIiEC2ERKS0_
FN:66,_ZN5DequeIiEixEm
FN:73,_ZN5DequeIiE2atEm
FNDA:11,_ZN5DequeIiEC2ESt16initializer_listIiE
FNDA:5,_ZN5DequeIiE2atEm
FNDA:0,_ZNK5DequeIiEneERK9ContainerIiE
FNDA:6,_ZN5DequeIiEixEm
FNDA:2,_ZNK5DequeIiEeqERK9ContainerIiE
FNDA:13,_ZN5DequeIiEC2Ev
FNDA:1,_ZN5DequeIiEC2ERKS0_
FNDA:12,_ZN5DequeIiEaSEOS0_
FNDA:1,_ZN5DequeIiEaSERKS0_
FNDA:1,_ZN5DequeIiEC2EOS0_
FNF:10
FNH:9
DA:13,13
DA:19,11
DA:35,2
DA:36,2
DA:37,2
DA:38,2
DA:42,0
DA:43,0
DA:47,12
DA:48,12
DA:49,12
DA:53,1
DA:54,1
DA:55,1
DA:59,1
DA:62,1
DA:66,6
DA:67,6
DA:68,6
DA:69,12
DA:73,5
DA:74,5
DA:75,2
DA:77,3
LF:24
LH:22
end_of_record
TN:
SF:/mnt/c/Users/Олеся/CLionProjects/deque/include/list.hpp
FN:20,_ZN9ContainerIiEC2Ev
FN:23,_ZN9ContainerIiED2Ev
FN:23,_ZN9ContainerIiED0Ev
FN:41,_ZN4ListIiE4NodeC2ERKiPS1_S4_
FN:43,_ZN4ListIiE4NodeC2EOiPS1_S3_
FN:59,_ZN4ListIiEC2Ev
FN:61,_ZN4ListIiEC2ERKS0_
FN:65,_ZN4ListIiEC2EOS0_
FN:72,_ZN4ListIiEC2ESt16initializer_listIiE
FN:76,_ZN4ListIiED2Ev
FN:76,_ZN4ListIiED0Ev
FN:78,_ZN4ListIiEaSERKS0_
FN:86,_ZN4ListIiEaSEOS0_
FN:98,_ZNK4ListIiE5emptyEv
FN:99,_ZNK4ListIiE4sizeEv
FN:100,_ZNK4ListIiE8max_sizeEv
FN:102,_ZN4ListIiE9push_backERKi
FN:110,_ZN4ListIiE9push_backEOi
FN:126,_ZN4ListIiE10push_frontEOi
FN:134,_ZN4ListIiE8pop_backEv
FN:144,_ZN4ListIiE9pop_frontEv
FN:154,_ZN4ListIiE5clearEv
FN:158,_ZN4ListIiE5frontEv
FN:168,_ZN4ListIiE4backEv
FN:186,_ZN4ListIiE8iteratorC2EPNS0_4NodeE
FN:188,_ZNK4ListIiE8iteratordeEv
FN:191,_ZN4ListIiE8iteratorppEv
FN:202,_ZN4ListIiE8iteratormmEv
FN:232,_ZN4ListIiE14const_iteratorC2EPKNS0_4NodeE
FN:234,_ZNK4ListIiE14const_iteratordeEv
FN:237,_ZN4ListIiE14const_iteratorppEv
FN:259,_ZeqRKN4ListIiE14const_iteratorES3_
FN:263,_ZneRKN4ListIiE14const_iteratorES3_
FN:271,_ZN4ListIiE5beginEv
FN:274,_ZNK4ListIiE5beginEv
FN:275,_ZNK4ListIiE3endEv
FN:327,_ZN4ListIiE4swapERS0_
FN:332,_ZNK4ListIiEeqERKS0_
FN:346,_ZNK4ListIiEeqERK9ContainerIiE
FN:363,_ZNK4ListIiEneERK9ContainerIiE
FNDA:40,_ZN4ListIiE9pop_frontEv
FNDA:2,_ZN4ListIiEC2ERKS0_
FNDA:0,_ZN4ListIiED0Ev
FNDA:11,_ZNK4ListIiE4sizeEv
FNDA:2,_ZNK4ListIiE3endEv
FNDA:39,_ZN4ListIiE4NodeC2ERKiPS1_S4_
FNDA:6,_ZN4ListIiE14const_iteratorppEv
FNDA:0,_ZNK4ListIiE8max_sizeEv
FNDA:4,_ZN4ListIiE14const_iteratorC2EPKNS0_4NodeE
FNDA:1,_ZN4ListIiE8pop_backEv
FNDA:3,_ZN4ListIiE5frontEv
FNDA:6,_ZN4ListIiE8iteratorC2EPNS0_4NodeE
FNDA:6,_ZN4ListIiE8iteratorppEv
FNDA:1,_ZN4ListIiE9push_backEOi
FNDA:1,_ZN4ListIiEC2EOS0_
FNDA:2,_ZN4ListIiE4NodeC2EOiPS1_S3_
FNDA:39,_ZN4ListIiE9push_backERKi
FNDA:26,_ZN4ListIiEC2Ev
FNDA:0,_ZNK4ListIiEneERK9ContainerIiE
FNDA:6,_ZN4ListIiE5beginEv
FNDA:40,_ZN4ListIiE5clearEv
FNDA:2,_ZNK4ListIiEeqERKS0_
FNDA:11,_ZN4ListIiEC2ESt16initializer_listIiE
FNDA:12,_ZN4ListIiEaSEOS0_
FNDA:6,_ZNK4ListIiE8iteratordeEv
FNDA:1,_ZN4ListIiE4swapERS0_
FNDA:27,_ZN9ContainerIiED2Ev
FNDA:8,_ZeqRKN4ListIiE14const_iteratorES3_
FNDA:0,_ZN4ListIiE8iteratormmEv
FNDA:2,_ZNK4ListIiE5beginEv
FNDA:27,_ZN4ListIiED2Ev
FNDA:82,_ZNK4ListIiE5emptyEv
FNDA:27,_ZN9ContainerIiEC2Ev
FNDA:6,_ZNK4ListIiE14const_iteratordeEv
FNDA:8,_ZneRKN4ListIiE14const_iteratorES3_
FNDA:1,_ZN4ListIiEaSERKS0_
FNDA:0,_ZNK4ListIiEeqERK9ContainerIiE
FNDA:1,_ZN4ListIiE10push_frontEOi
FNDA:0,_ZN9ContainerIiED0Ev
FNDA:2,_ZN4ListIiE4backEv
FNF:40
FNH:34
DA:20,27
DA:23,27
DA:41,39
DA:42,39
DA:43,2
DA:44,2
DA:59,26
DA:61,2
DA:62,8
DA:63,2
DA:65,1
DA:66,1
DA:67,1
DA:68,1
DA:69,1
DA:70,1
DA:72,11
DA:73,44
DA:74,11
DA:76,27
DA:78,1
DA:79,1
DA:80,1
DA:81,1
DA:82,1
DA:83,1
DA:86,12
DA:87,12
DA:88,12
DA:89,12
DA:90,12
DA:91,12
DA:92,12
DA:93,12
DA:95,12
DA:98,82
DA:99,11
DA:100,0
DA:102,39
DA:103,39
DA:104,39
DA:105,13
DA:106,39
DA:107,39
DA:108,39
DA:110,1
DA:111,1
DA:112,1
DA:113,0
DA:114,1
DA:115,1
DA:116,1
DA:126,1
DA:127,1
DA:128,1
DA:129,0
DA:130,1
DA:131,1
DA:132,1
DA:134,1
DA:135,1
DA:136,1
DA:137,1
DA:138,1
DA:139,0
DA:140,1
DA:141,1
DA:144,40
DA:145,40
DA:146,40
DA:147,40
DA:148,40
DA:149,13
DA:150,40
DA:151,40
DA:154,40
DA:155,79
DA:156,40
DA:158,3
DA:159,3
DA:160,3
DA:168,2
DA:169,2
DA:170,2
DA:186,6
DA:188,6
DA:191,6
DA:192,6
DA:193,6
DA:202,0
DA:203,0
DA:204,0
DA:232,4
DA:234,6
DA:237,6
DA:238,6
DA:239,6
DA:259,8
DA:260,8
DA:263,8
DA:264,8
DA:271,6
DA:274,2
DA:275,2
DA:327,1
DA:328,1
DA:329,1
DA:330,1
DA:331,1
DA:332,2
DA:333,2
DA:335,2
DA:336,2
DA:338,8
DA:339,6
DA:340,6
DA:341,6
DA:343,2
DA:346,0
DA:347,0
DA:348,0
DA:349,0
DA:363,0
DA:364,0
LF:124
LH:111
end_of_record
TN:
SF:/mnt/c/Users/Олеся/CLionProjects/deque/tests/tests.cpp
FN:12,_ZN9DequeTest5SetUpEv
FN:17,_ZN28DequeTest_SizeAndAccess_Test8TestBodyEv
FN:17,_ZN28DequeTest_SizeAndAccess_TestC2Ev
FN:17,_ZN28DequeTest_SizeAndAccess_TestD2Ev
FN:17,_ZN28DequeTest_SizeAndAccess_TestD0Ev
FN:23,_ZN30DequeTest_AtOperatorValid_TestD0Ev
FN:23,_ZN30DequeTest_AtOperatorValid_Test8TestBodyEv
FN:23,_ZN30DequeTest_AtOperatorValid_TestC2Ev
FN:23,_ZN30DequeTest_AtOperatorValid_TestD2Ev
FN:29,_ZN35DequeTest_AtOperatorOutOfRange_Test8TestBodyEv
FN:29,_ZN35DequeTest_AtOperatorOutOfRange_TestD0Ev
FN:29,_ZN35DequeTest_AtOperatorOutOfRange_TestC2Ev
FN:29,_ZN35DequeTest_AtOperatorOutOfRange_TestD2Ev
FN:34,_ZN28DequeTest_IndexOperator_Test8TestBodyEv
FN:34,_ZN28DequeTest_IndexOperator_TestC2Ev
FN:34,_ZN28DequeTest_IndexOperator_TestD2Ev
FN:34,_ZN28DequeTest_IndexOperator_TestD0Ev
FN:40,_ZN35DequeTest_PushBackAndPushFront_TestD2Ev
FN:40,_ZN35DequeTest_PushBackAndPushFront_TestC2Ev
FN:40,_ZN35DequeTest_PushBackAndPushFront_Test8TestBodyEv
FN:40,_ZN35DequeTest_PushBackAndPushFront_TestD0Ev
FN:48,_ZN33DequeTest_PopBackAndPopFront_TestC2Ev
FN:48,_ZN33DequeTest_PopBackAndPopFront_TestD0Ev
FN:48,_ZN33DequeTest_PopBackAndPopFront_Test8TestBodyEv
FN:48,_ZN33DequeTest_PopBackAndPopFront_TestD2Ev
FN:55,_ZN25DequeTest_ClearDeque_TestD2Ev
FN:55,_ZN25DequeTest_ClearDeque_TestD0Ev
FN:55,_ZN25DequeTest_ClearDeque_TestC2Ev
FN:55,_ZN25DequeTest_ClearDeque_Test8TestBodyEv
FN:61,_ZN30DequeTest_CopyConstructor_TestD2Ev
FN:61,_ZN30DequeTest_CopyConstructor_Test8TestBodyEv
FN:61,_ZN30DequeTest_CopyConstructor_TestC2Ev
FN:61,_ZN30DequeTest_CopyConstructor_TestD0Ev
FN:66,_ZN30DequeTest_MoveConstructor_TestD2Ev
FN:66,_ZN30DequeTest_MoveConstructor_TestC2Ev
FN:66,_ZN30DequeTest_MoveConstructor_Test8TestBodyEv
FN:66,_ZN30DequeTest_MoveConstructor_TestD0Ev
FN:72,_ZN29DequeTest_CopyAssignment_TestD0Ev
FN:72,_ZN29DequeTest_CopyAssignment_TestC2Ev
FN:72,_ZN29DequeTest_CopyAssignment_TestD2Ev
FN:72,_ZN29DequeTest_CopyAssignment_Test8TestBodyEv
FN:78,_ZN29DequeTest_MoveAssignment_TestD2Ev
FN:78,_ZN29DequeTest_MoveAssignment_Test8TestBodyEv
FN:78,_ZN29DequeTest_MoveAssignment_TestD0Ev
FN:78,_ZN29DequeTest_MoveAssignment_TestC2Ev
FNDA:1,_ZN30DequeTest_MoveConstructor_TestD0Ev
FNDA:1,_ZN25DequeTest_ClearDeque_Test8TestBodyEv
FNDA:1,_ZN29DequeTest_CopyAssignment_TestD2Ev
FNDA:1,_ZN29DequeTest_MoveAssignment_TestD0Ev
FNDA:1,_ZN35DequeTest_PushBackAndPushFront_Test8TestBodyEv
FNDA:1,_ZN35DequeTest_AtOperatorOutOfRange_TestD2Ev
FNDA:1,_ZN30DequeTest_AtOperatorValid_TestD2Ev
FNDA:1,_ZN30DequeTest_CopyConstructor_TestD0Ev
FNDA:1,_ZN29DequeTest_MoveAssignment_TestC2Ev
FNDA:1,_ZN28DequeTest_IndexOperator_TestD0Ev
FNDA:1,_ZN35DequeTest_PushBackAndPushFront_TestD0Ev
FNDA:1,_ZN33DequeTest_PopBackAndPopFront_TestD2Ev
FNDA:1,_ZN28DequeTest_SizeAndAccess_TestD0Ev
FNDA:1,_ZN29DequeTest_CopyAssignment_Test8TestBodyEv
FNDA:1,_ZN28DequeTest_IndexOperator_TestD2Ev
FNDA:1,_ZN29DequeTest_MoveAssignment_TestD2Ev
FNDA:1,_ZN28DequeTest_SizeAndAccess_TestD2Ev
FNDA:1,_ZN25DequeTest_ClearDeque_TestD0Ev
FNDA:1,_ZN25DequeTest_ClearDeque_TestC2Ev
FNDA:1,_ZN35DequeTest_AtOperatorOutOfRange_TestD0Ev
FNDA:1,_ZN29DequeTest_MoveAssignment_Test8TestBodyEv
FNDA:1,_ZN30DequeTest_CopyConstructor_TestC2Ev
FNDA:1,_ZN30DequeTest_AtOperatorValid_Test8TestBodyEv
FNDA:1,_ZN30DequeTest_AtOperatorValid_TestC2Ev
FNDA:1,_ZN35DequeTest_AtOperatorOutOfRange_TestC2Ev
FNDA:1,_ZN25DequeTest_ClearDeque_TestD2Ev
FNDA:1,_ZN30DequeTest_MoveConstructor_Test8TestBodyEv
FNDA:1,_ZN29DequeTest_CopyAssignment_TestC2Ev
FNDA:1,_ZN30DequeTest_CopyConstructor_TestD2Ev
FNDA:1,_ZN33DequeTest_PopBackAndPopFront_TestD0Ev
FNDA:1,_ZN33DequeTest_PopBackAndPopFront_Test8TestBodyEv
FNDA:1,_ZN35DequeTest_PushBackAndPushFront_TestD2Ev
FNDA:1,_ZN35DequeTest_PushBackAndPushFront_TestC2Ev
FNDA:1,_ZN30DequeTest_CopyConstructor_Test8TestBodyEv
FNDA:1,_ZN30DequeTest_MoveConstructor_TestD2Ev
FNDA:1,_ZN28DequeTest_IndexOperator_Test8TestBodyEv
FNDA:1,_ZN28DequeTest_IndexOperator_TestC2Ev
FNDA:1,_ZN28DequeTest_SizeAndAccess_Test8TestBodyEv
FNDA:1,_ZN29DequeTest_CopyAssignment_TestD0Ev
FNDA:11,_ZN9DequeTest5SetUpEv
FNDA:1,_ZN35DequeTest_AtOperatorOutOfRange_Test8TestBodyEv
FNDA:1,_ZN30DequeTest_AtOperatorValid_TestD0Ev
FNDA:1,_ZN30DequeTest_MoveConstructor_TestC2Ev
FNDA:1,_ZN33DequeTest_PopBackAndPopFront_TestC2Ev
FNDA:1,_ZN28DequeTest_SizeAndAccess_TestC2Ev
FNF:45
FNH:45
DA:12,11
DA:13,11
DA:14,11
DA:17,4
DA:18,1
DA:19,1
DA:20,1
DA:21,1
DA:23,4
DA:24,1
DA:25,1
DA:26,1
DA:27,1
DA:29,4
DA:30,1
DA:31,1
DA:32,1
DA:34,4
DA:35,1
DA:36,1
DA:37,1
DA:38,1
DA:40,4
DA:41,1
DA:42,1
DA:43,1
DA:44,1
DA:45,1
DA:46,1
DA:48,4
DA:49,1
DA:50,1
DA:51,1
DA:52,1
DA:53,1
DA:55,4
DA:56,1
DA:57,1
DA:58,1
DA:59,1
DA:61,4
DA:62,1
DA:63,1
DA:64,1
DA:66,4
DA:67,1
DA:68,1
DA:69,1
DA:70,1
DA:72,4
DA:73,1
DA:74,1
DA:75,1
DA:76,1
DA:78,4
DA:79,1
DA:80,1
DA:81,1
DA:82,1
DA:83,1
LF:60
LH:60
end_of_record
TN:
SF:/usr/include/c++/11/bits/alloc_traits.h
FN:463,_ZNSt16allocator_traitsISaIcEE8allocateERS0_m
FN:495,_ZNSt16allocator_traitsISaIcEE10deallocateERS0_Pcm
FN:547,_ZNSt16allocator_traitsISaIcEE8max_sizeERKS0_
FN:562,_ZNSt16allocator_traitsISaIcEE37select_on_container_copy_constructionERKS0_
FNDA:140,_ZNSt16allocator_traitsISaIcEE10deallocateERS0_Pcm
FNDA:93,_ZNSt16allocator_traitsISaIcEE37select_on_container_copy_constructionERKS0_
FNDA:140,_ZNSt16allocator_traitsISaIcEE8allocateERS0_m
FNDA:215,_ZNSt16allocator_traitsISaIcEE8max_sizeERKS0_
FNF:4
FNH:4
DA:463,140
DA:464,140
DA:495,140
DA:496,140
DA:547,215
DA:552,215
DA:562,93
DA:563,93
LF:8
LH:8
end_of_record
TN:
SF:/usr/include/c++/11/bits/allocator.h
FNF:0
FNH:0
DA:182,140
DA:183,0
DA:185,140
DA:193,140
DA:195,0
DA:196,0
DA:199,140
LF:7
LH:4
end_of_record
TN:
SF:/usr/include/c++/11/bits/basic_string.h
FN:164,_ZNSt7__cxx1112basic_stringIcSt11char_traitsIcESaIcEE12_Alloc_hiderC2EPcRKS3_
FN:167,_ZNSt7__cxx1112basic_stringIcSt11char_traitsIcESaIcEE12_Alloc_hiderC2EPcOS3_
FN:186,_ZNSt7__cxx1112basic_stringIcSt11char_traitsIcESaIcEE7_M_dataEPc
FN:190,_ZNSt7__cxx1112basic_stringIcSt11char_traitsIcESaIcEE9_M_lengthEm
FN:194,_ZNKSt7__cxx1112basic_stringIcSt11char_traitsIcESaIcEE7_M_dataEv
FN:198,_ZNSt7__cxx1112basic_stringIcSt11char_traitsIcESaIcEE13_M_local_dataEv
FN:208,_ZNKSt7__cxx1112basic_stringIcSt11char_traitsIcESaIcEE13_M_local_dataEv
FN:218,_ZNSt7__cxx1112basic_stringIcSt11char_traitsIcESaIcEE11_M_capacityEm
FN:222,_ZNSt7__cxx1112basic_stringIcSt11char_traitsIcESaIcEE13_M_set_lengthEm
FN:229,_ZNKSt7__cxx1112basic_stringIcSt11char_traitsIcESaIcEE11_M_is_localEv
FN:237,_ZNSt7__cxx1112basic_stringIcSt11char_traitsIcESaIcEE10_M_disposeEv
FN:244,_ZNSt7__cxx1112basic_stringIcSt11char_traitsIcESaIcEE10_M_destroyEm
FN:251,_ZNSt7__cxx1112basic_stringIcSt11char_traitsIcESaIcEE16_M_construct_auxIPcEEvT_S7_St12__false_type
FN:271,_ZNSt7__cxx1112basic_stringIcSt11char_traitsIcESaIcEE12_M_constructIPcEEvT_S7_
FN:294,_ZNSt7__cxx1112basic_stringIcSt11char_traitsIcESaIcEE16_M_get_allocatorEv
FN:298,_ZNKSt7__cxx1112basic_stringIcSt11char_traitsIcESaIcEE16_M_get_allocatorEv
FN:318,_ZNKSt7__cxx1112basic_stringIcSt11char_traitsIcESaIcEE8_M_checkEmPKc
FN:328,_ZNKSt7__cxx1112basic_stringIcSt11char_traitsIcESaIcEE15_M_check_lengthEmmPKc
FN:337,_ZNKSt7__cxx1112basic_stringIcSt11char_traitsIcESaIcEE8_M_limitEmm
FN:345,_ZNKSt7__cxx1112basic_stringIcSt11char_traitsIcESaIcEE11_M_disjunctEPKc
FN:354,_ZNSt7__cxx1112basic_stringIcSt11char_traitsIcESaIcEE7_S_copyEPcPKcm
FN:363,_ZNSt7__cxx1112basic_stringIcSt11char_traitsIcESaIcEE7_S_moveEPcPKcm
FN:400,_ZNSt7__cxx1112basic_stringIcSt11char_traitsIcESaIcEE13_S_copy_charsEPcS5_S5_
FN:404,_ZNSt7__cxx1112basic_stringIcSt11char_traitsIcESaIcEE13_S_copy_charsEPcPKcS7_
FN:409,_ZNSt7__cxx1112basic_stringIcSt11char_traitsIcESaIcEE10_S_compareEmm
FN:439,_ZNSt7__cxx1112basic_stringIcSt11char_traitsIcESaIcEEC2Ev
FN:456,_ZNSt7__cxx1112basic_stringIcSt11char_traitsIcESaIcEEC2ERKS4_
FN:533,_ZNSt7__cxx1112basic_stringIcSt11char_traitsIcESaIcEEC2IS3_EEPKcRKS3_
FN:565,_ZNSt7__cxx1112basic_stringIcSt11char_traitsIcESaIcEEC2EOS4_
FN:671,_ZNSt7__cxx1112basic_stringIcSt11char_traitsIcESaIcEED2Ev
FN:689,_ZNSt7__cxx1112basic_stringIcSt11char_traitsIcESaIcEEaSEPKc
FN:920,_ZNKSt7__cxx1112basic_stringIcSt11char_traitsIcESaIcEE4sizeEv
FN:926,_ZNKSt7__cxx1112basic_stringIcSt11char_traitsIcESaIcEE6lengthEv
FN:931,_ZNKSt7__cxx1112basic_stringIcSt11char_traitsIcESaIcEE8max_sizeEv
FN:976,_ZNKSt7__cxx1112basic_stringIcSt11char_traitsIcESaIcEE8capacityEv
FN:1160,_ZNSt7__cxx1112basic_stringIcSt11char_traitsIcESaIcEEpLERKS4_
FN:1169,_ZNSt7__cxx1112basic_stringIcSt11char_traitsIcESaIcEEpLEPKc
FN:1213,_ZNSt7__cxx1112basic_stringIcSt11char_traitsIcESaIcEE6appendERKS4_
FN:1255,_ZNSt7__cxx1112basic_stringIcSt11char_traitsIcESaIcEE6appendEPKc
FN:1456,_ZNSt7__cxx1112basic_stringIcSt11char_traitsIcESaIcEE6assignEPKc
FN:1827,_ZNSt7__cxx1112basic_stringIcSt11char_traitsIcESaIcEE5eraseEmm
FN:1956,_ZNSt7__cxx1112basic_stringIcSt11char_traitsIcESaIcEE7replaceEmmPKcm
FN:1981,_ZNSt7__cxx1112basic_stringIcSt11char_traitsIcESaIcEE7replaceEmmPKc
FN:2320,_ZNKSt7__cxx1112basic_stringIcSt11char_traitsIcESaIcEE5c_strEv
FN:2332,_ZNKSt7__cxx1112basic_stringIcSt11char_traitsIcESaIcEE4dataEv
FN:2413,_ZNKSt7__cxx1112basic_stringIcSt11char_traitsIcESaIcEE4findEPKcm
FNDA:45,_ZNKSt7__cxx1112basic_stringIcSt11char_traitsIcESaIcEE4dataEv
FNDA:0,_ZNSt7__cxx1112basic_stringIcSt11char_traitsIcESaIcEE7_S_moveEPcPKcm
FNDA:91,_ZNSt7__cxx1112basic_stringIcSt11char_traitsIcESaIcEE13_S_copy_charsEPcPKcS7_
FNDA:6,_ZNKSt7__cxx1112basic_stringIcSt11char_traitsIcESaIcEE8_M_limitEmm
FNDA:0,_ZNSt7__cxx1112basic_stringIcSt11char_traitsIcESaIcEE7replaceEmmPKcm
FNDA:0,_ZNSt7__cxx1112basic_stringIcSt11char_traitsIcESaIcEE7replaceEmmPKc
FNDA:179,_ZNSt7__cxx1112basic_stringIcSt11char_traitsIcESaIcEE11_M_capacityEm
FNDA:0,_ZNSt7__cxx1112basic_stringIcSt11char_traitsIcESaIcEE5eraseEmm
FNDA:93,_ZNSt7__cxx1112basic_stringIcSt11char_traitsIcESaIcEE13_S_copy_charsEPcS5_S5_
FNDA:441,_ZNSt7__cxx1112basic_stringIcSt11char_traitsIcESaIcEED2Ev
FNDA:0,_ZNSt7__cxx1112basic_stringIcSt11char_traitsIcESaIcEEaSEPKc
FNDA:85,_ZNSt7__cxx1112basic_stringIcSt11char_traitsIcESaIcEE12_Alloc_hiderC2EPcRKS3_
FNDA:93,_ZNSt7__cxx1112basic_stringIcSt11char_traitsIcESaIcEE16_M_construct_auxIPcEEvT_S7_St12__false_type
FNDA:6094,_ZNKSt7__cxx1112basic_stringIcSt11char_traitsIcESaIcEE7_M_dataEv
FNDA:523,_ZNSt7__cxx1112basic_stringIcSt11char_traitsIcESaIcEE10_M_disposeEv
FNDA:852,_ZNKSt7__cxx1112basic_stringIcSt11char_traitsIcESaIcEE5c_strEv
FNDA:1299,_ZNKSt7__cxx1112basic_stringIcSt11char_traitsIcESaIcEE4sizeEv
FNDA:979,_ZNKSt7__cxx1112basic_stringIcSt11char_traitsIcESaIcEE6lengthEv
FNDA:133,_ZNSt7__cxx1112basic_stringIcSt11char_traitsIcESaIcEEC2Ev
FNDA:0,_ZNSt7__cxx1112basic_stringIcSt11char_traitsIcESaIcEE6assignEPKc
FNDA:1843,_ZNKSt7__cxx1112basic_stringIcSt11char_traitsIcESaIcEE13_M_local_dataEv
FNDA:1843,_ZNKSt7__cxx1112basic_stringIcSt11char_traitsIcESaIcEE11_M_is_localEv
FNDA:308,_ZNKSt7__cxx1112basic_stringIcSt11char_traitsIcESaIcEE16_M_get_allocatorEv
FNDA:93,_ZNSt7__cxx1112basic_stringIcSt11char_traitsIcESaIcEEC2ERKS4_
FNDA:25,_ZNSt7__cxx1112basic_stringIcSt11char_traitsIcESaIcEE6appendEPKc
FNDA:293,_ZNSt7__cxx1112basic_stringIcSt11char_traitsIcESaIcEE12_Alloc_hiderC2EPcOS3_
FNDA:1598,_ZNSt7__cxx1112basic_stringIcSt11char_traitsIcESaIcEE9_M_lengthEm
FNDA:0,_ZNKSt7__cxx1112basic_stringIcSt11char_traitsIcESaIcEE4findEPKcm
FNDA:11,_ZNSt7__cxx1112basic_stringIcSt11char_traitsIcESaIcEE6appendERKS4_
FNDA:0,_ZNSt7__cxx1112basic_stringIcSt11char_traitsIcESaIcEEpLERKS4_
FNDA:61,_ZNSt7__cxx1112basic_stringIcSt11char_traitsIcESaIcEEC2EOS4_
FNDA:395,_ZNSt7__cxx1112basic_stringIcSt11char_traitsIcESaIcEE7_S_copyEPcPKcm
FNDA:1205,_ZNKSt7__cxx1112basic_stringIcSt11char_traitsIcESaIcEE8capacityEv
FNDA:12,_ZNKSt7__cxx1112basic_stringIcSt11char_traitsIcESaIcEE8_M_checkEmPKc
FNDA:2,_ZNSt7__cxx1112basic_stringIcSt11char_traitsIcESaIcEE10_S_compareEmm
FNDA:52,_ZNKSt7__cxx1112basic_stringIcSt11char_traitsIcESaIcEE15_M_check_lengthEmmPKc
FNDA:439,_ZNSt7__cxx1112basic_stringIcSt11char_traitsIcESaIcEE13_M_local_dataEv
FNDA:267,_ZNSt7__cxx1112basic_stringIcSt11char_traitsIcESaIcEE7_M_dataEPc
FNDA:395,_ZNSt7__cxx1112basic_stringIcSt11char_traitsIcESaIcEE16_M_get_allocatorEv
FNDA:74,_ZNSt7__cxx1112basic_stringIcSt11char_traitsIcESaIcEEC2IS3_EEPKcRKS3_
FNDA:1483,_ZNSt7__cxx1112basic_stringIcSt11char_traitsIcESaIcEE13_M_set_lengthEm
FNDA:27,_ZNKSt7__cxx1112basic_stringIcSt11char_traitsIcESaIcEE11_M_disjunctEPKc
FNDA:93,_ZNSt7__cxx1112basic_stringIcSt11char_traitsIcESaIcEE12_M_constructIPcEEvT_S7_
FNDA:215,_ZNKSt7__cxx1112basic_stringIcSt11char_traitsIcESaIcEE8max_sizeEv
FNDA:0,_ZNSt7__cxx1112basic_stringIcSt11char_traitsIcESaIcEEpLEPKc
FNDA:140,_ZNSt7__cxx1112basic_stringIcSt11char_traitsIcESaIcEE10_M_destroyEm
FNF:46
FNH:37
DA:164,85
DA:165,85
DA:167,293
DA:168,293
DA:186,267
DA:187,267
DA:190,1598
DA:191,1598
DA:194,6094
DA:195,6094
DA:198,439
DA:201,439
DA:208,1843
DA:211,1843
DA:218,179
DA:219,179
DA:222,1483
DA:224,1483
DA:225,1483
DA:226,1483
DA:229,1843
DA:230,1843
DA:237,523
DA:239,523
DA:240,140
DA:241,523
DA:244,140
DA:245,140
DA:251,93
DA:255,93
DA:256,93
DA:271,93
DA:274,93
DA:275,93
DA:294,395
DA:295,395
DA:298,308
DA:299,308
DA:318,12
DA:320,12
DA:321,0
DA:324,12
DA:328,52
DA:330,52
DA:331,0
DA:332,52
DA:337,6
DA:339,6
DA:340,6
DA:345,27
DA:347,27
DA:348,27
DA:354,395
DA:356,395
DA:357,114
DA:359,281
DA:360,395
DA:363,0
DA:365,0
DA:366,0
DA:368,0
DA:369,0
DA:400,93
DA:401,93
DA:404,91
DA:406,91
DA:409,2
DA:411,2
DA:413,2
DA:414,0
DA:415,2
DA:416,0
DA:418,2
DA:439,133
DA:441,133
DA:442,133
DA:456,93
DA:457,93
DA:458,93
DA:459,93
DA:533,74
DA:534,74
DA:536,74
DA:539,74
DA:540,74
DA:565,61
DA:566,61
DA:568,61
DA:570,49
DA:575,12
DA:576,12
DA:582,61
DA:583,61
DA:584,61
DA:585,61
DA:671,441
DA:672,441
DA:689,0
DA:690,0
DA:920,1299
DA:921,1299
DA:926,979
DA:927,979
DA:931,215
DA:932,215
DA:976,1205
DA:978,1205
DA:979,1205
DA:1160,0
DA:1161,0
DA:1169,0
DA:1170,0
DA:1213,11
DA:1214,11
DA:1255,25
DA:1258,25
DA:1259,25
DA:1260,25
DA:1456,0
DA:1459,0
DA:1460,0
DA:1827,0
DA:1829,0
DA:1830,0
DA:1831,0
DA:1832,0
DA:1833,0
DA:1834,0
DA:1956,0
DA:1960,0
DA:1961,0
DA:1981,0
DA:1984,0
DA:2320,852
DA:2321,852
DA:2332,45
DA:2333,45
DA:2413,0
DA:2416,0
LF:139
LH:107
end_of_record
TN:
SF:/usr/include/c++/11/bits/basic_string.tcc
FN:132,_ZNSt7__cxx1112basic_stringIcSt11char_traitsIcESaIcEE9_M_createERmm
FN:206,_ZNSt7__cxx1112basic_stringIcSt11char_traitsIcESaIcEE12_M_constructIPcEEvT_S7_St20forward_iterator_tag
FN:206,_ZNSt7__cxx1112basic_stringIcSt11char_traitsIcESaIcEE12_M_constructIPKcEEvT_S8_St20forward_iterator_tag
FN:300,_ZNSt7__cxx1112basic_stringIcSt11char_traitsIcESaIcEE9_M_mutateEmmPKcm
FN:324,_ZNSt7__cxx1112basic_stringIcSt11char_traitsIcESaIcEE8_M_eraseEmm
FN:384,_ZNSt7__cxx1112basic_stringIcSt11char_traitsIcESaIcEE9_M_appendEPKcm
FN:448,_ZNSt7__cxx1112basic_stringIcSt11char_traitsIcESaIcEE10_M_replaceEmmPKcm
FN:1207,_ZNKSt7__cxx1112basic_stringIcSt11char_traitsIcESaIcEE4findEPKcmm
FN:1452,_ZNKSt7__cxx1112basic_stringIcSt11char_traitsIcESaIcEE7compareEmmPKc
FNDA:11,_ZNSt7__cxx1112basic_stringIcSt11char_traitsIcESaIcEE9_M_mutateEmmPKcm
FNDA:0,_ZNKSt7__cxx1112basic_stringIcSt11char_traitsIcESaIcEE4findEPKcmm
FNDA:93,_ZNSt7__cxx1112basic_stringIcSt11char_traitsIcESaIcEE12_M_constructIPcEEvT_S7_St20forward_iterator_tag
FNDA:140,_ZNSt7__cxx1112basic_stringIcSt11char_traitsIcESaIcEE9_M_createERmm
FNDA:27,_ZNSt7__cxx1112basic_stringIcSt11char_traitsIcESaIcEE10_M_replaceEmmPKcm
FNDA:0,_ZNKSt7__cxx1112basic_stringIcSt11char_traitsIcESaIcEE7compareEmmPKc
FNDA:36,_ZNSt7__cxx1112basic_stringIcSt11char_traitsIcESaIcEE9_M_appendEPKcm
FNDA:80,_ZNSt7__cxx1112basic_stringIcSt11char_traitsIcESaIcEE12_M_constructIPKcEEvT_S8_St20forward_iterator_tag
FNDA:0,_ZNSt7__cxx1112basic_stringIcSt11char_traitsIcESaIcEE8_M_eraseEmm
FNF:9
FNH:6
DA:132,140
DA:137,140
DA:138,0
DA:143,140
DA:145,23
DA:147,23
DA:148,0
DA:153,140
DA:206,173
DA:211,173
DA:212,0
DA:215,173
DA:217,173
DA:219,55
DA:220,55
DA:225,173
DA:232,173
DA:233,173
DA:300,11
DA:304,11
DA:306,11
DA:307,11
DA:309,11
DA:310,11
DA:311,11
DA:312,11
DA:313,11
DA:314,0
DA:315,0
DA:317,11
DA:318,11
DA:319,11
DA:320,11
DA:324,0
DA:327,0
DA:329,0
DA:330,0
DA:332,0
DA:333,0
DA:384,36
DA:387,36
DA:389,36
DA:391,25
DA:392,25
DA:395,11
DA:397,36
DA:398,36
DA:448,27
DA:452,27
DA:454,27
DA:455,27
DA:457,27
DA:459,27
DA:461,27
DA:462,27
DA:464,27
DA:465,0
DA:466,27
DA:467,27
DA:472,0
DA:473,0
DA:474,0
DA:475,0
DA:476,0
DA:478,0
DA:479,0
DA:480,0
DA:484,0
DA:485,0
DA:489,0
DA:490,0
DA:491,0
DA:498,0
DA:500,27
DA:501,27
DA:1207,0
DA:1212,0
DA:1214,0
DA:1215,0
DA:1216,0
DA:1217,0
DA:1219,0
DA:1220,0
DA:1221,0
DA:1222,0
DA:1223,0
DA:1225,0
DA:1228,0
DA:1229,0
DA:1230,0
DA:1234,0
DA:1235,0
DA:1236,0
DA:1238,0
DA:1452,0
DA:1456,0
DA:1457,0
DA:1458,0
DA:1459,0
DA:1460,0
DA:1461,0
DA:1462,0
DA:1463,0
LF:103
LH:49
end_of_record
TN:
SF:/usr/include/c++/11/bits/char_traits.h
FN:106,_ZN9__gnu_cxx11char_traitsIcE2eqERKcS3_
FN:167,_ZN9__gnu_cxx11char_traitsIcE6lengthEPKc
FN:178,_ZN9__gnu_cxx11char_traitsIcE4findEPKcmRS2_
FN:190,_ZN9__gnu_cxx11char_traitsIcE4moveEPcPKcm
FN:240,_ZN9__gnu_cxx11char_traitsIcE4copyEPcPKcm
FN:356,_ZNSt11char_traitsIcE6assignERcRKc
FN:364,_ZNSt11char_traitsIcE2ltERKcS2_
FN:372,_ZNSt11char_traitsIcE7compareEPKcS2_m
FN:393,_ZNSt11char_traitsIcE6lengthEPKc
FN:403,_ZNSt11char_traitsIcE4findEPKcmRS1_
FN:417,_ZNSt11char_traitsIcE4moveEPcPKcm
FN:429,_ZNSt11char_traitsIcE4copyEPcPKcm
FNDA:0,_ZNSt11char_traitsIcE4moveEPcPKcm
FNDA:357,_ZNSt11char_traitsIcE4copyEPcPKcm
FNDA:2,_ZNSt11char_traitsIcE7compareEPKcS2_m
FNDA:0,_ZN9__gnu_cxx11char_traitsIcE6lengthEPKc
FNDA:0,_ZN9__gnu_cxx11char_traitsIcE2eqERKcS3_
FNDA:0,_ZN9__gnu_cxx11char_traitsIcE4copyEPcPKcm
FNDA:0,_ZN9__gnu_cxx11char_traitsIcE4moveEPcPKcm
FNDA:2505,_ZNSt11char_traitsIcE6assignERcRKc
FNDA:6,_ZNSt11char_traitsIcE4findEPKcmRS1_
FNDA:0,_ZNSt11char_traitsIcE2ltERKcS2_
FNDA:101,_ZNSt11char_traitsIcE6lengthEPKc
FNDA:0,_ZN9__gnu_cxx11char_traitsIcE4findEPKcmRS2_
FNF:12
FNH:5
DA:106,0
DA:107,0
DA:167,0
DA:170,0
DA:171,0
DA:172,0
DA:173,0
DA:178,0
DA:181,0
DA:182,0
DA:183,0
DA:184,0
DA:190,0
DA:193,0
DA:194,0
DA:196,0
DA:198,0
DA:199,0
DA:203,0
DA:204,0
DA:205,0
DA:206,0
DA:230,0
DA:233,0
DA:234,0
DA:240,0
DA:244,0
DA:245,0
DA:290,101
DA:356,2505
DA:357,2505
DA:364,0
DA:367,0
DA:368,0
DA:372,2
DA:374,2
DA:375,2
DA:377,0
DA:379,0
DA:381,0
DA:382,0
DA:383,0
DA:384,0
DA:385,0
DA:386,0
DA:389,0
DA:393,101
DA:396,101
DA:397,0
DA:399,101
DA:403,6
DA:405,6
DA:406,0
DA:408,6
DA:410,6
DA:411,0
DA:413,6
DA:417,0
DA:419,0
DA:420,0
DA:422,0
DA:423,0
DA:425,0
DA:429,357
DA:431,357
DA:432,9
DA:434,348
DA:435,0
DA:437,348
LF:69
LH:19
end_of_record
TN:
SF:/usr/include/c++/11/bits/cpp_type_traits.h
FN:560,_ZSt12__miter_baseIPKcET_S2_
FNDA:0,_ZSt12__miter_baseIPKcET_S2_
FNF:1
FNH:0
DA:560,0
DA:561,0
LF:2
LH:0
end_of_record
TN:
SF:/usr/include/c++/11/bits/move.h
FN:49,_ZSt11__addressofIcEPT_RS0_
FN:49,_ZSt11__addressofIKcEPT_RS1_
FN:104,_ZSt4moveIRSaIcEEONSt16remove_referenceIT_E4typeEOS3_
FN:104,_ZSt4moveIRPNSt7__cxx1118basic_stringstreamIcSt11char_traitsIcESaIcEEEEONSt16remove_referenceIT_E4typeEOS9_
FN:104,_ZSt4moveIR5DequeIiEEONSt16remove_referenceIT_E4typeEOS4_
FN:104,_ZSt4moveIRPNSt7__cxx1112basic_stringIcSt11char_traitsIcESaIcEEEEONSt16remove_referenceIT_E4typeEOS9_
FN:104,_ZSt4moveIRmEONSt16remove_referenceIT_E4typeEOS2_
FN:104,_ZSt4moveIRPN4ListIiE4NodeEEONSt16remove_referenceIT_E4typeEOS6_
FN:104,_ZSt4moveIRiEONSt16remove_referenceIT_E4typeEOS2_
FN:145,_ZSt9addressofIKcEPT_RS1_
FN:145,_ZSt9addressofIcEPT_RS0_
FN:196,_ZSt4swapIPN4ListIiE4NodeEENSt9enable_ifIXsrSt6__and_IJSt6__not_ISt15__is_tuple_likeIT_EESt21is_move_constructibleIS8_ESt18is_move_assignableIS8_EEE5valueEvE4typeERS8_SI_
FN:196,_ZSt4swapImENSt9enable_ifIXsrSt6__and_IJSt6__not_ISt15__is_tuple_likeIT_EESt21is_move_constructibleIS4_ESt18is_move_assignableIS4_EEE5valueEvE4typeERS4_SE_
FNDA:354,_ZSt4moveIRSaIcEEONSt16remove_referenceIT_E4typeEOS3_
FNDA:0,_ZSt4moveIRPNSt7__cxx1112basic_stringIcSt11char_traitsIcESaIcEEEEONSt16remove_referenceIT_E4typeEOS9_
FNDA:15,_ZSt4moveIR5DequeIiEEONSt16remove_referenceIT_E4typeEOS4_
FNDA:2,_ZSt4swapIPN4ListIiE4NodeEENSt9enable_ifIXsrSt6__and_IJSt6__not_ISt15__is_tuple_likeIT_EESt21is_move_constructibleIS8_ESt18is_move_assignableIS8_EEE5valueEvE4typeERS8_SI_
FNDA:63,_ZSt4moveIRPNSt7__cxx1118basic_stringstreamIcSt11char_traitsIcESaIcEEEEONSt16remove_referenceIT_E4typeEOS9_
FNDA:1843,_ZSt9addressofIKcEPT_RS1_
FNDA:6,_ZSt4moveIRPN4ListIiE4NodeEEONSt16remove_referenceIT_E4typeEOS6_
FNDA:3,_ZSt4moveIRmEONSt16remove_referenceIT_E4typeEOS2_
FNDA:439,_ZSt11__addressofIcEPT_RS0_
FNDA:16,_ZSt4moveIRiEONSt16remove_referenceIT_E4typeEOS2_
FNDA:439,_ZSt9addressofIcEPT_RS0_
FNDA:1,_ZSt4swapImENSt9enable_ifIXsrSt6__and_IJSt6__not_ISt15__is_tuple_likeIT_EESt21is_move_constructibleIS4_ESt18is_move_assignableIS4_EEE5valueEvE4typeERS4_SE_
FNDA:1843,_ZSt11__addressofIKcEPT_RS1_
FNF:13
FNH:12
DA:49,2282
DA:50,2282
DA:104,457
DA:105,457
DA:145,2282
DA:146,2282
DA:196,3
DA:204,3
DA:205,3
DA:206,3
DA:207,3
LF:11
LH:11
end_of_record
TN:
SF:/usr/include/c++/11/bits/ptr_traits.h
FN:149,_ZNSt14pointer_traitsIPcE10pointer_toERc
FN:149,_ZNSt14pointer_traitsIPKcE10pointer_toERS0_
FNDA:439,_ZNSt14pointer_traitsIPcE10pointer_toERc
FNDA:1843,_ZNSt14pointer_traitsIPKcE10pointer_toERS0_
FNF:2
FNH:2
DA:149,2282
DA:150,2282
LF:2
LH:2
end_of_record
TN:
SF:/usr/include/c++/11/bits/stl_algobase.h
FN:230,_ZSt3minImERKT_S2_S2_
FN:313,_ZSt12__niter_baseIPcET_S1_
FN:313,_ZSt12__niter_baseIPKcET_S2_
FN:335,_ZSt12__niter_wrapIPcET_RKS1_S1_
FN:380,_ZNSt11__copy_moveILb0ELb0ESt26random_access_iterator_tagE8__copy_mIPKcPcEET0_T_S7_S6_
FN:420,_ZNSt11__copy_moveILb0ELb1ESt26random_access_iterator_tagE8__copy_mIcEEPT_PKS3_S6_S4_
FN:486,_ZSt14__copy_move_a2ILb0EPKcPcET1_T0_S4_S3_
FN:521,_ZSt14__copy_move_a1ILb0EPKcPcET1_T0_S4_S3_
FN:527,_ZSt13__copy_move_aILb0EPKcPcET1_T0_S4_S3_
FN:611,_ZSt4copyIPKcPcET0_T_S4_S3_
FNDA:0,_ZSt12__niter_wrapIPcET_RKS1_S1_
FNDA:0,_ZSt13__copy_move_aILb0EPKcPcET1_T0_S4_S3_
FNDA:45,_ZSt3minImERKT_S2_S2_
FNDA:0,_ZSt4copyIPKcPcET0_T_S4_S3_
FNDA:0,_ZNSt11__copy_moveILb0ELb1ESt26random_access_iterator_tagE8__copy_mIcEEPT_PKS3_S6_S4_
FNDA:0,_ZSt12__niter_baseIPKcET_S2_
FNDA:0,_ZSt12__niter_baseIPcET_S1_
FNDA:0,_ZSt14__copy_move_a1ILb0EPKcPcET1_T0_S4_S3_
FNDA:0,_ZNSt11__copy_moveILb0ELb0ESt26random_access_iterator_tagE8__copy_mIPKcPcEET0_T_S7_S6_
FNDA:0,_ZSt14__copy_move_a2ILb0EPKcPcET1_T0_S4_S3_
FNF:10
FNH:1
DA:230,45
DA:235,45
DA:236,0
DA:237,45
DA:313,0
DA:315,0
DA:335,0
DA:336,0
DA:380,0
DA:383,0
DA:385,0
DA:386,0
DA:387,0
DA:389,0
DA:420,0
DA:429,0
DA:430,0
DA:431,0
DA:432,0
DA:486,0
DA:490,0
DA:492,0
DA:495,0
DA:521,0
DA:522,0
DA:527,0
DA:529,0
DA:532,0
DA:611,0
DA:620,0
LF:30
LH:3
end_of_record
TN:
SF:/usr/include/c++/11/bits/stl_function.h
FN:447,_ZNKSt4lessIPKcEclES1_S1_
FNDA:27,_ZNKSt4lessIPKcEclES1_S1_
FNF:1
FNH:1
DA:447,27
DA:457,27
LF:2
LH:2
end_of_record
TN:
SF:/usr/include/c++/11/bits/stl_iterator_base_funcs.h
FN:98,_ZSt10__distanceIPcENSt15iterator_traitsIT_E15difference_typeES2_S2_St26random_access_iterator_tag
FN:98,_ZSt10__distanceIPKcENSt15iterator_traitsIT_E15difference_typeES3_S3_St26random_access_iterator_tag
FN:138,_ZSt8distanceIPcENSt15iterator_traitsIT_E15difference_typeES2_S2_
FN:138,_ZSt8distanceIPKcENSt15iterator_traitsIT_E15difference_typeES3_S3_
FN:158,_ZSt9__advanceIN4ListIiE8iteratorElEvRT_T0_St26bidirectional_iterator_tag
FN:202,_ZSt7advanceIN4ListIiE8iteratorEmEvRT_T0_
FNDA:93,_ZSt8distanceIPcENSt15iterator_traitsIT_E15difference_typeES2_S2_
FNDA:6,_ZSt7advanceIN4ListIiE8iteratorEmEvRT_T0_
FNDA:80,_ZSt8distanceIPKcENSt15iterator_traitsIT_E15difference_typeES3_S3_
FNDA:6,_ZSt9__advanceIN4ListIiE8iteratorElEvRT_T0_St26bidirectional_iterator_tag
FNDA:80,_ZSt10__distanceIPKcENSt15iterator_traitsIT_E15difference_typeES3_S3_St26random_access_iterator_tag
FNDA:93,_ZSt10__distanceIPcENSt15iterator_traitsIT_E15difference_typeES2_S2_St26random_access_iterator_tag
FNF:6
FNH:6
DA:98,173
DA:104,173
DA:138,173
DA:141,173
DA:142,346
DA:158,6
DA:164,6
DA:165,10
DA:166,6
DA:168,2
DA:169,0
DA:170,6
DA:202,6
DA:205,6
DA:206,6
DA:207,6
LF:16
LH:15
end_of_record
TN:
SF:/usr/include/c++/11/bits/stl_iterator_base_types.h
FN:238,_ZSt19__iterator_categoryIPcENSt15iterator_traitsIT_E17iterator_categoryERKS2_
FN:238,_ZSt19__iterator_categoryIPKcENSt15iterator_traitsIT_E17iterator_categoryERKS3_
FN:238,_ZSt19__iterator_categoryIN4ListIiE8iteratorEENSt15iterator_traitsIT_E17iterator_categoryERKS4_
FNDA:6,_ZSt19__iterator_categoryIN4ListIiE8iteratorEENSt15iterator_traitsIT_E17iterator_categoryERKS4_
FNDA:93,_ZSt19__iterator_categoryIPcENSt15iterator_traitsIT_E17iterator_categoryERKS2_
FNDA:80,_ZSt19__iterator_categoryIPKcENSt15iterator_traitsIT_E17iterator_categoryERKS3_
FNF:3
FNH:3
DA:238,179
DA:239,179
LF:2
LH:2
end_of_record
TN:
SF:/usr/include/c++/11/bits/unique_ptr.h
FN:79,_ZNKSt14default_deleteINSt7__cxx1112basic_stringIcSt11char_traitsIcESaIcEEEEclEPS5_
FN:79,_ZNKSt14default_deleteINSt7__cxx1118basic_stringstreamIcSt11char_traitsIcESaIcEEEEclEPS5_
FN:154,_ZNSt15__uniq_ptr_implINSt7__cxx1112basic_stringIcSt11char_traitsIcESaIcEEESt14default_deleteIS5_EEC2Ev
FN:172,_ZNSt15__uniq_ptr_implINSt7__cxx1112basic_stringIcSt11char_traitsIcESaIcEEESt14default_deleteIS5_EE6_M_ptrEv
FN:172,_ZNSt15__uniq_ptr_implINSt7__cxx1118basic_stringstreamIcSt11char_traitsIcESaIcEEESt14default_deleteIS5_EE6_M_ptrEv
FN:173,_ZNKSt15__uniq_ptr_implINSt7__cxx1112basic_stringIcSt11char_traitsIcESaIcEEESt14default_deleteIS5_EE6_M_ptrEv
FN:174,_ZNSt15__uniq_ptr_implINSt7__cxx1118basic_stringstreamIcSt11char_traitsIcESaIcEEESt14default_deleteIS5_EE10_M_deleterEv
FN:174,_ZNSt15__uniq_ptr_implINSt7__cxx1112basic_stringIcSt11char_traitsIcESaIcEEESt14default_deleteIS5_EE10_M_deleterEv
FN:269,_ZNSt10unique_ptrINSt7__cxx1112basic_stringIcSt11char_traitsIcESaIcEEESt14default_deleteIS5_EEC2IS7_vEEv
FN:355,_ZNSt10unique_ptrINSt7__cxx1112basic_stringIcSt11char_traitsIcESaIcEEESt14default_deleteIS5_EED2Ev
FN:355,_ZNSt10unique_ptrINSt7__cxx1118basic_stringstreamIcSt11char_traitsIcESaIcEEESt14default_deleteIS5_EED2Ev
FN:413,_ZNKSt10unique_ptrINSt7__cxx1112basic_stringIcSt11char_traitsIcESaIcEEESt14default_deleteIS5_EEptEv
FN:421,_ZNKSt10unique_ptrINSt7__cxx1112basic_stringIcSt11char_traitsIcESaIcEEESt14default_deleteIS5_EE3getEv
FN:426,_ZNSt10unique_ptrINSt7__cxx1118basic_stringstreamIcSt11char_traitsIcESaIcEEESt14default_deleteIS5_EE11get_deleterEv
FN:426,_ZNSt10unique_ptrINSt7__cxx1112basic_stringIcSt11char_traitsIcESaIcEEESt14default_deleteIS5_EE11get_deleterEv
FN:435,_ZNKSt10unique_ptrINSt7__cxx1112basic_stringIcSt11char_traitsIcESaIcEEESt14default_deleteIS5_EEcvbEv
FN:760,_ZSteqINSt7__cxx1112basic_stringIcSt11char_traitsIcESaIcEEESt14default_deleteIS5_EEbRKSt10unique_ptrIT_T0_EDn
FNDA:22,_ZNSt10unique_ptrINSt7__cxx1112basic_stringIcSt11char_traitsIcESaIcEEESt14default_deleteIS5_EED2Ev
FNDA:126,_ZNSt15__uniq_ptr_implINSt7__cxx1118basic_stringstreamIcSt11char_traitsIcESaIcEEESt14default_deleteIS5_EE6_M_ptrEv
FNDA:63,_ZNKSt14default_deleteINSt7__cxx1118basic_stringstreamIcSt11char_traitsIcESaIcEEEEclEPS5_
FNDA:0,_ZSteqINSt7__cxx1112basic_stringIcSt11char_traitsIcESaIcEEESt14default_deleteIS5_EEbRKSt10unique_ptrIT_T0_EDn
FNDA:0,_ZNSt15__uniq_ptr_implINSt7__cxx1112basic_stringIcSt11char_traitsIcESaIcEEESt14default_deleteIS5_EE10_M_deleterEv
FNDA:0,_ZNKSt10unique_ptrINSt7__cxx1112basic_stringIcSt11char_traitsIcESaIcEEESt14default_deleteIS5_EE3getEv
FNDA:63,_ZNSt10unique_ptrINSt7__cxx1118basic_stringstreamIcSt11char_traitsIcESaIcEEESt14default_deleteIS5_EED2Ev
FNDA:22,_ZNSt10unique_ptrINSt7__cxx1112basic_stringIcSt11char_traitsIcESaIcEEESt14default_deleteIS5_EEC2IS7_vEEv
FNDA:63,_ZNSt15__uniq_ptr_implINSt7__cxx1118basic_stringstreamIcSt11char_traitsIcESaIcEEESt14default_deleteIS5_EE10_M_deleterEv
FNDA:63,_ZNSt10unique_ptrINSt7__cxx1118basic_stringstreamIcSt11char_traitsIcESaIcEEESt14default_deleteIS5_EE11get_deleterEv
FNDA:0,_ZNSt10unique_ptrINSt7__cxx1112basic_stringIcSt11char_traitsIcESaIcEEESt14default_deleteIS5_EE11get_deleterEv
FNDA:0,_ZNKSt14default_deleteINSt7__cxx1112basic_stringIcSt11char_traitsIcESaIcEEEEclEPS5_
FNDA:22,_ZNSt15__uniq_ptr_implINSt7__cxx1112basic_stringIcSt11char_traitsIcESaIcEEESt14default_deleteIS5_EE6_M_ptrEv
FNDA:0,_ZNKSt15__uniq_ptr_implINSt7__cxx1112basic_stringIcSt11char_traitsIcESaIcEEESt14default_deleteIS5_EE6_M_ptrEv
FNDA:0,_ZNKSt10unique_ptrINSt7__cxx1112basic_stringIcSt11char_traitsIcESaIcEEESt14default_deleteIS5_EEcvbEv
FNDA:22,_ZNSt15__uniq_ptr_implINSt7__cxx1112basic_stringIcSt11char_traitsIcESaIcEEESt14default_deleteIS5_EEC2Ev
FNDA:0,_ZNKSt10unique_ptrINSt7__cxx1112basic_stringIcSt11char_traitsIcESaIcEEESt14default_deleteIS5_EEptEv
FNF:17
FNH:9
DA:79,63
DA:85,63
DA:86,63
DA:154,22
DA:172,148
DA:173,0
DA:174,63
DA:269,22
DA:270,22
DA:271,22
DA:355,85
DA:359,85
DA:360,85
DA:361,63
DA:362,85
DA:363,85
DA:413,0
DA:416,0
DA:421,0
DA:422,0
DA:426,63
DA:427,63
DA:435,0
DA:436,0
DA:760,0
DA:761,0
LF:26
LH:17
end_of_record
TN:
SF:/usr/include/c++/11/ext/alloc_traits.h
FN:97,_ZN9__gnu_cxx14__alloc_traitsISaIcEcE17_S_select_on_copyERKS1_
FNDA:93,_ZN9__gnu_cxx14__alloc_traitsISaIcEcE17_S_select_on_copyERKS1_
FNF:1
FNH:1
DA:97,93
DA:98,93
LF:2
LH:2
end_of_record
TN:
SF:/usr/include/c++/11/ext/new_allocator.h
FN:79,_ZN9__gnu_cxx13new_allocatorIcEC2Ev
FN:82,_ZN9__gnu_cxx13new_allocatorIcEC2ERKS1_
FN:103,_ZN9__gnu_cxx13new_allocatorIcE8allocateEmPKv
FN:132,_ZN9__gnu_cxx13new_allocatorIcE10deallocateEPcm
FN:197,_ZNK9__gnu_cxx13new_allocatorIcE11_M_max_sizeEv
FNDA:140,_ZNK9__gnu_cxx13new_allocatorIcE11_M_max_sizeEv
FNDA:0,_ZN9__gnu_cxx13new_allocatorIcEC2ERKS1_
FNDA:140,_ZN9__gnu_cxx13new_allocatorIcE8allocateEmPKv
FNDA:0,_ZN9__gnu_cxx13new_allocatorIcEC2Ev
FNDA:140,_ZN9__gnu_cxx13new_allocatorIcE10deallocateEPcm
FNF:5
FNH:3
DA:79,0
DA:82,0
DA:103,140
DA:111,140
DA:117,0
DA:127,140
DA:132,140
DA:145,140
DA:197,140
DA:200,140
LF:10
LH:7
end_of_record
TN:
SF:/usr/include/c++/11/ext/type_traits.h
FN:152,_ZN9__gnu_cxx17__is_null_pointerIKcEEbPT_
FN:152,_ZN9__gnu_cxx17__is_null_pointerIcEEbPT_
FNDA:80,_ZN9__gnu_cxx17__is_null_pointerIKcEEbPT_
FNDA:93,_ZN9__gnu_cxx17__is_null_pointerIcEEbPT_
FNF:2
FNH:2
DA:152,173
DA:153,173
LF:2
LH:2
end_of_record
TN:
SF:/usr/include/c++/11/initializer_list
FN:71,_ZNKSt16initializer_listIiE4sizeEv
FN:75,_ZNKSt16initializer_listIiE5beginEv
FN:79,_ZNKSt16initializer_listIiE3endEv
FNDA:11,_ZNKSt16initializer_listIiE3endEv
FNDA:22,_ZNKSt16initializer_listIiE5beginEv
FNDA:11,_ZNKSt16initializer_listIiE4sizeEv
FNF:3
FNH:3
DA:71,11
DA:75,22
DA:79,11
LF:3
LH:3
end_of_record
TN:
SF:/usr/include/c++/11/limits
FN:1274,_ZNSt14numeric_limitsImE3maxEv
FNDA:0,_ZNSt14numeric_limitsImE3maxEv
FNF:1
FNH:0
DA:1274,0
LF:1
LH:0
end_of_record
TN:
SF:/usr/include/c++/11/tuple
FN:80,_ZNSt10_Head_baseILm1ESt14default_deleteINSt7__cxx1112basic_stringIcSt11char_traitsIcESaIcEEEELb1EEC2Ev
FN:124,_ZNSt10_Head_baseILm1ESt14default_deleteINSt7__cxx1118basic_stringstreamIcSt11char_traitsIcESaIcEEEELb1EE7_M_headERS8_
FN:124,_ZNSt10_Head_baseILm1ESt14default_deleteINSt7__cxx1112basic_stringIcSt11char_traitsIcESaIcEEEELb1EE7_M_headERS8_
FN:189,_ZNSt10_Head_baseILm0EPNSt7__cxx1112basic_stringIcSt11char_traitsIcESaIcEEELb0EEC2Ev
FN:233,_ZNSt10_Head_baseILm0EPNSt7__cxx1118basic_stringstreamIcSt11char_traitsIcESaIcEEELb0EE7_M_headERS7_
FN:233,_ZNSt10_Head_baseILm0EPNSt7__cxx1112basic_stringIcSt11char_traitsIcESaIcEEELb0EE7_M_headERS7_
FN:236,_ZNSt10_Head_baseILm0EPNSt7__cxx1112basic_stringIcSt11char_traitsIcESaIcEEELb0EE7_M_headERKS7_
FN:268,_ZNSt11_Tuple_implILm0EJPNSt7__cxx1118basic_stringstreamIcSt11char_traitsIcESaIcEEESt14default_deleteIS5_EEE7_M_headERS9_
FN:268,_ZNSt11_Tuple_implILm0EJPNSt7__cxx1112basic_stringIcSt11char_traitsIcESaIcEEESt14default_deleteIS5_EEE7_M_headERS9_
FN:271,_ZNSt11_Tuple_implILm0EJPNSt7__cxx1112basic_stringIcSt11char_traitsIcESaIcEEESt14default_deleteIS5_EEE7_M_headERKS9_
FN:279,_ZNSt11_Tuple_implILm0EJPNSt7__cxx1112basic_stringIcSt11char_traitsIcESaIcEEESt14default_deleteIS5_EEEC2Ev
FN:424,_ZNSt11_Tuple_implILm1EJSt14default_deleteINSt7__cxx1112basic_stringIcSt11char_traitsIcESaIcEEEEEE7_M_headERS8_
FN:424,_ZNSt11_Tuple_implILm1EJSt14default_deleteINSt7__cxx1118basic_stringstreamIcSt11char_traitsIcESaIcEEEEEE7_M_headERS8_
FN:430,_ZNSt11_Tuple_implILm1EJSt14default_deleteINSt7__cxx1112basic_stringIcSt11char_traitsIcESaIcEEEEEEC2Ev
FN:1049,_ZNSt5tupleIJPNSt7__cxx1112basic_stringIcSt11char_traitsIcESaIcEEESt14default_deleteIS5_EEEC2ILb1ELb1EEEv
FN:1377,_ZSt12__get_helperILm1ESt14default_deleteINSt7__cxx1112basic_stringIcSt11char_traitsIcESaIcEEEEJEERT0_RSt11_Tuple_implIXT_EJS8_DpT1_EE
FN:1377,_ZSt12__get_helperILm1ESt14default_deleteINSt7__cxx1118basic_stringstreamIcSt11char_traitsIcESaIcEEEEJEERT0_RSt11_Tuple_implIXT_EJS8_DpT1_EE
FN:1377,_ZSt12__get_helperILm0EPNSt7__cxx1118basic_stringstreamIcSt11char_traitsIcESaIcEEEJSt14default_deleteIS5_EEERT0_RSt11_Tuple_implIXT_EJS9_DpT1_EE
FN:1377,_ZSt12__get_helperILm0EPNSt7__cxx1112basic_stringIcSt11char_traitsIcESaIcEEEJSt14default_deleteIS5_EEERT0_RSt11_Tuple_implIXT_EJS9_DpT1_EE
FN:1382,_ZSt12__get_helperILm0EPNSt7__cxx1112basic_stringIcSt11char_traitsIcESaIcEEEJSt14default_deleteIS5_EEERKT0_RKSt11_Tuple_implIXT_EJS9_DpT1_EE
FN:1393,_ZSt3getILm0EJPNSt7__cxx1112basic_stringIcSt11char_traitsIcESaIcEEESt14default_deleteIS5_EEERNSt13tuple_elementIXT_ESt5tupleIJDpT0_EEE4typeERSD_
FN:1393,_ZSt3getILm1EJPNSt7__cxx1118basic_stringstreamIcSt11char_traitsIcESaIcEEESt14default_deleteIS5_EEERNSt13tuple_elementIXT_ESt5tupleIJDpT0_EEE4typeERSD_
FN:1393,_ZSt3getILm1EJPNSt7__cxx1112basic_stringIcSt11char_traitsIcESaIcEEESt14default_deleteIS5_EEERNSt13tuple_elementIXT_ESt5tupleIJDpT0_EEE4typeERSD_
FN:1393,_ZSt3getILm0EJPNSt7__cxx1118basic_stringstreamIcSt11char_traitsIcESaIcEEESt14default_deleteIS5_EEERNSt13tuple_elementIXT_ESt5tupleIJDpT0_EEE4typeERSD_
FN:1399,_ZSt3getILm0EJPNSt7__cxx1112basic_stringIcSt11char_traitsIcESaIcEEESt14default_deleteIS5_EEERKNSt13tuple_elementIXT_ESt5tupleIJDpT0_EEE4typeERKSD_
FNDA:22,_ZNSt11_Tuple_implILm0EJPNSt7__cxx1112basic_stringIcSt11char_traitsIcESaIcEEESt14default_deleteIS5_EEE7_M_headERS9_
FNDA:0,_ZSt12__get_helperILm0EPNSt7__cxx1112basic_stringIcSt11char_traitsIcESaIcEEEJSt14default_deleteIS5_EEERKT0_RKSt11_Tuple_implIXT_EJS9_DpT1_EE
FNDA:126,_ZSt3getILm0EJPNSt7__cxx1118basic_stringstreamIcSt11char_traitsIcESaIcEEESt14default_deleteIS5_EEERNSt13tuple_elementIXT_ESt5tupleIJDpT0_EEE4typeERSD_
FNDA:63,_ZSt12__get_helperILm1ESt14default_deleteINSt7__cxx1118basic_stringstreamIcSt11char_traitsIcESaIcEEEEJEERT0_RSt11_Tuple_implIXT_EJS8_DpT1_EE
FNDA:0,_ZSt3getILm1EJPNSt7__cxx1112basic_stringIcSt11char_traitsIcESaIcEEESt14default_deleteIS5_EEERNSt13tuple_elementIXT_ESt5tupleIJDpT0_EEE4typeERSD_
FNDA:126,_ZSt12__get_helperILm0EPNSt7__cxx1118basic_stringstreamIcSt11char_traitsIcESaIcEEEJSt14default_deleteIS5_EEERT0_RSt11_Tuple_implIXT_EJS9_DpT1_EE
FNDA:63,_ZNSt11_Tuple_implILm1EJSt14default_deleteINSt7__cxx1118basic_stringstreamIcSt11char_traitsIcESaIcEEEEEE7_M_headERS8_
FNDA:0,_ZSt3getILm0EJPNSt7__cxx1112basic_stringIcSt11char_traitsIcESaIcEEESt14default_deleteIS5_EEERKNSt13tuple_elementIXT_ESt5tupleIJDpT0_EEE4typeERKSD_
FNDA:22,_ZSt12__get_helperILm0EPNSt7__cxx1112basic_stringIcSt11char_traitsIcESaIcEEEJSt14default_deleteIS5_EEERT0_RSt11_Tuple_implIXT_EJS9_DpT1_EE
FNDA:0,_ZNSt10_Head_baseILm0EPNSt7__cxx1112basic_stringIcSt11char_traitsIcESaIcEEELb0EE7_M_headERKS7_
FNDA:22,_ZNSt11_Tuple_implILm1EJSt14default_deleteINSt7__cxx1112basic_stringIcSt11char_traitsIcESaIcEEEEEEC2Ev
FNDA:22,_ZNSt10_Head_baseILm1ESt14default_deleteINSt7__cxx1112basic_stringIcSt11char_traitsIcESaIcEEEELb1EEC2Ev
FNDA:22,_ZSt3getILm0EJPNSt7__cxx1112basic_stringIcSt11char_traitsIcESaIcEEESt14default_deleteIS5_EEERNSt13tuple_elementIXT_ESt5tupleIJDpT0_EEE4typeERSD_
FNDA:0,_ZNSt11_Tuple_implILm1EJSt14default_deleteINSt7__cxx1112basic_stringIcSt11char_traitsIcESaIcEEEEEE7_M_headERS8_
FNDA:22,_ZNSt10_Head_baseILm0EPNSt7__cxx1112basic_stringIcSt11char_traitsIcESaIcEEELb0EEC2Ev
FNDA:22,_ZNSt11_Tuple_implILm0EJPNSt7__cxx1112basic_stringIcSt11char_traitsIcESaIcEEESt14default_deleteIS5_EEEC2Ev
FNDA:0,_ZNSt11_Tuple_implILm0EJPNSt7__cxx1112basic_stringIcSt11char_traitsIcESaIcEEESt14default_deleteIS5_EEE7_M_headERKS9_
FNDA:22,_ZNSt10_Head_baseILm0EPNSt7__cxx1112basic_stringIcSt11char_traitsIcESaIcEEELb0EE7_M_headERS7_
FNDA:63,_ZSt3getILm1EJPNSt7__cxx1118basic_stringstreamIcSt11char_traitsIcESaIcEEESt14default_deleteIS5_EEERNSt13tuple_elementIXT_ESt5tupleIJDpT0_EEE4typeERSD_
FNDA:0,_ZSt12__get_helperILm1ESt14default_deleteINSt7__cxx1112basic_stringIcSt11char_traitsIcESaIcEEEEJEERT0_RSt11_Tuple_implIXT_EJS8_DpT1_EE
FNDA:0,_ZNSt10_Head_baseILm1ESt14default_deleteINSt7__cxx1112basic_stringIcSt11char_traitsIcESaIcEEEELb1EE7_M_headERS8_
FNDA:126,_ZNSt11_Tuple_implILm0EJPNSt7__cxx1118basic_stringstreamIcSt11char_traitsIcESaIcEEESt14default_deleteIS5_EEE7_M_headERS9_
FNDA:22,_ZNSt5tupleIJPNSt7__cxx1112basic_stringIcSt11char_traitsIcESaIcEEESt14default_deleteIS5_EEEC2ILb1ELb1EEEv
FNDA:63,_ZNSt10_Head_baseILm1ESt14default_deleteINSt7__cxx1118basic_stringstreamIcSt11char_traitsIcESaIcEEEELb1EE7_M_headERS8_
FNDA:126,_ZNSt10_Head_baseILm0EPNSt7__cxx1118basic_stringstreamIcSt11char_traitsIcESaIcEEELb0EE7_M_headERS7_
FNF:25
FNH:17
DA:80,22
DA:81,22
DA:124,63
DA:189,22
DA:190,22
DA:233,148
DA:236,0
DA:268,148
DA:271,0
DA:279,22
DA:280,22
DA:424,63
DA:430,22
DA:431,22
DA:1049,22
DA:1051,22
DA:1377,211
DA:1378,211
DA:1382,0
DA:1383,0
DA:1393,211
DA:1394,211
DA:1399,0
DA:1400,0
LF:24
LH:18
end_of_record
TN:
SF:/usr/include/c++/11/type_traits
FN:3419,_ZSt21is_constant_evaluatedv
FNDA:734,_ZSt21is_constant_evaluatedv
FNF:1
FNH:1
DA:3419,734
DA:3420,734
LF:2
LH:2
end_of_record
TN:
SF:/usr/include/c++/11/typeinfo
FN:99,_ZNKSt9type_info4nameEv
FNDA:0,_ZNKSt9type_info4nameEv
FNF:1
FNH:0
DA:99,0
DA:100,0
LF:2
LH:0
end_of_record
