TN:
SF:/mnt/c/Users/Олеся/CLionProjects/stack/build/_deps/googletest-src/googletest/include/gtest/gtest-assertion-result.h
FN:155,_ZN7testing15AssertionResultC2IbEERKT_PNSt9enable_ifIXntsrSt14is_convertibleIS2_S0_E5valueEvE4typeE
FN:174,_ZNK7testing15AssertionResultcvbEv
FN:183,_ZNK7testing15AssertionResult7messageEv
FN:187,_ZNK7testing15AssertionResult15failure_messageEv
FN:191,_ZN7testing15AssertionResultlsIPKcEERS0_RKT_
FN:191,_ZN7testing15AssertionResultlsINSt7__cxx1112basic_stringIcSt11char_traitsIcESaIcEEEEERS0_RKT_
FN:191,_ZN7testing15AssertionResultlsIA12_cEERS0_RKT_
FN:191,_ZN7testing15AssertionResultlsIA5_cEERS0_RKT_
FN:191,_ZN7testing15AssertionResultlsIA3_cEERS0_RKT_
FN:206,_ZN7testing15AssertionResult13AppendMessageERKNS_7MessageE
FNDA:0,_ZN7testing15AssertionResultlsIA5_cEERS0_RKT_
FNDA:0,_ZN7testing15AssertionResultlsIA3_cEERS0_RKT_
FNDA:31,_ZN7testing15AssertionResultC2IbEERKT_PNSt9enable_ifIXntsrSt14is_convertibleIS2_S0_E5valueEvE4typeE
FNDA:0,_ZN7testing15AssertionResult13AppendMessageERKNS_7MessageE
FNDA:0,_ZN7testing15AssertionResultlsINSt7__cxx1112basic_stringIcSt11char_traitsIcESaIcEEEEERS0_RKT_
FNDA:0,_ZN7testing15AssertionResultlsIA12_cEERS0_RKT_
FNDA:31,_ZNK7testing15AssertionResultcvbEv
FNDA:0,_ZNK7testing15AssertionResult15failure_messageEv
FNDA:0,_ZN7testing15AssertionResultlsIPKcEERS0_RKT_
FNDA:0,_ZNK7testing15AssertionResult7messageEv
FNF:10
FNH:2
DA:155,31
DA:161,31
DA:174,31
DA:183,0
DA:184,0
DA:187,0
DA:191,0
DA:192,0
DA:193,0
DA:206,0
DA:207,0
DA:208,0
DA:209,0
LF:13
LH:3
end_of_record
TN:
SF:/mnt/c/Users/Олеся/CLionProjects/stack/build/_deps/googletest-src/googletest/include/gtest/gtest-message.h
FN:132,_ZN7testing7MessagelsINSt7__cxx1112basic_stringIcSt11char_traitsIcESaIcEEEEERS0_RKT_
FN:132,_ZN7testing7MessagelsIA3_cEERS0_RKT_
FN:132,_ZN7testing7MessagelsIA12_cEERS0_RKT_
FN:132,_ZN7testing7MessagelsIA5_cEERS0_RKT_
FN:182,_ZN7testing7MessagelsIKcEERS0_RKPT_
FNDA:0,_ZN7testing7MessagelsIA12_cEERS0_RKT_
FNDA:0,_ZN7testing7MessagelsIA5_cEERS0_RKT_
FNDA:21,_ZN7testing7MessagelsIKcEERS0_RKPT_
FNDA:0,_ZN7testing7MessagelsINSt7__cxx1112basic_stringIcSt11char_traitsIcESaIcEEEEERS0_RKT_
FNDA:0,_ZN7testing7MessagelsIA3_cEERS0_RKT_
FNF:5
FNH:1
DA:132,0
DA:148,0
DA:149,0
DA:182,21
DA:183,21
DA:184,0
DA:186,21
DA:188,21
LF:8
LH:4
end_of_record
TN:
SF:/mnt/c/Users/Олеся/CLionProjects/stack/build/_deps/googletest-src/googletest/include/gtest/gtest-printers.h
FN:141,_ZN7testing8internal16ContainerPrinter10PrintValueI5StackIiEvEEvRKT_PSo
FN:221,_ZN7testing8internal52internal_stream_operator_without_lexical_name_lookup13StreamPrinter10PrintValueIivEEDTcvvlsdefp0_fp_ERKT_PSo
FN:221,_ZN7testing8internal52internal_stream_operator_without_lexical_name_lookup13StreamPrinter10PrintValueImvEEDTcvvlsdefp0_fp_ERKT_PSo
FN:326,_ZN7testing8internal17PrintWithFallbackIiEEvRKT_PSo
FN:326,_ZN7testing8internal17PrintWithFallbackI5StackIiEEEvRKT_PSo
FN:326,_ZN7testing8internal17PrintWithFallbackImEEvRKT_PSo
FN:357,_ZN7testing8internal19FormatForComparisonI5StackIiES3_E6FormatB5cxx11ERKS3_
FN:357,_ZN7testing8internal19FormatForComparisonImiE6FormatB5cxx11ERKm
FN:357,_ZN7testing8internal19FormatForComparisonIimE6FormatB5cxx11ERKi
FN:357,_ZN7testing8internal19FormatForComparisonIiiE6FormatB5cxx11ERKi
FN:437,_ZN7testing8internal33FormatForComparisonFailureMessageIiiEENSt7__cxx1112basic_stringIcSt11char_traitsIcESaIcEEERKT_RKT0_
FN:437,_ZN7testing8internal33FormatForComparisonFailureMessageI5StackIiES3_EENSt7__cxx1112basic_stringIcSt11char_traitsIcESaIcEEERKT_RKT0_
FN:437,_ZN7testing8internal33FormatForComparisonFailureMessageIimEENSt7__cxx1112basic_stringIcSt11char_traitsIcESaIcEEERKT_RKT0_
FN:437,_ZN7testing8internal33FormatForComparisonFailureMessageImiEENSt7__cxx1112basic_stringIcSt11char_traitsIcESaIcEEERKT_RKT0_
FN:464,_ZN7testing8internal7PrintToI5StackIiEEEvRKT_PSo
FN:464,_ZN7testing8internal7PrintToIiEEvRKT_PSo
FN:464,_ZN7testing8internal7PrintToImEEvRKT_PSo
FN:799,_ZN7testing8internal16UniversalPrinterI5StackIiEE5PrintERKS3_PSo
FN:799,_ZN7testing8internal16UniversalPrinterIiE5PrintERKiPSo
FN:799,_ZN7testing8internal16UniversalPrinterImE5PrintERKmPSo
FN:989,_ZN7testing8internal21UniversalTersePrinterI5StackIiEE5PrintERKS3_PSo
FN:989,_ZN7testing8internal21UniversalTersePrinterIiE5PrintERKiPSo
FN:989,_ZN7testing8internal21UniversalTersePrinterImE5PrintERKmPSo
FN:1108,_ZN7testing8internal14UniversalPrintImEEvRKT_PSo
FN:1108,_ZN7testing8internal14UniversalPrintIiEEvRKT_PSo
FN:1108,_ZN7testing8internal14UniversalPrintI5StackIiEEEvRKT_PSo
FN:1148,_ZN7testing13PrintToStringIiEENSt7__cxx1112basic_stringIcSt11char_traitsIcESaIcEEERKT_
FN:1148,_ZN7testing13PrintToStringI5StackIiEEENSt7__cxx1112basic_stringIcSt11char_traitsIcESaIcEEERKT_
FN:1148,_ZN7testing13PrintToStringImEENSt7__cxx1112basic_stringIcSt11char_traitsIcESaIcEEERKT_
FNDA:0,_ZN7testing8internal19FormatForComparisonIiiE6FormatB5cxx11ERKi
FNDA:0,_ZN7testing8internal21UniversalTersePrinterImE5PrintERKmPSo
FNDA:0,_ZN7testing8internal19FormatForComparisonIimE6FormatB5cxx11ERKi
FNDA:0,_ZN7testing13PrintToStringImEENSt7__cxx1112basic_stringIcSt11char_traitsIcESaIcEEERKT_
FNDA:0,_ZN7testing8internal7PrintToImEEvRKT_PSo
FNDA:0,_ZN7testing8internal17PrintWithFallbackImEEvRKT_PSo
FNDA:0,_ZN7testing8internal17PrintWithFallbackI5StackIiEEEvRKT_PSo
FNDA:0,_ZN7testing8internal14UniversalPrintI5StackIiEEEvRKT_PSo
FNDA:0,_ZN7testing8internal21UniversalTersePrinterIiE5PrintERKiPSo
FNDA:0,_ZN7testing8internal21UniversalTersePrinterI5StackIiEE5PrintERKS3_PSo
FNDA:0,_ZN7testing8internal7PrintToIiEEvRKT_PSo
FNDA:0,_ZN7testing8internal16UniversalPrinterImE5PrintERKmPSo
FNDA:0,_ZN7testing13PrintToStringI5StackIiEEENSt7__cxx1112basic_stringIcSt11char_traitsIcESaIcEEERKT_
FNDA:0,_ZN7testing8internal33FormatForComparisonFailureMessageImiEENSt7__cxx1112basic_stringIcSt11char_traitsIcESaIcEEERKT_RKT0_
FNDA:0,_ZN7testing13PrintToStringIiEENSt7__cxx1112basic_stringIcSt11char_traitsIcESaIcEEERKT_
FNDA:0,_ZN7testing8internal14UniversalPrintImEEvRKT_PSo
FNDA:0,_ZN7testing8internal7PrintToI5StackIiEEEvRKT_PSo
FNDA:0,_ZN7testing8internal17PrintWithFallbackIiEEvRKT_PSo
FNDA:0,_ZN7testing8internal33FormatForComparisonFailureMessageIimEENSt7__cxx1112basic_stringIcSt11char_traitsIcESaIcEEERKT_RKT0_
FNDA:0,_ZN7testing8internal33FormatForComparisonFailureMessageI5StackIiES3_EENSt7__cxx1112basic_stringIcSt11char_traitsIcESaIcEEERKT_RKT0_
FNDA:0,_ZN7testing8internal52internal_stream_operator_without_lexical_name_lookup13StreamPrinter10PrintValueImvEEDTcvvlsdefp0_fp_ERKT_PSo
FNDA:0,_ZN7testing8internal14UniversalPrintIiEEvRKT_PSo
FNDA:0,_ZN7testing8internal52internal_stream_operator_without_lexical_name_lookup13StreamPrinter10PrintValueIivEEDTcvvlsdefp0_fp_ERKT_PSo
FNDA:0,_ZN7testing8internal33FormatForComparisonFailureMessageIiiEENSt7__cxx1112basic_stringIcSt11char_traitsIcESaIcEEERKT_RKT0_
FNDA:0,_ZN7testing8internal19FormatForComparisonI5StackIiES3_E6FormatB5cxx11ERKS3_
FNDA:0,_ZN7testing8internal19FormatForComparisonImiE6FormatB5cxx11ERKm
FNDA:0,_ZN7testing8internal16UniversalPrinterIiE5PrintERKiPSo
FNDA:0,_ZN7testing8internal16UniversalPrinterI5StackIiEE5PrintERKS3_PSo
FNDA:0,_ZN7testing8internal16ContainerPrinter10PrintValueI5StackIiEvEEvRKT_PSo
FNF:29
FNH:0
DA:141,0
DA:142,0
DA:143,0
DA:144,0
DA:145,0
DA:146,0
DA:147,0
DA:148,0
DA:149,0
DA:150,0
DA:153,0
DA:156,0
DA:157,0
DA:160,0
DA:161,0
DA:163,0
DA:164,0
DA:221,0
DA:225,0
DA:226,0
DA:326,0
DA:336,0
DA:337,0
DA:357,0
DA:358,0
DA:437,0
DA:439,0
DA:464,0
DA:465,0
DA:466,0
DA:799,0
DA:808,0
DA:809,0
DA:989,0
DA:990,0
DA:991,0
DA:1108,0
DA:1112,0
DA:1113,0
DA:1148,0
DA:1149,0
DA:1150,0
DA:1151,0
DA:1152,0
LF:44
LH:0
end_of_record
TN:
SF:/mnt/c/Users/Олеся/CLionProjects/stack/build/_deps/googletest-src/googletest/include/gtest/gtest.h
FN:256,_ZN7testing4Test14SetUpTestSuiteEv
FN:264,_ZN7testing4Test17TearDownTestSuiteEv
FN:269,_ZN7testing4Test16TearDownTestCaseEv
FN:270,_ZN7testing4Test13SetUpTestCaseEv
FN:357,_ZN7testing4Test5SetupEv
FN:1359,_ZN7testing8internal18CmpHelperEQFailureI5StackIiES3_EENS_15AssertionResultEPKcS6_RKT_RKT0_
FN:1359,_ZN7testing8internal18CmpHelperEQFailureIiiEENS_15AssertionResultEPKcS4_RKT_RKT0_
FN:1359,_ZN7testing8internal18CmpHelperEQFailureImiEENS_15AssertionResultEPKcS4_RKT_RKT0_
FN:1376,_ZN7testing8internal11CmpHelperEQImiEENS_15AssertionResultEPKcS4_RKT_RKT0_
FN:1376,_ZN7testing8internal11CmpHelperEQI5StackIiES3_EENS_15AssertionResultEPKcS6_RKT_RKT0_
FN:1376,_ZN7testing8internal11CmpHelperEQIiiEENS_15AssertionResultEPKcS4_RKT_RKT0_
FN:1395,_ZN7testing8internal8EqHelper7CompareIiiLPv0EEENS_15AssertionResultEPKcS6_RKT_RKT0_
FN:1395,_ZN7testing8internal8EqHelper7CompareImiLPv0EEENS_15AssertionResultEPKcS6_RKT_RKT0_
FN:1395,_ZN7testing8internal8EqHelper7CompareI5StackIiES4_LPv0EEENS_15AssertionResultEPKcS8_RKT_RKT0_
FN:1428,_ZN7testing8internal18CmpHelperOpFailureI5StackIiES3_EENS_15AssertionResultEPKcS6_RKT_RKT0_S6_
FN:1457,_ZN7testing8internal11CmpHelperNEI5StackIiES3_EENS_15AssertionResultEPKcS6_RKT_RKT0_
FN:1459,_ZN7testing8internal11CmpHelperLEI5StackIiES3_EENS_15AssertionResultEPKcS6_RKT_RKT0_
FN:1461,_ZN7testing8internal11CmpHelperLTI5StackIiES3_EENS_15AssertionResultEPKcS6_RKT_RKT0_
FN:1463,_ZN7testing8internal11CmpHelperGEI5StackIiES3_EENS_15AssertionResultEPKcS6_RKT_RKT0_
FN:1465,_ZN7testing8internal11CmpHelperGTI5StackIiES3_EENS_15AssertionResultEPKcS6_RKT_RKT0_
FNDA:2,_ZN7testing8internal11CmpHelperGEI5StackIiES3_EENS_15AssertionResultEPKcS6_RKT_RKT0_
FNDA:0,_ZN7testing4Test5SetupEv
FNDA:0,_ZN7testing8internal18CmpHelperEQFailureIiiEENS_15AssertionResultEPKcS4_RKT_RKT0_
FNDA:0,_ZN7testing4Test17TearDownTestSuiteEv
FNDA:0,_ZN7testing4Test14SetUpTestSuiteEv
FNDA:1,_ZN7testing8internal11CmpHelperLTI5StackIiES3_EENS_15AssertionResultEPKcS6_RKT_RKT0_
FNDA:8,_ZN7testing8internal11CmpHelperEQImiEENS_15AssertionResultEPKcS4_RKT_RKT0_
FNDA:3,_ZN7testing8internal11CmpHelperEQI5StackIiES3_EENS_15AssertionResultEPKcS6_RKT_RKT0_
FNDA:8,_ZN7testing8internal11CmpHelperEQIiiEENS_15AssertionResultEPKcS4_RKT_RKT0_
FNDA:0,_ZN7testing8internal18CmpHelperEQFailureImiEENS_15AssertionResultEPKcS4_RKT_RKT0_
FNDA:3,_ZN7testing8internal8EqHelper7CompareI5StackIiES4_LPv0EEENS_15AssertionResultEPKcS8_RKT_RKT0_
FNDA:0,_ZN7testing4Test16TearDownTestCaseEv
FNDA:0,_ZN7testing4Test13SetUpTestCaseEv
FNDA:0,_ZN7testing8internal18CmpHelperEQFailureI5StackIiES3_EENS_15AssertionResultEPKcS6_RKT_RKT0_
FNDA:8,_ZN7testing8internal8EqHelper7CompareIiiLPv0EEENS_15AssertionResultEPKcS6_RKT_RKT0_
FNDA:8,_ZN7testing8internal8EqHelper7CompareImiLPv0EEENS_15AssertionResultEPKcS6_RKT_RKT0_
FNDA:1,_ZN7testing8internal11CmpHelperGTI5StackIiES3_EENS_15AssertionResultEPKcS6_RKT_RKT0_
FNDA:1,_ZN7testing8internal11CmpHelperNEI5StackIiES3_EENS_15AssertionResultEPKcS6_RKT_RKT0_
FNDA:2,_ZN7testing8internal11CmpHelperLEI5StackIiES3_EENS_15AssertionResultEPKcS6_RKT_RKT0_
FNDA:0,_ZN7testing8internal18CmpHelperOpFailureI5StackIiES3_EENS_15AssertionResultEPKcS6_RKT_RKT0_S6_
FNF:20
FNH:11
DA:256,0
DA:264,0
DA:269,0
DA:270,0
DA:357,0
DA:1359,0
DA:1364,0
DA:1376,19
DA:1379,19
DA:1380,19
DA:1383,0
DA:1395,19
DA:1398,19
DA:1428,0
DA:1432,0
DA:1433,0
DA:1434,0
DA:1457,1
DA:1459,2
DA:1461,1
DA:1463,2
DA:1465,1
LF:22
LH:10
end_of_record
TN:
SF:/mnt/c/Users/Олеся/CLionProjects/stack/build/_deps/googletest-src/googletest/include/gtest/internal/gtest-internal.h
FN:419,_ZN7testing8internal9GetTypeIdI9StackTestEEPKvv
FN:438,_ZN7testing8internal15TestFactoryBaseD2Ev
FN:438,_ZN7testing8internal15TestFactoryBaseD0Ev
FN:445,_ZN7testing8internal15TestFactoryBaseC2Ev
FN:457,_ZN7testing8internal15TestFactoryImplI41StackTest_InitializerListConstructor_TestE10CreateTestEv
FN:457,_ZN7testing8internal15TestFactoryImplI33StackTest_EqualityComparison_TestE10CreateTestEv
FN:457,_ZN7testing8internal15TestFactoryImplI31StackTest_TopThrowsIfEmpty_TestE10CreateTestEv
FN:457,_ZN7testing8internal15TestFactoryImplI25StackTest_PushPopTop_TestE10CreateTestEv
FN:457,_ZN7testing8internal15TestFactoryImplI33StackTest_DefaultConstructor_TestE10CreateTestEv
FN:457,_ZN7testing8internal15TestFactoryImplI29StackTest_CopyAssignment_TestE10CreateTestEv
FN:457,_ZN7testing8internal15TestFactoryImplI23StackTest_SwapTest_TestE10CreateTestEv
FN:457,_ZN7testing8internal15TestFactoryImplI29StackTest_MoveAssignment_TestE10CreateTestEv
FN:457,_ZN7testing8internal15TestFactoryImplI30StackTest_MoveConstructor_TestE10CreateTestEv
FN:457,_ZN7testing8internal15TestFactoryImplI31StackTest_PopThrowsIfEmpty_TestE10CreateTestEv
FN:457,_ZN7testing8internal15TestFactoryImplI30StackTest_CopyConstructor_TestE10CreateTestEv
FN:457,_ZN7testing8internal15TestFactoryImplI34StackTest_ComparisonOperators_TestE10CreateTestEv
FN:478,_ZN7testing8internal12CodeLocationC2ERKNSt7__cxx1112basic_stringIcSt11char_traitsIcESaIcEEEi
FN:491,_ZN7testing8internal19GetNotDefaultOrNullEPFvvES2_
FN:506,_ZN7testing8internal16SuiteApiResolverI9StackTestE19GetSetUpCaseOrSuiteEPKci
FN:527,_ZN7testing8internal16SuiteApiResolverI9StackTestE22GetTearDownCaseOrSuiteEPKci
FN:843,_ZN7testing8internal14TrueWithStringC2Ev
FN:846,_ZNK7testing8internal14TrueWithStringcvbEv
FNDA:1,_ZN7testing8internal15TestFactoryImplI30StackTest_MoveConstructor_TestE10CreateTestEv
FNDA:1,_ZN7testing8internal15TestFactoryImplI31StackTest_PopThrowsIfEmpty_TestE10CreateTestEv
FNDA:1,_ZN7testing8internal15TestFactoryImplI34StackTest_ComparisonOperators_TestE10CreateTestEv
FNDA:1,_ZN7testing8internal15TestFactoryImplI30StackTest_CopyConstructor_TestE10CreateTestEv
FNDA:2,_ZN7testing8internal14TrueWithStringC2Ev
FNDA:1,_ZN7testing8internal15TestFactoryImplI23StackTest_SwapTest_TestE10CreateTestEv
FNDA:12,_ZN7testing8internal12CodeLocationC2ERKNSt7__cxx1112basic_stringIcSt11char_traitsIcESaIcEEEi
FNDA:48,_ZN7testing8internal19GetNotDefaultOrNullEPFvvES2_
FNDA:2,_ZNK7testing8internal14TrueWithStringcvbEv
FNDA:1,_ZN7testing8internal15TestFactoryImplI29StackTest_MoveAssignment_TestE10CreateTestEv
FNDA:0,_ZN7testing8internal15TestFactoryBaseD0Ev
FNDA:1,_ZN7testing8internal15TestFactoryImplI33StackTest_EqualityComparison_TestE10CreateTestEv
FNDA:1,_ZN7testing8internal15TestFactoryImplI31StackTest_TopThrowsIfEmpty_TestE10CreateTestEv
FNDA:1,_ZN7testing8internal15TestFactoryImplI25StackTest_PushPopTop_TestE10CreateTestEv
FNDA:1,_ZN7testing8internal15TestFactoryImplI33StackTest_DefaultConstructor_TestE10CreateTestEv
FNDA:1,_ZN7testing8internal15TestFactoryImplI29StackTest_CopyAssignment_TestE10CreateTestEv
FNDA:12,_ZN7testing8internal15TestFactoryBaseD2Ev
FNDA:1,_ZN7testing8internal15TestFactoryImplI41StackTest_InitializerListConstructor_TestE10CreateTestEv
FNDA:12,_ZN7testing8internal16SuiteApiResolverI9StackTestE22GetTearDownCaseOrSuiteEPKci
FNDA:12,_ZN7testing8internal15TestFactoryBaseC2Ev
FNDA:12,_ZN7testing8internal9GetTypeIdI9StackTestEEPKvv
FNDA:12,_ZN7testing8internal16SuiteApiResolverI9StackTestE19GetSetUpCaseOrSuiteEPKci
FNF:22
FNH:21
DA:419,12
DA:424,12
DA:438,12
DA:445,12
DA:457,12
DA:478,12
DA:479,12
DA:491,48
DA:493,48
DA:506,12
DA:510,12
DA:512,12
DA:514,12
DA:517,0
DA:519,12
DA:527,12
DA:531,12
DA:533,12
DA:535,12
DA:538,0
DA:540,12
DA:843,2
DA:846,2
LF:23
LH:21
end_of_record
TN:
SF:/mnt/c/Users/Олеся/CLionProjects/stack/build/_deps/googletest-src/googletest/include/gtest/internal/gtest-port.h
FN:1042,_ZN7testing8internal8GTestLog9GetStreamEv
FNDA:0,_ZN7testing8internal8GTestLog9GetStreamEv
FNF:1
FNH:0
DA:1042,0
LF:1
LH:0
end_of_record
TN:
SF:/mnt/c/Users/Олеся/CLionProjects/stack/build/_deps/googletest-src/googletest/include/gtest/internal/gtest-type-util.h
FN:61,_ZN7testing8internal31CanonicalizeForStdLibVersioningENSt7__cxx1112basic_stringIcSt11char_traitsIcESaIcEEE
FN:91,_ZN7testing8internal11GetTypeNameB5cxx11ERKSt9type_info
FNDA:0,_ZN7testing8internal11GetTypeNameB5cxx11ERKSt9type_info
FNDA:0,_ZN7testing8internal31CanonicalizeForStdLibVersioningENSt7__cxx1112basic_stringIcSt11char_traitsIcESaIcEEE
FNF:2
FNH:0
DA:61,0
DA:63,0
DA:64,0
DA:65,0
DA:67,0
DA:75,0
DA:78,0
DA:79,0
DA:80,0
DA:83,0
DA:84,0
DA:86,0
DA:91,0
DA:92,0
DA:94,0
DA:100,0
DA:101,0
DA:102,0
DA:103,0
DA:121,0
LF:20
LH:0
end_of_record
TN:
SF:/mnt/c/Users/Олеся/CLionProjects/stack/include/deque.hpp
FN:13,_ZN5DequeIiEC2Ev
FN:19,_ZN5DequeIiEC2ESt16initializer_listIiE
FN:35,_ZNK5DequeIiEeqERK9ContainerIiE
FN:42,_ZNK5DequeIiEneERK9ContainerIiE
FN:47,_ZN5DequeIiEaSEOS0_
FN:53,_ZN5DequeIiEaSERKS0_
FN:59,_ZN5DequeIiEC2EOS0_
FN:62,_ZN5DequeIiEC2ERKS0_
FNDA:61,_ZN5DequeIiEC2Ev
FNDA:38,_ZN5DequeIiEC2ERKS0_
FNDA:1,_ZN5DequeIiEaSEOS0_
FNDA:32,_ZN5DequeIiEC2ESt16initializer_listIiE
FNDA:0,_ZNK5DequeIiEeqERK9ContainerIiE
FNDA:1,_ZN5DequeIiEaSERKS0_
FNDA:0,_ZNK5DequeIiEneERK9ContainerIiE
FNDA:1,_ZN5DequeIiEC2EOS0_
FNF:8
FNH:6
DA:13,61
DA:19,32
DA:35,0
DA:36,0
DA:37,0
DA:38,0
DA:42,0
DA:43,0
DA:47,1
DA:48,1
DA:49,1
DA:53,1
DA:54,1
DA:55,1
DA:59,1
DA:62,38
LF:16
LH:10
end_of_record
TN:
SF:/mnt/c/Users/Олеся/CLionProjects/stack/include/list.hpp
FN:20,_ZN9ContainerIiEC2Ev
FN:23,_ZN9ContainerIiED0Ev
FN:23,_ZN9ContainerIiED2Ev
FN:41,_ZN4ListIiE4NodeC2ERKiPS1_S4_
FN:59,_ZN4ListIiEC2Ev
FN:61,_ZN4ListIiEC2ERKS0_
FN:65,_ZN4ListIiEC2EOS0_
FN:72,_ZN4ListIiEC2ESt16initializer_listIiE
FN:76,_ZN4ListIiED2Ev
FN:76,_ZN4ListIiED0Ev
FN:78,_ZN4ListIiEaSERKS0_
FN:86,_ZN4ListIiEaSEOS0_
FN:98,_ZNK4ListIiE5emptyEv
FN:99,_ZNK4ListIiE4sizeEv
FN:100,_ZNK4ListIiE8max_sizeEv
FN:102,_ZN4ListIiE9push_backERKi
FN:118,_ZN4ListIiE10push_frontERKi
FN:144,_ZN4ListIiE9pop_frontEv
FN:154,_ZN4ListIiE5clearEv
FN:158,_ZN4ListIiE5frontEv
FN:232,_ZN4ListIiE14const_iteratorC2EPKNS0_4NodeE
FN:234,_ZNK4ListIiE14const_iteratordeEv
FN:237,_ZN4ListIiE14const_iteratorppEv
FN:259,_ZeqRKN4ListIiE14const_iteratorES3_
FN:263,_ZneRKN4ListIiE14const_iteratorES3_
FN:274,_ZNK4ListIiE5beginEv
FN:275,_ZNK4ListIiE3endEv
FN:327,_ZN4ListIiE4swapERS0_
FN:332,_ZNK4ListIiEeqERKS0_
FN:346,_ZNK4ListIiEeqERK9ContainerIiE
FN:353,_ZNK4ListIiEssERKS0_
FN:363,_ZNK4ListIiEneERK9ContainerIiE
FNDA:133,_ZN9ContainerIiED2Ev
FNDA:112,_ZN4ListIiE9pop_frontEv
FNDA:9,_ZN4ListIiE5frontEv
FNDA:133,_ZN4ListIiED2Ev
FNDA:1,_ZN4ListIiEC2EOS0_
FNDA:0,_ZN4ListIiED0Ev
FNDA:39,_ZNK4ListIiE3endEv
FNDA:42,_ZNK4ListIiE14const_iteratordeEv
FNDA:39,_ZN4ListIiEC2ERKS0_
FNDA:132,_ZN4ListIiEC2Ev
FNDA:0,_ZN9ContainerIiED0Ev
FNDA:39,_ZNK4ListIiE5beginEv
FNDA:8,_ZNK4ListIiE4sizeEv
FNDA:2,_ZN4ListIiE10push_frontERKi
FNDA:12,_ZNK4ListIiEssERKS0_
FNDA:78,_ZN4ListIiE14const_iteratorC2EPKNS0_4NodeE
FNDA:0,_ZNK4ListIiEneERK9ContainerIiE
FNDA:0,_ZNK4ListIiEeqERKS0_
FNDA:2,_ZN4ListIiE4swapERS0_
FNDA:0,_ZNK4ListIiEeqERK9ContainerIiE
FNDA:112,_ZN4ListIiE4NodeC2ERKiPS1_S4_
FNDA:81,_ZeqRKN4ListIiE14const_iteratorES3_
FNDA:0,_ZNK4ListIiE8max_sizeEv
FNDA:1,_ZN4ListIiEaSERKS0_
FNDA:134,_ZN4ListIiE5clearEv
FNDA:42,_ZN4ListIiE14const_iteratorppEv
FNDA:1,_ZN4ListIiEaSEOS0_
FNDA:252,_ZNK4ListIiE5emptyEv
FNDA:110,_ZN4ListIiE9push_backERKi
FNDA:32,_ZN4ListIiEC2ESt16initializer_listIiE
FNDA:81,_ZneRKN4ListIiE14const_iteratorES3_
FNDA:133,_ZN9ContainerIiEC2Ev
FNF:32
FNH:26
DA:20,133
DA:23,133
DA:41,112
DA:42,112
DA:59,132
DA:61,39
DA:62,81
DA:63,39
DA:65,1
DA:66,1
DA:67,1
DA:68,1
DA:69,1
DA:70,1
DA:72,32
DA:73,100
DA:74,32
DA:76,133
DA:78,1
DA:79,1
DA:80,1
DA:81,1
DA:82,1
DA:83,1
DA:86,1
DA:87,1
DA:88,1
DA:89,1
DA:90,1
DA:91,1
DA:92,1
DA:93,1
DA:95,1
DA:98,252
DA:99,8
DA:100,0
DA:102,110
DA:103,110
DA:104,110
DA:105,52
DA:106,110
DA:107,110
DA:108,110
DA:118,2
DA:119,2
DA:120,2
DA:121,1
DA:122,2
DA:123,2
DA:124,2
DA:144,112
DA:145,112
DA:146,112
DA:147,112
DA:148,112
DA:149,53
DA:150,112
DA:151,112
DA:154,134
DA:155,244
DA:156,134
DA:158,9
DA:159,9
DA:160,8
DA:232,78
DA:234,42
DA:237,42
DA:238,42
DA:239,42
DA:259,81
DA:260,81
DA:263,81
DA:264,81
DA:274,39
DA:275,39
DA:327,2
DA:328,2
DA:329,2
DA:330,2
DA:331,2
DA:332,0
DA:333,0
DA:335,0
DA:336,0
DA:338,0
DA:339,0
DA:340,0
DA:341,0
DA:343,0
DA:346,0
DA:347,0
DA:348,0
DA:349,0
DA:353,12
DA:354,12
DA:355,31
DA:356,20
DA:357,19
DA:358,19
DA:360,11
DA:363,0
DA:364,0
LF:102
LH:86
end_of_record
TN:
SF:/mnt/c/Users/Олеся/CLionProjects/stack/include/stack.hpp
FN:19,_ZN5StackIiED0Ev
FN:19,_ZN5StackIiED2Ev
FN:40,_ZN5StackIiEC2Ev
FN:43,_ZN5StackIiEC2ERKS0_
FN:47,_ZN5StackIiEC2EOS0_
FN:50,_ZN5StackIiEC2ESt16initializer_listIiE
FN:53,_ZN5StackIiEaSERKS0_
FN:61,_ZN5StackIiEaSEOS0_
FN:69,_ZN5StackIiE3topEv
FN:79,_ZNK5StackIiE4sizeEv
FN:84,_ZNK5StackIiE5emptyEv
FN:94,_ZN5StackIiE4pushEOi
FN:99,_ZN5StackIiE3popEv
FN:107,_ZNK5StackIiEeqES0_
FN:112,_ZNK5StackIiEssES0_
FN:117,_ZN5StackIiE4swapERS0_
FNDA:1,_ZN5StackIiE4swapERS0_
FNDA:0,_ZN5StackIiED0Ev
FNDA:1,_ZN5StackIiEaSERKS0_
FNDA:12,_ZNK5StackIiEssES0_
FNDA:1,_ZN5StackIiEaSEOS0_
FNDA:2,_ZN5StackIiE4pushEOi
FNDA:1,_ZN5StackIiEC2EOS0_
FNDA:8,_ZNK5StackIiE5emptyEv
FNDA:9,_ZN5StackIiE3topEv
FNDA:32,_ZN5StackIiEC2ESt16initializer_listIiE
FNDA:8,_ZNK5StackIiE4sizeEv
FNDA:6,_ZNK5StackIiEeqES0_
FNDA:14,_ZN5StackIiEC2Ev
FNDA:19,_ZN5StackIiEC2ERKS0_
FNDA:66,_ZN5StackIiED2Ev
FNDA:3,_ZN5StackIiE3popEv
FNF:16
FNH:15
DA:19,66
DA:40,14
DA:43,19
DA:44,19
DA:47,1
DA:50,32
DA:53,1
DA:54,1
DA:55,1
DA:57,1
DA:61,1
DA:62,1
DA:63,1
DA:65,1
DA:69,9
DA:70,9
DA:79,8
DA:80,8
DA:84,8
DA:85,8
DA:94,2
DA:95,2
DA:96,2
DA:99,3
DA:100,3
DA:101,1
DA:103,2
DA:104,2
DA:107,6
DA:108,6
DA:112,12
DA:113,12
DA:117,1
DA:118,1
DA:119,1
LF:35
LH:35
end_of_record
TN:
SF:/mnt/c/Users/Олеся/CLionProjects/stack/tests/tests.cpp
FN:13,_ZN9StackTest5SetUpEv
FN:14,_ZN9StackTest8TearDownEv
FN:17,_ZN33StackTest_DefaultConstructor_Test8TestBodyEv
FN:17,_ZN33StackTest_DefaultConstructor_TestC2Ev
FN:17,_ZN33StackTest_DefaultConstructor_TestD0Ev
FN:17,_ZN33StackTest_DefaultConstructor_TestD2Ev
FN:22,_ZN41StackTest_InitializerListConstructor_TestC2Ev
FN:22,_ZN41StackTest_InitializerListConstructor_TestD2Ev
FN:22,_ZN41StackTest_InitializerListConstructor_TestD0Ev
FN:22,_ZN41StackTest_InitializerListConstructor_Test8TestBodyEv
FN:28,_ZN30StackTest_CopyConstructor_Test8TestBodyEv
FN:28,_ZN30StackTest_CopyConstructor_TestC2Ev
FN:28,_ZN30StackTest_CopyConstructor_TestD0Ev
FN:28,_ZN30StackTest_CopyConstructor_TestD2Ev
FN:33,_ZN30StackTest_MoveConstructor_Test8TestBodyEv
FN:33,_ZN30StackTest_MoveConstructor_TestD0Ev
FN:33,_ZN30StackTest_MoveConstructor_TestD2Ev
FN:33,_ZN30StackTest_MoveConstructor_TestC2Ev
FN:39,_ZN29StackTest_CopyAssignment_TestD0Ev
FN:39,_ZN29StackTest_CopyAssignment_TestC2Ev
FN:39,_ZN29StackTest_CopyAssignment_Test8TestBodyEv
FN:39,_ZN29StackTest_CopyAssignment_TestD2Ev
FN:47,_ZN29StackTest_MoveAssignment_Test8TestBodyEv
FN:47,_ZN29StackTest_MoveAssignment_TestD0Ev
FN:47,_ZN29StackTest_MoveAssignment_TestD2Ev
FN:47,_ZN29StackTest_MoveAssignment_TestC2Ev
FN:55,_ZN25StackTest_PushPopTop_Test8TestBodyEv
FN:55,_ZN25StackTest_PushPopTop_TestD0Ev
FN:55,_ZN25StackTest_PushPopTop_TestD2Ev
FN:55,_ZN25StackTest_PushPopTop_TestC2Ev
FN:72,_ZN31StackTest_PopThrowsIfEmpty_TestD0Ev
FN:72,_ZN31StackTest_PopThrowsIfEmpty_Test8TestBodyEv
FN:72,_ZN31StackTest_PopThrowsIfEmpty_TestD2Ev
FN:72,_ZN31StackTest_PopThrowsIfEmpty_TestC2Ev
FN:76,_ZN31StackTest_TopThrowsIfEmpty_TestC2Ev
FN:76,_ZN31StackTest_TopThrowsIfEmpty_Test8TestBodyEv
FN:76,_ZN31StackTest_TopThrowsIfEmpty_TestD0Ev
FN:76,_ZN31StackTest_TopThrowsIfEmpty_TestD2Ev
FN:80,_ZN23StackTest_SwapTest_TestD2Ev
FN:80,_ZN23StackTest_SwapTest_TestC2Ev
FN:80,_ZN23StackTest_SwapTest_Test8TestBodyEv
FN:80,_ZN23StackTest_SwapTest_TestD0Ev
FN:89,_ZN33StackTest_EqualityComparison_TestC2Ev
FN:89,_ZN33StackTest_EqualityComparison_Test8TestBodyEv
FN:89,_ZN33StackTest_EqualityComparison_TestD2Ev
FN:89,_ZN33StackTest_EqualityComparison_TestD0Ev
FN:98,_ZN34StackTest_ComparisonOperators_TestC2Ev
FN:98,_ZN34StackTest_ComparisonOperators_Test8TestBodyEv
FN:98,_ZN34StackTest_ComparisonOperators_TestD0Ev
FN:98,_ZN34StackTest_ComparisonOperators_TestD2Ev
FNDA:1,_ZN30StackTest_CopyConstructor_TestD0Ev
FNDA:1,_ZN31StackTest_TopThrowsIfEmpty_TestD0Ev
FNDA:1,_ZN29StackTest_MoveAssignment_TestD2Ev
FNDA:12,_ZN9StackTest8TearDownEv
FNDA:12,_ZN9StackTest5SetUpEv
FNDA:1,_ZN23StackTest_SwapTest_TestD0Ev
FNDA:1,_ZN29StackTest_CopyAssignment_Test8TestBodyEv
FNDA:1,_ZN30StackTest_MoveConstructor_TestC2Ev
FNDA:1,_ZN30StackTest_CopyConstructor_TestD2Ev
FNDA:1,_ZN33StackTest_DefaultConstructor_TestD0Ev
FNDA:1,_ZN29StackTest_MoveAssignment_TestC2Ev
FNDA:1,_ZN31StackTest_TopThrowsIfEmpty_TestD2Ev
FNDA:1,_ZN33StackTest_EqualityComparison_TestD2Ev
FNDA:1,_ZN34StackTest_ComparisonOperators_Test8TestBodyEv
FNDA:1,_ZN31StackTest_PopThrowsIfEmpty_TestD2Ev
FNDA:1,_ZN41StackTest_InitializerListConstructor_Test8TestBodyEv
FNDA:1,_ZN29StackTest_CopyAssignment_TestD2Ev
FNDA:1,_ZN34StackTest_ComparisonOperators_TestD2Ev
FNDA:1,_ZN34StackTest_ComparisonOperators_TestD0Ev
FNDA:1,_ZN31StackTest_PopThrowsIfEmpty_TestC2Ev
FNDA:1,_ZN33StackTest_DefaultConstructor_TestD2Ev
FNDA:1,_ZN33StackTest_EqualityComparison_TestD0Ev
FNDA:1,_ZN31StackTest_TopThrowsIfEmpty_Test8TestBodyEv
FNDA:1,_ZN25StackTest_PushPopTop_Test8TestBodyEv
FNDA:1,_ZN34StackTest_ComparisonOperators_TestC2Ev
FNDA:1,_ZN23StackTest_SwapTest_TestD2Ev
FNDA:1,_ZN31StackTest_TopThrowsIfEmpty_TestC2Ev
FNDA:1,_ZN33StackTest_DefaultConstructor_Test8TestBodyEv
FNDA:1,_ZN29StackTest_CopyAssignment_TestD0Ev
FNDA:1,_ZN41StackTest_InitializerListConstructor_TestC2Ev
FNDA:1,_ZN30StackTest_MoveConstructor_Test8TestBodyEv
FNDA:1,_ZN30StackTest_CopyConstructor_Test8TestBodyEv
FNDA:1,_ZN25StackTest_PushPopTop_TestD0Ev
FNDA:1,_ZN33StackTest_EqualityComparison_TestC2Ev
FNDA:1,_ZN25StackTest_PushPopTop_TestC2Ev
FNDA:1,_ZN31StackTest_PopThrowsIfEmpty_TestD0Ev
FNDA:1,_ZN33StackTest_DefaultConstructor_TestC2Ev
FNDA:1,_ZN41StackTest_InitializerListConstructor_TestD0Ev
FNDA:1,_ZN30StackTest_MoveConstructor_TestD0Ev
FNDA:1,_ZN30StackTest_MoveConstructor_TestD2Ev
FNDA:1,_ZN25StackTest_PushPopTop_TestD2Ev
FNDA:1,_ZN29StackTest_MoveAssignment_TestD0Ev
FNDA:1,_ZN33StackTest_EqualityComparison_Test8TestBodyEv
FNDA:1,_ZN41StackTest_InitializerListConstructor_TestD2Ev
FNDA:1,_ZN23StackTest_SwapTest_TestC2Ev
FNDA:1,_ZN29StackTest_MoveAssignment_Test8TestBodyEv
FNDA:1,_ZN23StackTest_SwapTest_Test8TestBodyEv
FNDA:1,_ZN30StackTest_CopyConstructor_TestC2Ev
FNDA:1,_ZN31StackTest_PopThrowsIfEmpty_Test8TestBodyEv
FNDA:1,_ZN29StackTest_CopyAssignment_TestC2Ev
FNF:50
FNH:50
DA:13,12
DA:14,12
DA:17,4
DA:18,1
DA:19,1
DA:20,1
DA:22,4
DA:23,1
DA:24,1
DA:25,1
DA:26,1
DA:28,4
DA:29,1
DA:30,1
DA:31,1
DA:33,4
DA:34,1
DA:35,1
DA:36,1
DA:37,1
DA:39,4
DA:40,1
DA:41,1
DA:42,1
DA:43,1
DA:44,1
DA:45,1
DA:47,4
DA:48,1
DA:49,1
DA:50,1
DA:51,1
DA:52,1
DA:53,1
DA:55,4
DA:56,1
DA:57,1
DA:58,1
DA:60,1
DA:61,1
DA:62,1
DA:64,1
DA:65,1
DA:66,1
DA:68,1
DA:69,1
DA:70,1
DA:72,4
DA:73,1
DA:74,1
DA:76,4
DA:77,1
DA:78,1
DA:80,4
DA:81,1
DA:82,1
DA:83,1
DA:85,1
DA:86,1
DA:87,1
DA:89,4
DA:90,1
DA:91,1
DA:92,1
DA:94,1
DA:95,1
DA:96,1
DA:98,4
DA:99,1
DA:100,1
DA:101,1
DA:103,1
DA:104,1
DA:105,1
DA:106,1
DA:107,1
DA:108,1
DA:109,1
LF:78
LH:78
end_of_record
TN:
SF:/usr/include/c++/11/bits/alloc_traits.h
FN:463,_ZNSt16allocator_traitsISaIcEE8allocateERS0_m
FN:495,_ZNSt16allocator_traitsISaIcEE10deallocateERS0_Pcm
FN:547,_ZNSt16allocator_traitsISaIcEE8max_sizeERKS0_
FN:562,_ZNSt16allocator_traitsISaIcEE37select_on_container_copy_constructionERKS0_
FNDA:154,_ZNSt16allocator_traitsISaIcEE10deallocateERS0_Pcm
FNDA:101,_ZNSt16allocator_traitsISaIcEE37select_on_container_copy_constructionERKS0_
FNDA:232,_ZNSt16allocator_traitsISaIcEE8max_sizeERKS0_
FNDA:154,_ZNSt16allocator_traitsISaIcEE8allocateERS0_m
FNF:4
FNH:4
DA:463,154
DA:464,154
DA:495,154
DA:496,154
DA:547,232
DA:552,232
DA:562,101
DA:563,101
LF:8
LH:8
end_of_record
TN:
SF:/usr/include/c++/11/bits/allocator.h
FNF:0
FNH:0
DA:182,154
DA:183,0
DA:185,154
DA:193,154
DA:195,0
DA:196,0
DA:199,154
LF:7
LH:4
end_of_record
TN:
SF:/usr/include/c++/11/bits/basic_string.h
FN:164,_ZNSt7__cxx1112basic_stringIcSt11char_traitsIcESaIcEE12_Alloc_hiderC2EPcRKS3_
FN:167,_ZNSt7__cxx1112basic_stringIcSt11char_traitsIcESaIcEE12_Alloc_hiderC2EPcOS3_
FN:186,_ZNSt7__cxx1112basic_stringIcSt11char_traitsIcESaIcEE7_M_dataEPc
FN:190,_ZNSt7__cxx1112basic_stringIcSt11char_traitsIcESaIcEE9_M_lengthEm
FN:194,_ZNKSt7__cxx1112basic_stringIcSt11char_traitsIcESaIcEE7_M_dataEv
FN:198,_ZNSt7__cxx1112basic_stringIcSt11char_traitsIcESaIcEE13_M_local_dataEv
FN:208,_ZNKSt7__cxx1112basic_stringIcSt11char_traitsIcESaIcEE13_M_local_dataEv
FN:218,_ZNSt7__cxx1112basic_stringIcSt11char_traitsIcESaIcEE11_M_capacityEm
FN:222,_ZNSt7__cxx1112basic_stringIcSt11char_traitsIcESaIcEE13_M_set_lengthEm
FN:229,_ZNKSt7__cxx1112basic_stringIcSt11char_traitsIcESaIcEE11_M_is_localEv
FN:237,_ZNSt7__cxx1112basic_stringIcSt11char_traitsIcESaIcEE10_M_disposeEv
FN:244,_ZNSt7__cxx1112basic_stringIcSt11char_traitsIcESaIcEE10_M_destroyEm
FN:251,_ZNSt7__cxx1112basic_stringIcSt11char_traitsIcESaIcEE16_M_construct_auxIPcEEvT_S7_St12__false_type
FN:271,_ZNSt7__cxx1112basic_stringIcSt11char_traitsIcESaIcEE12_M_constructIPcEEvT_S7_
FN:294,_ZNSt7__cxx1112basic_stringIcSt11char_traitsIcESaIcEE16_M_get_allocatorEv
FN:298,_ZNKSt7__cxx1112basic_stringIcSt11char_traitsIcESaIcEE16_M_get_allocatorEv
FN:318,_ZNKSt7__cxx1112basic_stringIcSt11char_traitsIcESaIcEE8_M_checkEmPKc
FN:328,_ZNKSt7__cxx1112basic_stringIcSt11char_traitsIcESaIcEE15_M_check_lengthEmmPKc
FN:337,_ZNKSt7__cxx1112basic_stringIcSt11char_traitsIcESaIcEE8_M_limitEmm
FN:345,_ZNKSt7__cxx1112basic_stringIcSt11char_traitsIcESaIcEE11_M_disjunctEPKc
FN:354,_ZNSt7__cxx1112basic_stringIcSt11char_traitsIcESaIcEE7_S_copyEPcPKcm
FN:363,_ZNSt7__cxx1112basic_stringIcSt11char_traitsIcESaIcEE7_S_moveEPcPKcm
FN:400,_ZNSt7__cxx1112basic_stringIcSt11char_traitsIcESaIcEE13_S_copy_charsEPcS5_S5_
FN:404,_ZNSt7__cxx1112basic_stringIcSt11char_traitsIcESaIcEE13_S_copy_charsEPcPKcS7_
FN:409,_ZNSt7__cxx1112basic_stringIcSt11char_traitsIcESaIcEE10_S_compareEmm
FN:439,_ZNSt7__cxx1112basic_stringIcSt11char_traitsIcESaIcEEC2Ev
FN:456,_ZNSt7__cxx1112basic_stringIcSt11char_traitsIcESaIcEEC2ERKS4_
FN:533,_ZNSt7__cxx1112basic_stringIcSt11char_traitsIcESaIcEEC2IS3_EEPKcRKS3_
FN:565,_ZNSt7__cxx1112basic_stringIcSt11char_traitsIcESaIcEEC2EOS4_
FN:671,_ZNSt7__cxx1112basic_stringIcSt11char_traitsIcESaIcEED2Ev
FN:689,_ZNSt7__cxx1112basic_stringIcSt11char_traitsIcESaIcEEaSEPKc
FN:920,_ZNKSt7__cxx1112basic_stringIcSt11char_traitsIcESaIcEE4sizeEv
FN:926,_ZNKSt7__cxx1112basic_stringIcSt11char_traitsIcESaIcEE6lengthEv
FN:931,_ZNKSt7__cxx1112basic_stringIcSt11char_traitsIcESaIcEE8max_sizeEv
FN:976,_ZNKSt7__cxx1112basic_stringIcSt11char_traitsIcESaIcEE8capacityEv
FN:1160,_ZNSt7__cxx1112basic_stringIcSt11char_traitsIcESaIcEEpLERKS4_
FN:1169,_ZNSt7__cxx1112basic_stringIcSt11char_traitsIcESaIcEEpLEPKc
FN:1213,_ZNSt7__cxx1112basic_stringIcSt11char_traitsIcESaIcEE6appendERKS4_
FN:1255,_ZNSt7__cxx1112basic_stringIcSt11char_traitsIcESaIcEE6appendEPKc
FN:1456,_ZNSt7__cxx1112basic_stringIcSt11char_traitsIcESaIcEE6assignEPKc
FN:1827,_ZNSt7__cxx1112basic_stringIcSt11char_traitsIcESaIcEE5eraseEmm
FN:1956,_ZNSt7__cxx1112basic_stringIcSt11char_traitsIcESaIcEE7replaceEmmPKcm
FN:1981,_ZNSt7__cxx1112basic_stringIcSt11char_traitsIcESaIcEE7replaceEmmPKc
FN:2320,_ZNKSt7__cxx1112basic_stringIcSt11char_traitsIcESaIcEE5c_strEv
FN:2332,_ZNKSt7__cxx1112basic_stringIcSt11char_traitsIcESaIcEE4dataEv
FN:2413,_ZNKSt7__cxx1112basic_stringIcSt11char_traitsIcESaIcEE4findEPKcm
FNDA:12,_ZNSt7__cxx1112basic_stringIcSt11char_traitsIcESaIcEE6appendERKS4_
FNDA:549,_ZNSt7__cxx1112basic_stringIcSt11char_traitsIcESaIcEE10_M_disposeEv
FNDA:466,_ZNSt7__cxx1112basic_stringIcSt11char_traitsIcESaIcEED2Ev
FNDA:0,_ZNSt7__cxx1112basic_stringIcSt11char_traitsIcESaIcEE5eraseEmm
FNDA:418,_ZNSt7__cxx1112basic_stringIcSt11char_traitsIcESaIcEE7_S_copyEPcPKcm
FNDA:0,_ZNSt7__cxx1112basic_stringIcSt11char_traitsIcESaIcEE7_S_moveEPcPKcm
FNDA:0,_ZNSt7__cxx1112basic_stringIcSt11char_traitsIcESaIcEEpLERKS4_
FNDA:27,_ZNKSt7__cxx1112basic_stringIcSt11char_traitsIcESaIcEE11_M_disjunctEPKc
FNDA:26,_ZNSt7__cxx1112basic_stringIcSt11char_traitsIcESaIcEE6appendEPKc
FNDA:64,_ZNSt7__cxx1112basic_stringIcSt11char_traitsIcESaIcEEC2EOS4_
FNDA:101,_ZNSt7__cxx1112basic_stringIcSt11char_traitsIcESaIcEE16_M_construct_auxIPcEEvT_S7_St12__false_type
FNDA:0,_ZNSt7__cxx1112basic_stringIcSt11char_traitsIcESaIcEE7replaceEmmPKcm
FNDA:6279,_ZNKSt7__cxx1112basic_stringIcSt11char_traitsIcESaIcEE7_M_dataEv
FNDA:0,_ZNSt7__cxx1112basic_stringIcSt11char_traitsIcESaIcEEpLEPKc
FNDA:1222,_ZNKSt7__cxx1112basic_stringIcSt11char_traitsIcESaIcEE8capacityEv
FNDA:194,_ZNSt7__cxx1112basic_stringIcSt11char_traitsIcESaIcEE11_M_capacityEm
FNDA:466,_ZNSt7__cxx1112basic_stringIcSt11char_traitsIcESaIcEE13_M_local_dataEv
FNDA:1889,_ZNKSt7__cxx1112basic_stringIcSt11char_traitsIcESaIcEE11_M_is_localEv
FNDA:1522,_ZNSt7__cxx1112basic_stringIcSt11char_traitsIcESaIcEE13_M_set_lengthEm
FNDA:0,_ZNKSt7__cxx1112basic_stringIcSt11char_traitsIcESaIcEE4findEPKcm
FNDA:1640,_ZNSt7__cxx1112basic_stringIcSt11char_traitsIcESaIcEE9_M_lengthEm
FNDA:12,_ZNKSt7__cxx1112basic_stringIcSt11char_traitsIcESaIcEE8_M_checkEmPKc
FNDA:101,_ZNSt7__cxx1112basic_stringIcSt11char_traitsIcESaIcEEC2ERKS4_
FNDA:1318,_ZNKSt7__cxx1112basic_stringIcSt11char_traitsIcESaIcEE4sizeEv
FNDA:426,_ZNSt7__cxx1112basic_stringIcSt11char_traitsIcESaIcEE16_M_get_allocatorEv
FNDA:232,_ZNKSt7__cxx1112basic_stringIcSt11char_traitsIcESaIcEE8max_sizeEv
FNDA:53,_ZNKSt7__cxx1112basic_stringIcSt11char_traitsIcESaIcEE15_M_check_lengthEmmPKc
FNDA:885,_ZNKSt7__cxx1112basic_stringIcSt11char_traitsIcESaIcEE5c_strEv
FNDA:79,_ZNSt7__cxx1112basic_stringIcSt11char_traitsIcESaIcEEC2IS3_EEPKcRKS3_
FNDA:1889,_ZNKSt7__cxx1112basic_stringIcSt11char_traitsIcESaIcEE13_M_local_dataEv
FNDA:333,_ZNKSt7__cxx1112basic_stringIcSt11char_traitsIcESaIcEE16_M_get_allocatorEv
FNDA:285,_ZNSt7__cxx1112basic_stringIcSt11char_traitsIcESaIcEE7_M_dataEPc
FNDA:97,_ZNSt7__cxx1112basic_stringIcSt11char_traitsIcESaIcEE13_S_copy_charsEPcPKcS7_
FNDA:91,_ZNSt7__cxx1112basic_stringIcSt11char_traitsIcESaIcEE12_Alloc_hiderC2EPcRKS3_
FNDA:6,_ZNKSt7__cxx1112basic_stringIcSt11char_traitsIcESaIcEE8_M_limitEmm
FNDA:140,_ZNSt7__cxx1112basic_stringIcSt11char_traitsIcESaIcEEC2Ev
FNDA:0,_ZNSt7__cxx1112basic_stringIcSt11char_traitsIcESaIcEEaSEPKc
FNDA:101,_ZNSt7__cxx1112basic_stringIcSt11char_traitsIcESaIcEE12_M_constructIPcEEvT_S7_
FNDA:311,_ZNSt7__cxx1112basic_stringIcSt11char_traitsIcESaIcEE12_Alloc_hiderC2EPcOS3_
FNDA:154,_ZNSt7__cxx1112basic_stringIcSt11char_traitsIcESaIcEE10_M_destroyEm
FNDA:101,_ZNSt7__cxx1112basic_stringIcSt11char_traitsIcESaIcEE13_S_copy_charsEPcS5_S5_
FNDA:49,_ZNKSt7__cxx1112basic_stringIcSt11char_traitsIcESaIcEE4dataEv
FNDA:2,_ZNSt7__cxx1112basic_stringIcSt11char_traitsIcESaIcEE10_S_compareEmm
FNDA:0,_ZNSt7__cxx1112basic_stringIcSt11char_traitsIcESaIcEE7replaceEmmPKc
FNDA:0,_ZNSt7__cxx1112basic_stringIcSt11char_traitsIcESaIcEE6assignEPKc
FNDA:1009,_ZNKSt7__cxx1112basic_stringIcSt11char_traitsIcESaIcEE6lengthEv
FNF:46
FNH:37
DA:164,91
DA:165,91
DA:167,311
DA:168,311
DA:186,285
DA:187,285
DA:190,1640
DA:191,1640
DA:194,6279
DA:195,6279
DA:198,466
DA:201,466
DA:208,1889
DA:211,1889
DA:218,194
DA:219,194
DA:222,1522
DA:224,1522
DA:225,1522
DA:226,1522
DA:229,1889
DA:230,1889
DA:237,549
DA:239,549
DA:240,154
DA:241,549
DA:244,154
DA:245,154
DA:251,101
DA:255,101
DA:256,101
DA:271,101
DA:274,101
DA:275,101
DA:294,426
DA:295,426
DA:298,333
DA:299,333
DA:318,12
DA:320,12
DA:321,0
DA:324,12
DA:328,53
DA:330,53
DA:331,0
DA:332,53
DA:337,6
DA:339,6
DA:340,6
DA:345,27
DA:347,27
DA:348,27
DA:354,418
DA:356,418
DA:357,117
DA:359,301
DA:360,418
DA:363,0
DA:365,0
DA:366,0
DA:368,0
DA:369,0
DA:400,101
DA:401,101
DA:404,97
DA:406,97
DA:409,2
DA:411,2
DA:413,2
DA:414,0
DA:415,2
DA:416,0
DA:418,2
DA:439,140
DA:441,140
DA:442,140
DA:456,101
DA:457,101
DA:458,101
DA:459,101
DA:533,79
DA:534,79
DA:536,79
DA:539,79
DA:540,79
DA:565,64
DA:566,64
DA:568,64
DA:570,51
DA:575,13
DA:576,13
DA:582,64
DA:583,64
DA:584,64
DA:585,64
DA:671,466
DA:672,466
DA:689,0
DA:690,0
DA:920,1318
DA:921,1318
DA:926,1009
DA:927,1009
DA:931,232
DA:932,232
DA:976,1222
DA:978,1222
DA:979,1222
DA:1160,0
DA:1161,0
DA:1169,0
DA:1170,0
DA:1213,12
DA:1214,12
DA:1255,26
DA:1258,26
DA:1259,26
DA:1260,26
DA:1456,0
DA:1459,0
DA:1460,0
DA:1827,0
DA:1829,0
DA:1830,0
DA:1831,0
DA:1832,0
DA:1833,0
DA:1834,0
DA:1956,0
DA:1960,0
DA:1961,0
DA:1981,0
DA:1984,0
DA:2320,885
DA:2321,885
DA:2332,49
DA:2333,49
DA:2413,0
DA:2416,0
LF:139
LH:107
end_of_record
TN:
SF:/usr/include/c++/11/bits/basic_string.tcc
FN:132,_ZNSt7__cxx1112basic_stringIcSt11char_traitsIcESaIcEE9_M_createERmm
FN:206,_ZNSt7__cxx1112basic_stringIcSt11char_traitsIcESaIcEE12_M_constructIPKcEEvT_S8_St20forward_iterator_tag
FN:206,_ZNSt7__cxx1112basic_stringIcSt11char_traitsIcESaIcEE12_M_constructIPcEEvT_S7_St20forward_iterator_tag
FN:300,_ZNSt7__cxx1112basic_stringIcSt11char_traitsIcESaIcEE9_M_mutateEmmPKcm
FN:324,_ZNSt7__cxx1112basic_stringIcSt11char_traitsIcESaIcEE8_M_eraseEmm
FN:384,_ZNSt7__cxx1112basic_stringIcSt11char_traitsIcESaIcEE9_M_appendEPKcm
FN:448,_ZNSt7__cxx1112basic_stringIcSt11char_traitsIcESaIcEE10_M_replaceEmmPKcm
FN:1207,_ZNKSt7__cxx1112basic_stringIcSt11char_traitsIcESaIcEE4findEPKcmm
FN:1452,_ZNKSt7__cxx1112basic_stringIcSt11char_traitsIcESaIcEE7compareEmmPKc
FNDA:0,_ZNSt7__cxx1112basic_stringIcSt11char_traitsIcESaIcEE8_M_eraseEmm
FNDA:0,_ZNKSt7__cxx1112basic_stringIcSt11char_traitsIcESaIcEE4findEPKcmm
FNDA:38,_ZNSt7__cxx1112basic_stringIcSt11char_traitsIcESaIcEE9_M_appendEPKcm
FNDA:0,_ZNKSt7__cxx1112basic_stringIcSt11char_traitsIcESaIcEE7compareEmmPKc
FNDA:154,_ZNSt7__cxx1112basic_stringIcSt11char_traitsIcESaIcEE9_M_createERmm
FNDA:85,_ZNSt7__cxx1112basic_stringIcSt11char_traitsIcESaIcEE12_M_constructIPKcEEvT_S8_St20forward_iterator_tag
FNDA:101,_ZNSt7__cxx1112basic_stringIcSt11char_traitsIcESaIcEE12_M_constructIPcEEvT_S7_St20forward_iterator_tag
FNDA:27,_ZNSt7__cxx1112basic_stringIcSt11char_traitsIcESaIcEE10_M_replaceEmmPKcm
FNDA:12,_ZNSt7__cxx1112basic_stringIcSt11char_traitsIcESaIcEE9_M_mutateEmmPKcm
FNF:9
FNH:6
DA:132,154
DA:137,154
DA:138,0
DA:143,154
DA:145,25
DA:147,25
DA:148,0
DA:153,154
DA:206,186
DA:211,186
DA:212,0
DA:215,186
DA:217,186
DA:219,65
DA:220,65
DA:225,186
DA:232,186
DA:233,186
DA:300,12
DA:304,12
DA:306,12
DA:307,12
DA:309,12
DA:310,12
DA:311,12
DA:312,12
DA:313,12
DA:314,0
DA:315,0
DA:317,12
DA:318,12
DA:319,12
DA:320,12
DA:324,0
DA:327,0
DA:329,0
DA:330,0
DA:332,0
DA:333,0
DA:384,38
DA:387,38
DA:389,38
DA:391,26
DA:392,26
DA:395,12
DA:397,38
DA:398,38
DA:448,27
DA:452,27
DA:454,27
DA:455,27
DA:457,27
DA:459,27
DA:461,27
DA:462,27
DA:464,27
DA:465,0
DA:466,27
DA:467,27
DA:472,0
DA:473,0
DA:474,0
DA:475,0
DA:476,0
DA:478,0
DA:479,0
DA:480,0
DA:484,0
DA:485,0
DA:489,0
DA:490,0
DA:491,0
DA:498,0
DA:500,27
DA:501,27
DA:1207,0
DA:1212,0
DA:1214,0
DA:1215,0
DA:1216,0
DA:1217,0
DA:1219,0
DA:1220,0
DA:1221,0
DA:1222,0
DA:1223,0
DA:1225,0
DA:1228,0
DA:1229,0
DA:1230,0
DA:1234,0
DA:1235,0
DA:1236,0
DA:1238,0
DA:1452,0
DA:1456,0
DA:1457,0
DA:1458,0
DA:1459,0
DA:1460,0
DA:1461,0
DA:1462,0
DA:1463,0
LF:103
LH:49
end_of_record
TN:
SF:/usr/include/c++/11/bits/char_traits.h
FN:106,_ZN9__gnu_cxx11char_traitsIcE2eqERKcS3_
FN:167,_ZN9__gnu_cxx11char_traitsIcE6lengthEPKc
FN:178,_ZN9__gnu_cxx11char_traitsIcE4findEPKcmRS2_
FN:190,_ZN9__gnu_cxx11char_traitsIcE4moveEPcPKcm
FN:240,_ZN9__gnu_cxx11char_traitsIcE4copyEPcPKcm
FN:356,_ZNSt11char_traitsIcE6assignERcRKc
FN:364,_ZNSt11char_traitsIcE2ltERKcS2_
FN:372,_ZNSt11char_traitsIcE7compareEPKcS2_m
FN:393,_ZNSt11char_traitsIcE6lengthEPKc
FN:403,_ZNSt11char_traitsIcE4findEPKcmRS1_
FN:417,_ZNSt11char_traitsIcE4moveEPcPKcm
FN:429,_ZNSt11char_traitsIcE4copyEPcPKcm
FNDA:0,_ZN9__gnu_cxx11char_traitsIcE4findEPKcmRS2_
FNDA:0,_ZNSt11char_traitsIcE2ltERKcS2_
FNDA:6,_ZNSt11char_traitsIcE4findEPKcmRS1_
FNDA:379,_ZNSt11char_traitsIcE4copyEPcPKcm
FNDA:107,_ZNSt11char_traitsIcE6lengthEPKc
FNDA:0,_ZN9__gnu_cxx11char_traitsIcE6lengthEPKc
FNDA:0,_ZN9__gnu_cxx11char_traitsIcE4copyEPcPKcm
FNDA:0,_ZN9__gnu_cxx11char_traitsIcE4moveEPcPKcm
FNDA:2548,_ZNSt11char_traitsIcE6assignERcRKc
FNDA:2,_ZNSt11char_traitsIcE7compareEPKcS2_m
FNDA:0,_ZNSt11char_traitsIcE4moveEPcPKcm
FNDA:0,_ZN9__gnu_cxx11char_traitsIcE2eqERKcS3_
FNF:12
FNH:5
DA:106,0
DA:107,0
DA:167,0
DA:170,0
DA:171,0
DA:172,0
DA:173,0
DA:178,0
DA:181,0
DA:182,0
DA:183,0
DA:184,0
DA:190,0
DA:193,0
DA:194,0
DA:196,0
DA:198,0
DA:199,0
DA:203,0
DA:204,0
DA:205,0
DA:206,0
DA:230,0
DA:233,0
DA:234,0
DA:240,0
DA:244,0
DA:245,0
DA:290,107
DA:356,2548
DA:357,2548
DA:364,0
DA:367,0
DA:368,0
DA:372,2
DA:374,2
DA:375,2
DA:377,0
DA:379,0
DA:381,0
DA:382,0
DA:383,0
DA:384,0
DA:385,0
DA:386,0
DA:389,0
DA:393,107
DA:396,107
DA:397,0
DA:399,107
DA:403,6
DA:405,6
DA:406,0
DA:408,6
DA:410,6
DA:411,0
DA:413,6
DA:417,0
DA:419,0
DA:420,0
DA:422,0
DA:423,0
DA:425,0
DA:429,379
DA:431,379
DA:432,9
DA:434,370
DA:435,0
DA:437,370
LF:69
LH:19
end_of_record
TN:
SF:/usr/include/c++/11/bits/cpp_type_traits.h
FN:560,_ZSt12__miter_baseIPKcET_S2_
FNDA:0,_ZSt12__miter_baseIPKcET_S2_
FNF:1
FNH:0
DA:560,0
DA:561,0
LF:2
LH:0
end_of_record
TN:
SF:/usr/include/c++/11/bits/move.h
FN:49,_ZSt11__addressofIKcEPT_RS1_
FN:49,_ZSt11__addressofIcEPT_RS0_
FN:77,_ZSt7forwardISt14default_deleteINSt7__cxx1112basic_stringIcSt11char_traitsIcESaIcEEEEEOT_RNSt16remove_referenceIS8_E4typeE
FN:104,_ZSt4moveIRSaIcEEONSt16remove_referenceIT_E4typeEOS3_
FN:104,_ZSt4moveIRmEONSt16remove_referenceIT_E4typeEOS2_
FN:104,_ZSt4moveIRPN4ListIiE4NodeEEONSt16remove_referenceIT_E4typeEOS6_
FN:104,_ZSt4moveIR5StackIiEEONSt16remove_referenceIT_E4typeEOS4_
FN:104,_ZSt4moveIR5DequeIiEEONSt16remove_referenceIT_E4typeEOS4_
FN:104,_ZSt4moveIRPNSt7__cxx1118basic_stringstreamIcSt11char_traitsIcESaIcEEEEONSt16remove_referenceIT_E4typeEOS9_
FN:104,_ZSt4moveIRPNSt7__cxx1112basic_stringIcSt11char_traitsIcESaIcEEEEONSt16remove_referenceIT_E4typeEOS9_
FN:145,_ZSt9addressofIKcEPT_RS1_
FN:145,_ZSt9addressofIcEPT_RS0_
FN:196,_ZSt4swapImENSt9enable_ifIXsrSt6__and_IJSt6__not_ISt15__is_tuple_likeIT_EESt21is_move_constructibleIS4_ESt18is_move_assignableIS4_EEE5valueEvE4typeERS4_SE_
FN:196,_ZSt4swapIPN4ListIiE4NodeEENSt9enable_ifIXsrSt6__and_IJSt6__not_ISt15__is_tuple_likeIT_EESt21is_move_constructibleIS8_ESt18is_move_assignableIS8_EEE5valueEvE4typeERS8_SI_
FNDA:6,_ZSt4moveIRmEONSt16remove_referenceIT_E4typeEOS2_
FNDA:2,_ZSt4swapImENSt9enable_ifIXsrSt6__and_IJSt6__not_ISt15__is_tuple_likeIT_EESt21is_move_constructibleIS4_ESt18is_move_assignableIS4_EEE5valueEvE4typeERS4_SE_
FNDA:12,_ZSt4moveIRPN4ListIiE4NodeEEONSt16remove_referenceIT_E4typeEOS6_
FNDA:375,_ZSt4moveIRSaIcEEONSt16remove_referenceIT_E4typeEOS3_
FNDA:1889,_ZSt11__addressofIKcEPT_RS1_
FNDA:466,_ZSt11__addressofIcEPT_RS0_
FNDA:64,_ZSt4moveIRPNSt7__cxx1118basic_stringstreamIcSt11char_traitsIcESaIcEEEEONSt16remove_referenceIT_E4typeEOS9_
FNDA:0,_ZSt4moveIRPNSt7__cxx1112basic_stringIcSt11char_traitsIcESaIcEEEEONSt16remove_referenceIT_E4typeEOS9_
FNDA:4,_ZSt4swapIPN4ListIiE4NodeEENSt9enable_ifIXsrSt6__and_IJSt6__not_ISt15__is_tuple_likeIT_EESt21is_move_constructibleIS8_ESt18is_move_assignableIS8_EEE5valueEvE4typeERS8_SI_
FNDA:2,_ZSt4moveIR5StackIiEEONSt16remove_referenceIT_E4typeEOS4_
FNDA:0,_ZSt7forwardISt14default_deleteINSt7__cxx1112basic_stringIcSt11char_traitsIcESaIcEEEEEOT_RNSt16remove_referenceIS8_E4typeE
FNDA:4,_ZSt4moveIR5DequeIiEEONSt16remove_referenceIT_E4typeEOS4_
FNDA:1889,_ZSt9addressofIKcEPT_RS1_
FNDA:466,_ZSt9addressofIcEPT_RS0_
FNF:14
FNH:12
DA:49,2355
DA:50,2355
DA:77,0
DA:78,0
DA:104,463
DA:105,463
DA:145,2355
DA:146,2355
DA:196,6
DA:204,6
DA:205,6
DA:206,6
DA:207,6
LF:13
LH:11
end_of_record
TN:
SF:/usr/include/c++/11/bits/ptr_traits.h
FN:149,_ZNSt14pointer_traitsIPKcE10pointer_toERS0_
FN:149,_ZNSt14pointer_traitsIPcE10pointer_toERc
FNDA:466,_ZNSt14pointer_traitsIPcE10pointer_toERc
FNDA:1889,_ZNSt14pointer_traitsIPKcE10pointer_toERS0_
FNF:2
FNH:2
DA:149,2355
DA:150,2355
LF:2
LH:2
end_of_record
TN:
SF:/usr/include/c++/11/bits/stl_algobase.h
FN:230,_ZSt3minImERKT_S2_S2_
FN:313,_ZSt12__niter_baseIPcET_S1_
FN:313,_ZSt12__niter_baseIPKcET_S2_
FN:335,_ZSt12__niter_wrapIPcET_RKS1_S1_
FN:380,_ZNSt11__copy_moveILb0ELb0ESt26random_access_iterator_tagE8__copy_mIPKcPcEET0_T_S7_S6_
FN:420,_ZNSt11__copy_moveILb0ELb1ESt26random_access_iterator_tagE8__copy_mIcEEPT_PKS3_S6_S4_
FN:486,_ZSt14__copy_move_a2ILb0EPKcPcET1_T0_S4_S3_
FN:521,_ZSt14__copy_move_a1ILb0EPKcPcET1_T0_S4_S3_
FN:527,_ZSt13__copy_move_aILb0EPKcPcET1_T0_S4_S3_
FN:611,_ZSt4copyIPKcPcET0_T_S4_S3_
FNDA:0,_ZNSt11__copy_moveILb0ELb0ESt26random_access_iterator_tagE8__copy_mIPKcPcEET0_T_S7_S6_
FNDA:0,_ZNSt11__copy_moveILb0ELb1ESt26random_access_iterator_tagE8__copy_mIcEEPT_PKS3_S6_S4_
FNDA:0,_ZSt12__niter_baseIPKcET_S2_
FNDA:45,_ZSt3minImERKT_S2_S2_
FNDA:0,_ZSt14__copy_move_a2ILb0EPKcPcET1_T0_S4_S3_
FNDA:0,_ZSt14__copy_move_a1ILb0EPKcPcET1_T0_S4_S3_
FNDA:0,_ZSt12__niter_baseIPcET_S1_
FNDA:0,_ZSt4copyIPKcPcET0_T_S4_S3_
FNDA:0,_ZSt13__copy_move_aILb0EPKcPcET1_T0_S4_S3_
FNDA:0,_ZSt12__niter_wrapIPcET_RKS1_S1_
FNF:10
FNH:1
DA:230,45
DA:235,45
DA:236,0
DA:237,45
DA:313,0
DA:315,0
DA:335,0
DA:336,0
DA:380,0
DA:383,0
DA:385,0
DA:386,0
DA:387,0
DA:389,0
DA:420,0
DA:429,0
DA:430,0
DA:431,0
DA:432,0
DA:486,0
DA:490,0
DA:492,0
DA:495,0
DA:521,0
DA:522,0
DA:527,0
DA:529,0
DA:532,0
DA:611,0
DA:620,0
LF:30
LH:3
end_of_record
TN:
SF:/usr/include/c++/11/bits/stl_function.h
FN:447,_ZNKSt4lessIPKcEclES1_S1_
FNDA:27,_ZNKSt4lessIPKcEclES1_S1_
FNF:1
FNH:1
DA:447,27
DA:457,27
LF:2
LH:2
end_of_record
TN:
SF:/usr/include/c++/11/bits/stl_iterator_base_funcs.h
FN:98,_ZSt10__distanceIPKcENSt15iterator_traitsIT_E15difference_typeES3_S3_St26random_access_iterator_tag
FN:98,_ZSt10__distanceIPcENSt15iterator_traitsIT_E15difference_typeES2_S2_St26random_access_iterator_tag
FN:138,_ZSt8distanceIPcENSt15iterator_traitsIT_E15difference_typeES2_S2_
FN:138,_ZSt8distanceIPKcENSt15iterator_traitsIT_E15difference_typeES3_S3_
FNDA:101,_ZSt8distanceIPcENSt15iterator_traitsIT_E15difference_typeES2_S2_
FNDA:101,_ZSt10__distanceIPcENSt15iterator_traitsIT_E15difference_typeES2_S2_St26random_access_iterator_tag
FNDA:85,_ZSt10__distanceIPKcENSt15iterator_traitsIT_E15difference_typeES3_S3_St26random_access_iterator_tag
FNDA:85,_ZSt8distanceIPKcENSt15iterator_traitsIT_E15difference_typeES3_S3_
FNF:4
FNH:4
DA:98,186
DA:104,186
DA:138,186
DA:141,186
DA:142,372
LF:5
LH:5
end_of_record
TN:
SF:/usr/include/c++/11/bits/stl_iterator_base_types.h
FN:238,_ZSt19__iterator_categoryIPcENSt15iterator_traitsIT_E17iterator_categoryERKS2_
FN:238,_ZSt19__iterator_categoryIPKcENSt15iterator_traitsIT_E17iterator_categoryERKS3_
FNDA:101,_ZSt19__iterator_categoryIPcENSt15iterator_traitsIT_E17iterator_categoryERKS2_
FNDA:85,_ZSt19__iterator_categoryIPKcENSt15iterator_traitsIT_E17iterator_categoryERKS3_
FNF:2
FNH:2
DA:238,186
DA:239,186
LF:2
LH:2
end_of_record
TN:
SF:/usr/include/c++/11/bits/unique_ptr.h
FN:79,_ZNKSt14default_deleteINSt7__cxx1118basic_stringstreamIcSt11char_traitsIcESaIcEEEEclEPS5_
FN:79,_ZNKSt14default_deleteINSt7__cxx1112basic_stringIcSt11char_traitsIcESaIcEEEEclEPS5_
FN:154,_ZNSt15__uniq_ptr_implINSt7__cxx1112basic_stringIcSt11char_traitsIcESaIcEEESt14default_deleteIS5_EEC2Ev
FN:155,_ZNSt15__uniq_ptr_implINSt7__cxx1112basic_stringIcSt11char_traitsIcESaIcEEESt14default_deleteIS5_EEC2EPS5_
FN:165,_ZNSt15__uniq_ptr_implINSt7__cxx1112basic_stringIcSt11char_traitsIcESaIcEEESt14default_deleteIS5_EEaSEOS8_
FN:172,_ZNSt15__uniq_ptr_implINSt7__cxx1112basic_stringIcSt11char_traitsIcESaIcEEESt14default_deleteIS5_EE6_M_ptrEv
FN:172,_ZNSt15__uniq_ptr_implINSt7__cxx1118basic_stringstreamIcSt11char_traitsIcESaIcEEESt14default_deleteIS5_EE6_M_ptrEv
FN:173,_ZNKSt15__uniq_ptr_implINSt7__cxx1112basic_stringIcSt11char_traitsIcESaIcEEESt14default_deleteIS5_EE6_M_ptrEv
FN:173,_ZNKSt15__uniq_ptr_implINSt7__cxx1118basic_stringstreamIcSt11char_traitsIcESaIcEEESt14default_deleteIS5_EE6_M_ptrEv
FN:174,_ZNSt15__uniq_ptr_implINSt7__cxx1118basic_stringstreamIcSt11char_traitsIcESaIcEEESt14default_deleteIS5_EE10_M_deleterEv
FN:174,_ZNSt15__uniq_ptr_implINSt7__cxx1112basic_stringIcSt11char_traitsIcESaIcEEESt14default_deleteIS5_EE10_M_deleterEv
FN:177,_ZNSt15__uniq_ptr_implINSt7__cxx1112basic_stringIcSt11char_traitsIcESaIcEEESt14default_deleteIS5_EE5resetEPS5_
FN:185,_ZNSt15__uniq_ptr_implINSt7__cxx1112basic_stringIcSt11char_traitsIcESaIcEEESt14default_deleteIS5_EE7releaseEv
FN:212,_ZNSt15__uniq_ptr_dataINSt7__cxx1112basic_stringIcSt11char_traitsIcESaIcEEESt14default_deleteIS5_ELb1ELb1EEaSEOS8_
FN:269,_ZNSt10unique_ptrINSt7__cxx1112basic_stringIcSt11char_traitsIcESaIcEEESt14default_deleteIS5_EEC2IS7_vEEv
FN:281,_ZNSt10unique_ptrINSt7__cxx1112basic_stringIcSt11char_traitsIcESaIcEEESt14default_deleteIS5_EEC2IS7_vEEPS5_
FN:355,_ZNSt10unique_ptrINSt7__cxx1118basic_stringstreamIcSt11char_traitsIcESaIcEEESt14default_deleteIS5_EED2Ev
FN:355,_ZNSt10unique_ptrINSt7__cxx1112basic_stringIcSt11char_traitsIcESaIcEEESt14default_deleteIS5_EED2Ev
FN:371,_ZNSt10unique_ptrINSt7__cxx1112basic_stringIcSt11char_traitsIcESaIcEEESt14default_deleteIS5_EEaSEOS8_
FN:405,_ZNKSt10unique_ptrINSt7__cxx1118basic_stringstreamIcSt11char_traitsIcESaIcEEESt14default_deleteIS5_EEdeEv
FN:413,_ZNKSt10unique_ptrINSt7__cxx1112basic_stringIcSt11char_traitsIcESaIcEEESt14default_deleteIS5_EEptEv
FN:421,_ZNKSt10unique_ptrINSt7__cxx1112basic_stringIcSt11char_traitsIcESaIcEEESt14default_deleteIS5_EE3getEv
FN:421,_ZNKSt10unique_ptrINSt7__cxx1118basic_stringstreamIcSt11char_traitsIcESaIcEEESt14default_deleteIS5_EE3getEv
FN:426,_ZNSt10unique_ptrINSt7__cxx1118basic_stringstreamIcSt11char_traitsIcESaIcEEESt14default_deleteIS5_EE11get_deleterEv
FN:426,_ZNSt10unique_ptrINSt7__cxx1112basic_stringIcSt11char_traitsIcESaIcEEESt14default_deleteIS5_EE11get_deleterEv
FN:435,_ZNKSt10unique_ptrINSt7__cxx1112basic_stringIcSt11char_traitsIcESaIcEEESt14default_deleteIS5_EEcvbEv
FN:760,_ZSteqINSt7__cxx1112basic_stringIcSt11char_traitsIcESaIcEEESt14default_deleteIS5_EEbRKSt10unique_ptrIT_T0_EDn
FN:961,_ZSt11make_uniqueINSt7__cxx1112basic_stringIcSt11char_traitsIcESaIcEEEJEENSt9_MakeUniqIT_E15__single_objectEDpOT0_
FNDA:0,_ZSt11make_uniqueINSt7__cxx1112basic_stringIcSt11char_traitsIcESaIcEEEJEENSt9_MakeUniqIT_E15__single_objectEDpOT0_
FNDA:0,_ZNSt15__uniq_ptr_implINSt7__cxx1112basic_stringIcSt11char_traitsIcESaIcEEESt14default_deleteIS5_EEC2EPS5_
FNDA:0,_ZNSt10unique_ptrINSt7__cxx1112basic_stringIcSt11char_traitsIcESaIcEEESt14default_deleteIS5_EEC2IS7_vEEPS5_
FNDA:0,_ZSteqINSt7__cxx1112basic_stringIcSt11char_traitsIcESaIcEEESt14default_deleteIS5_EEbRKSt10unique_ptrIT_T0_EDn
FNDA:0,_ZNSt15__uniq_ptr_implINSt7__cxx1112basic_stringIcSt11char_traitsIcESaIcEEESt14default_deleteIS5_EE10_M_deleterEv
FNDA:606,_ZNKSt10unique_ptrINSt7__cxx1118basic_stringstreamIcSt11char_traitsIcESaIcEEESt14default_deleteIS5_EE3getEv
FNDA:0,_ZNSt15__uniq_ptr_dataINSt7__cxx1112basic_stringIcSt11char_traitsIcESaIcEEESt14default_deleteIS5_ELb1ELb1EEaSEOS8_
FNDA:0,_ZNSt15__uniq_ptr_implINSt7__cxx1112basic_stringIcSt11char_traitsIcESaIcEEESt14default_deleteIS5_EE5resetEPS5_
FNDA:128,_ZNSt15__uniq_ptr_implINSt7__cxx1118basic_stringstreamIcSt11char_traitsIcESaIcEEESt14default_deleteIS5_EE6_M_ptrEv
FNDA:31,_ZNSt15__uniq_ptr_implINSt7__cxx1112basic_stringIcSt11char_traitsIcESaIcEEESt14default_deleteIS5_EEC2Ev
FNDA:0,_ZNKSt14default_deleteINSt7__cxx1112basic_stringIcSt11char_traitsIcESaIcEEEEclEPS5_
FNDA:31,_ZNSt10unique_ptrINSt7__cxx1112basic_stringIcSt11char_traitsIcESaIcEEESt14default_deleteIS5_EED2Ev
FNDA:606,_ZNKSt15__uniq_ptr_implINSt7__cxx1118basic_stringstreamIcSt11char_traitsIcESaIcEEESt14default_deleteIS5_EE6_M_ptrEv
FNDA:542,_ZNKSt10unique_ptrINSt7__cxx1118basic_stringstreamIcSt11char_traitsIcESaIcEEESt14default_deleteIS5_EEdeEv
FNDA:31,_ZNSt10unique_ptrINSt7__cxx1112basic_stringIcSt11char_traitsIcESaIcEEESt14default_deleteIS5_EEC2IS7_vEEv
FNDA:0,_ZNKSt10unique_ptrINSt7__cxx1112basic_stringIcSt11char_traitsIcESaIcEEESt14default_deleteIS5_EEcvbEv
FNDA:0,_ZNKSt15__uniq_ptr_implINSt7__cxx1112basic_stringIcSt11char_traitsIcESaIcEEESt14default_deleteIS5_EE6_M_ptrEv
FNDA:64,_ZNSt15__uniq_ptr_implINSt7__cxx1118basic_stringstreamIcSt11char_traitsIcESaIcEEESt14default_deleteIS5_EE10_M_deleterEv
FNDA:64,_ZNSt10unique_ptrINSt7__cxx1118basic_stringstreamIcSt11char_traitsIcESaIcEEESt14default_deleteIS5_EED2Ev
FNDA:0,_ZNKSt10unique_ptrINSt7__cxx1112basic_stringIcSt11char_traitsIcESaIcEEESt14default_deleteIS5_EE3getEv
FNDA:0,_ZNSt10unique_ptrINSt7__cxx1112basic_stringIcSt11char_traitsIcESaIcEEESt14default_deleteIS5_EE11get_deleterEv
FNDA:31,_ZNSt15__uniq_ptr_implINSt7__cxx1112basic_stringIcSt11char_traitsIcESaIcEEESt14default_deleteIS5_EE6_M_ptrEv
FNDA:0,_ZNSt10unique_ptrINSt7__cxx1112basic_stringIcSt11char_traitsIcESaIcEEESt14default_deleteIS5_EEaSEOS8_
FNDA:0,_ZNKSt10unique_ptrINSt7__cxx1112basic_stringIcSt11char_traitsIcESaIcEEESt14default_deleteIS5_EEptEv
FNDA:0,_ZNSt15__uniq_ptr_implINSt7__cxx1112basic_stringIcSt11char_traitsIcESaIcEEESt14default_deleteIS5_EE7releaseEv
FNDA:64,_ZNSt10unique_ptrINSt7__cxx1118basic_stringstreamIcSt11char_traitsIcESaIcEEESt14default_deleteIS5_EE11get_deleterEv
FNDA:0,_ZNSt15__uniq_ptr_implINSt7__cxx1112basic_stringIcSt11char_traitsIcESaIcEEESt14default_deleteIS5_EEaSEOS8_
FNDA:64,_ZNKSt14default_deleteINSt7__cxx1118basic_stringstreamIcSt11char_traitsIcESaIcEEEEclEPS5_
FNF:28
FNH:12
DA:79,64
DA:85,64
DA:86,64
DA:154,31
DA:155,0
DA:165,0
DA:167,0
DA:168,0
DA:169,0
DA:172,159
DA:173,606
DA:174,64
DA:177,0
DA:179,0
DA:180,0
DA:181,0
DA:182,0
DA:183,0
DA:185,0
DA:187,0
DA:188,0
DA:189,0
DA:212,0
DA:269,31
DA:270,31
DA:271,31
DA:281,0
DA:282,0
DA:283,0
DA:355,95
DA:359,95
DA:360,95
DA:361,64
DA:362,95
DA:363,95
DA:371,0
DA:405,542
DA:407,542
DA:408,542
DA:413,0
DA:416,0
DA:421,606
DA:422,606
DA:426,64
DA:427,64
DA:435,0
DA:436,0
DA:760,0
DA:761,0
DA:961,0
DA:962,0
LF:51
LH:23
end_of_record
TN:
SF:/usr/include/c++/11/compare
FN:59,_ZNSt9__cmp_cat8__unspecC2EPS0_
FN:257,_ZSteqSt15strong_orderingNSt9__cmp_cat8__unspecE
FN:261,_ZSteqSt15strong_orderingS_
FN:264,_ZStltSt15strong_orderingNSt9__cmp_cat8__unspecE
FN:268,_ZStgtSt15strong_orderingNSt9__cmp_cat8__unspecE
FN:272,_ZStleSt15strong_orderingNSt9__cmp_cat8__unspecE
FN:276,_ZStgeSt15strong_orderingNSt9__cmp_cat8__unspecE
FNDA:2,_ZStleSt15strong_orderingNSt9__cmp_cat8__unspecE
FNDA:26,_ZNSt9__cmp_cat8__unspecC2EPS0_
FNDA:1,_ZStgtSt15strong_orderingNSt9__cmp_cat8__unspecE
FNDA:6,_ZSteqSt15strong_orderingS_
FNDA:1,_ZStltSt15strong_orderingNSt9__cmp_cat8__unspecE
FNDA:2,_ZStgeSt15strong_orderingNSt9__cmp_cat8__unspecE
FNDA:20,_ZSteqSt15strong_orderingNSt9__cmp_cat8__unspecE
FNF:7
FNH:7
DA:59,26
DA:235,6
DA:257,20
DA:258,20
DA:261,6
DA:264,1
DA:265,1
DA:268,1
DA:269,1
DA:272,2
DA:273,2
DA:276,2
DA:277,2
LF:13
LH:13
end_of_record
TN:
SF:/usr/include/c++/11/ext/alloc_traits.h
FN:97,_ZN9__gnu_cxx14__alloc_traitsISaIcEcE17_S_select_on_copyERKS1_
FNDA:101,_ZN9__gnu_cxx14__alloc_traitsISaIcEcE17_S_select_on_copyERKS1_
FNF:1
FNH:1
DA:97,101
DA:98,101
LF:2
LH:2
end_of_record
TN:
SF:/usr/include/c++/11/ext/new_allocator.h
FN:79,_ZN9__gnu_cxx13new_allocatorIcEC2Ev
FN:82,_ZN9__gnu_cxx13new_allocatorIcEC2ERKS1_
FN:103,_ZN9__gnu_cxx13new_allocatorIcE8allocateEmPKv
FN:132,_ZN9__gnu_cxx13new_allocatorIcE10deallocateEPcm
FN:197,_ZNK9__gnu_cxx13new_allocatorIcE11_M_max_sizeEv
FNDA:0,_ZN9__gnu_cxx13new_allocatorIcEC2ERKS1_
FNDA:154,_ZNK9__gnu_cxx13new_allocatorIcE11_M_max_sizeEv
FNDA:0,_ZN9__gnu_cxx13new_allocatorIcEC2Ev
FNDA:154,_ZN9__gnu_cxx13new_allocatorIcE8allocateEmPKv
FNDA:154,_ZN9__gnu_cxx13new_allocatorIcE10deallocateEPcm
FNF:5
FNH:3
DA:79,0
DA:82,0
DA:103,154
DA:111,154
DA:117,0
DA:127,154
DA:132,154
DA:145,154
DA:197,154
DA:200,154
LF:10
LH:7
end_of_record
TN:
SF:/usr/include/c++/11/ext/type_traits.h
FN:152,_ZN9__gnu_cxx17__is_null_pointerIcEEbPT_
FN:152,_ZN9__gnu_cxx17__is_null_pointerIKcEEbPT_
FNDA:85,_ZN9__gnu_cxx17__is_null_pointerIKcEEbPT_
FNDA:101,_ZN9__gnu_cxx17__is_null_pointerIcEEbPT_
FNF:2
FNH:2
DA:152,186
DA:153,186
LF:2
LH:2
end_of_record
TN:
SF:/usr/include/c++/11/initializer_list
FN:71,_ZNKSt16initializer_listIiE4sizeEv
FN:75,_ZNKSt16initializer_listIiE5beginEv
FN:79,_ZNKSt16initializer_listIiE3endEv
FNDA:32,_ZNKSt16initializer_listIiE3endEv
FNDA:32,_ZNKSt16initializer_listIiE4sizeEv
FNDA:64,_ZNKSt16initializer_listIiE5beginEv
FNF:3
FNH:3
DA:71,32
DA:75,64
DA:79,32
LF:3
LH:3
end_of_record
TN:
SF:/usr/include/c++/11/limits
FN:1274,_ZNSt14numeric_limitsImE3maxEv
FNDA:0,_ZNSt14numeric_limitsImE3maxEv
FNF:1
FNH:0
DA:1274,0
LF:1
LH:0
end_of_record
TN:
SF:/usr/include/c++/11/tuple
FN:80,_ZNSt10_Head_baseILm1ESt14default_deleteINSt7__cxx1112basic_stringIcSt11char_traitsIcESaIcEEEELb1EEC2Ev
FN:124,_ZNSt10_Head_baseILm1ESt14default_deleteINSt7__cxx1112basic_stringIcSt11char_traitsIcESaIcEEEELb1EE7_M_headERS8_
FN:124,_ZNSt10_Head_baseILm1ESt14default_deleteINSt7__cxx1118basic_stringstreamIcSt11char_traitsIcESaIcEEEELb1EE7_M_headERS8_
FN:189,_ZNSt10_Head_baseILm0EPNSt7__cxx1112basic_stringIcSt11char_traitsIcESaIcEEELb0EEC2Ev
FN:233,_ZNSt10_Head_baseILm0EPNSt7__cxx1112basic_stringIcSt11char_traitsIcESaIcEEELb0EE7_M_headERS7_
FN:233,_ZNSt10_Head_baseILm0EPNSt7__cxx1118basic_stringstreamIcSt11char_traitsIcESaIcEEELb0EE7_M_headERS7_
FN:236,_ZNSt10_Head_baseILm0EPNSt7__cxx1112basic_stringIcSt11char_traitsIcESaIcEEELb0EE7_M_headERKS7_
FN:236,_ZNSt10_Head_baseILm0EPNSt7__cxx1118basic_stringstreamIcSt11char_traitsIcESaIcEEELb0EE7_M_headERKS7_
FN:268,_ZNSt11_Tuple_implILm0EJPNSt7__cxx1118basic_stringstreamIcSt11char_traitsIcESaIcEEESt14default_deleteIS5_EEE7_M_headERS9_
FN:268,_ZNSt11_Tuple_implILm0EJPNSt7__cxx1112basic_stringIcSt11char_traitsIcESaIcEEESt14default_deleteIS5_EEE7_M_headERS9_
FN:271,_ZNSt11_Tuple_implILm0EJPNSt7__cxx1118basic_stringstreamIcSt11char_traitsIcESaIcEEESt14default_deleteIS5_EEE7_M_headERKS9_
FN:271,_ZNSt11_Tuple_implILm0EJPNSt7__cxx1112basic_stringIcSt11char_traitsIcESaIcEEESt14default_deleteIS5_EEE7_M_headERKS9_
FN:279,_ZNSt11_Tuple_implILm0EJPNSt7__cxx1112basic_stringIcSt11char_traitsIcESaIcEEESt14default_deleteIS5_EEEC2Ev
FN:424,_ZNSt11_Tuple_implILm1EJSt14default_deleteINSt7__cxx1112basic_stringIcSt11char_traitsIcESaIcEEEEEE7_M_headERS8_
FN:424,_ZNSt11_Tuple_implILm1EJSt14default_deleteINSt7__cxx1118basic_stringstreamIcSt11char_traitsIcESaIcEEEEEE7_M_headERS8_
FN:430,_ZNSt11_Tuple_implILm1EJSt14default_deleteINSt7__cxx1112basic_stringIcSt11char_traitsIcESaIcEEEEEEC2Ev
FN:1049,_ZNSt5tupleIJPNSt7__cxx1112basic_stringIcSt11char_traitsIcESaIcEEESt14default_deleteIS5_EEEC2ILb1ELb1EEEv
FN:1377,_ZSt12__get_helperILm1ESt14default_deleteINSt7__cxx1118basic_stringstreamIcSt11char_traitsIcESaIcEEEEJEERT0_RSt11_Tuple_implIXT_EJS8_DpT1_EE
FN:1377,_ZSt12__get_helperILm0EPNSt7__cxx1118basic_stringstreamIcSt11char_traitsIcESaIcEEEJSt14default_deleteIS5_EEERT0_RSt11_Tuple_implIXT_EJS9_DpT1_EE
FN:1377,_ZSt12__get_helperILm1ESt14default_deleteINSt7__cxx1112basic_stringIcSt11char_traitsIcESaIcEEEEJEERT0_RSt11_Tuple_implIXT_EJS8_DpT1_EE
FN:1377,_ZSt12__get_helperILm0EPNSt7__cxx1112basic_stringIcSt11char_traitsIcESaIcEEEJSt14default_deleteIS5_EEERT0_RSt11_Tuple_implIXT_EJS9_DpT1_EE
FN:1382,_ZSt12__get_helperILm0EPNSt7__cxx1118basic_stringstreamIcSt11char_traitsIcESaIcEEEJSt14default_deleteIS5_EEERKT0_RKSt11_Tuple_implIXT_EJS9_DpT1_EE
FN:1382,_ZSt12__get_helperILm0EPNSt7__cxx1112basic_stringIcSt11char_traitsIcESaIcEEEJSt14default_deleteIS5_EEERKT0_RKSt11_Tuple_implIXT_EJS9_DpT1_EE
FN:1393,_ZSt3getILm0EJPNSt7__cxx1118basic_stringstreamIcSt11char_traitsIcESaIcEEESt14default_deleteIS5_EEERNSt13tuple_elementIXT_ESt5tupleIJDpT0_EEE4typeERSD_
FN:1393,_ZSt3getILm1EJPNSt7__cxx1112basic_stringIcSt11char_traitsIcESaIcEEESt14default_deleteIS5_EEERNSt13tuple_elementIXT_ESt5tupleIJDpT0_EEE4typeERSD_
FN:1393,_ZSt3getILm1EJPNSt7__cxx1118basic_stringstreamIcSt11char_traitsIcESaIcEEESt14default_deleteIS5_EEERNSt13tuple_elementIXT_ESt5tupleIJDpT0_EEE4typeERSD_
FN:1393,_ZSt3getILm0EJPNSt7__cxx1112basic_stringIcSt11char_traitsIcESaIcEEESt14default_deleteIS5_EEERNSt13tuple_elementIXT_ESt5tupleIJDpT0_EEE4typeERSD_
FN:1399,_ZSt3getILm0EJPNSt7__cxx1118basic_stringstreamIcSt11char_traitsIcESaIcEEESt14default_deleteIS5_EEERKNSt13tuple_elementIXT_ESt5tupleIJDpT0_EEE4typeERKSD_
FN:1399,_ZSt3getILm0EJPNSt7__cxx1112basic_stringIcSt11char_traitsIcESaIcEEESt14default_deleteIS5_EEERKNSt13tuple_elementIXT_ESt5tupleIJDpT0_EEE4typeERKSD_
FNDA:64,_ZSt12__get_helperILm1ESt14default_deleteINSt7__cxx1118basic_stringstreamIcSt11char_traitsIcESaIcEEEEJEERT0_RSt11_Tuple_implIXT_EJS8_DpT1_EE
FNDA:31,_ZNSt10_Head_baseILm0EPNSt7__cxx1112basic_stringIcSt11char_traitsIcESaIcEEELb0EEC2Ev
FNDA:128,_ZNSt11_Tuple_implILm0EJPNSt7__cxx1118basic_stringstreamIcSt11char_traitsIcESaIcEEESt14default_deleteIS5_EEE7_M_headERS9_
FNDA:606,_ZNSt11_Tuple_implILm0EJPNSt7__cxx1118basic_stringstreamIcSt11char_traitsIcESaIcEEESt14default_deleteIS5_EEE7_M_headERKS9_
FNDA:0,_ZSt12__get_helperILm0EPNSt7__cxx1112basic_stringIcSt11char_traitsIcESaIcEEEJSt14default_deleteIS5_EEERKT0_RKSt11_Tuple_implIXT_EJS9_DpT1_EE
FNDA:128,_ZSt12__get_helperILm0EPNSt7__cxx1118basic_stringstreamIcSt11char_traitsIcESaIcEEEJSt14default_deleteIS5_EEERT0_RSt11_Tuple_implIXT_EJS9_DpT1_EE
FNDA:128,_ZNSt10_Head_baseILm0EPNSt7__cxx1118basic_stringstreamIcSt11char_traitsIcESaIcEEELb0EE7_M_headERS7_
FNDA:31,_ZNSt11_Tuple_implILm0EJPNSt7__cxx1112basic_stringIcSt11char_traitsIcESaIcEEESt14default_deleteIS5_EEE7_M_headERS9_
FNDA:0,_ZNSt10_Head_baseILm1ESt14default_deleteINSt7__cxx1112basic_stringIcSt11char_traitsIcESaIcEEEELb1EE7_M_headERS8_
FNDA:606,_ZSt3getILm0EJPNSt7__cxx1118basic_stringstreamIcSt11char_traitsIcESaIcEEESt14default_deleteIS5_EEERKNSt13tuple_elementIXT_ESt5tupleIJDpT0_EEE4typeERKSD_
FNDA:31,_ZNSt10_Head_baseILm0EPNSt7__cxx1112basic_stringIcSt11char_traitsIcESaIcEEELb0EE7_M_headERS7_
FNDA:0,_ZNSt10_Head_baseILm0EPNSt7__cxx1112basic_stringIcSt11char_traitsIcESaIcEEELb0EE7_M_headERKS7_
FNDA:606,_ZSt12__get_helperILm0EPNSt7__cxx1118basic_stringstreamIcSt11char_traitsIcESaIcEEEJSt14default_deleteIS5_EEERKT0_RKSt11_Tuple_implIXT_EJS9_DpT1_EE
FNDA:606,_ZNSt10_Head_baseILm0EPNSt7__cxx1118basic_stringstreamIcSt11char_traitsIcESaIcEEELb0EE7_M_headERKS7_
FNDA:0,_ZNSt11_Tuple_implILm0EJPNSt7__cxx1112basic_stringIcSt11char_traitsIcESaIcEEESt14default_deleteIS5_EEE7_M_headERKS9_
FNDA:64,_ZNSt10_Head_baseILm1ESt14default_deleteINSt7__cxx1118basic_stringstreamIcSt11char_traitsIcESaIcEEEELb1EE7_M_headERS8_
FNDA:0,_ZNSt11_Tuple_implILm1EJSt14default_deleteINSt7__cxx1112basic_stringIcSt11char_traitsIcESaIcEEEEEE7_M_headERS8_
FNDA:64,_ZSt3getILm1EJPNSt7__cxx1118basic_stringstreamIcSt11char_traitsIcESaIcEEESt14default_deleteIS5_EEERNSt13tuple_elementIXT_ESt5tupleIJDpT0_EEE4typeERSD_
FNDA:31,_ZSt3getILm0EJPNSt7__cxx1112basic_stringIcSt11char_traitsIcESaIcEEESt14default_deleteIS5_EEERNSt13tuple_elementIXT_ESt5tupleIJDpT0_EEE4typeERSD_
FNDA:0,_ZSt12__get_helperILm1ESt14default_deleteINSt7__cxx1112basic_stringIcSt11char_traitsIcESaIcEEEEJEERT0_RSt11_Tuple_implIXT_EJS8_DpT1_EE
FNDA:31,_ZSt12__get_helperILm0EPNSt7__cxx1112basic_stringIcSt11char_traitsIcESaIcEEEJSt14default_deleteIS5_EEERT0_RSt11_Tuple_implIXT_EJS9_DpT1_EE
FNDA:64,_ZNSt11_Tuple_implILm1EJSt14default_deleteINSt7__cxx1118basic_stringstreamIcSt11char_traitsIcESaIcEEEEEE7_M_headERS8_
FNDA:31,_ZNSt11_Tuple_implILm1EJSt14default_deleteINSt7__cxx1112basic_stringIcSt11char_traitsIcESaIcEEEEEEC2Ev
FNDA:31,_ZNSt5tupleIJPNSt7__cxx1112basic_stringIcSt11char_traitsIcESaIcEEESt14default_deleteIS5_EEEC2ILb1ELb1EEEv
FNDA:0,_ZSt3getILm0EJPNSt7__cxx1112basic_stringIcSt11char_traitsIcESaIcEEESt14default_deleteIS5_EEERKNSt13tuple_elementIXT_ESt5tupleIJDpT0_EEE4typeERKSD_
FNDA:31,_ZNSt11_Tuple_implILm0EJPNSt7__cxx1112basic_stringIcSt11char_traitsIcESaIcEEESt14default_deleteIS5_EEEC2Ev
FNDA:128,_ZSt3getILm0EJPNSt7__cxx1118basic_stringstreamIcSt11char_traitsIcESaIcEEESt14default_deleteIS5_EEERNSt13tuple_elementIXT_ESt5tupleIJDpT0_EEE4typeERSD_
FNDA:31,_ZNSt10_Head_baseILm1ESt14default_deleteINSt7__cxx1112basic_stringIcSt11char_traitsIcESaIcEEEELb1EEC2Ev
FNDA:0,_ZSt3getILm1EJPNSt7__cxx1112basic_stringIcSt11char_traitsIcESaIcEEESt14default_deleteIS5_EEERNSt13tuple_elementIXT_ESt5tupleIJDpT0_EEE4typeERSD_
FNF:29
FNH:21
DA:80,31
DA:81,31
DA:124,64
DA:189,31
DA:190,31
DA:233,159
DA:236,606
DA:268,159
DA:271,606
DA:279,31
DA:280,31
DA:424,64
DA:430,31
DA:431,31
DA:1049,31
DA:1051,31
DA:1377,223
DA:1378,223
DA:1382,606
DA:1383,606
DA:1393,223
DA:1394,223
DA:1399,606
DA:1400,606
LF:24
LH:24
end_of_record
TN:
SF:/usr/include/c++/11/type_traits
FN:3419,_ZSt21is_constant_evaluatedv
FNDA:786,_ZSt21is_constant_evaluatedv
FNF:1
FNH:1
DA:3419,786
DA:3420,786
LF:2
LH:2
end_of_record
TN:
SF:/usr/include/c++/11/typeinfo
FN:99,_ZNKSt9type_info4nameEv
FNDA:0,_ZNKSt9type_info4nameEv
FNF:1
FNH:0
DA:99,0
DA:100,0
LF:2
LH:0
end_of_record
