TN:
SF:/mnt/c/Users/senya/CLionProjects/fund_alg_4sem/lab1_5/cmake-build-debug/_deps/googletest-src/googletest/include/gtest/gtest-assertion-result.h
FN:155,161,_ZN7testing15AssertionResultC2IbEERKT_PNSt9enable_ifIXntsrSt14is_convertibleIS2_S0_E5valueEvE4typeE
FN:174,174,_ZNK7testing15AssertionResultcvbEv
FN:183,185,_ZNK7testing15AssertionResult7messageEv
FN:187,187,_ZNK7testing15AssertionResult15failure_messageEv
FN:191,194,_ZN7testing15AssertionResultlsIA12_cEERS0_RKT_
FN:191,194,_ZN7testing15AssertionResultlsIA3_cEERS0_RKT_
FN:191,194,_ZN7testing15AssertionResultlsIA5_cEERS0_RKT_
FN:191,194,_ZN7testing15AssertionResultlsINSt7__cxx1112basic_stringIcSt11char_traitsIcESaIcEEEEERS0_RKT_
FN:191,194,_ZN7testing15AssertionResultlsIPKcEERS0_RKT_
FN:206,209,_ZN7testing15AssertionResult13AppendMessageERKNS_7MessageE
FNDA:86,_ZN7testing15AssertionResultC2IbEERKT_PNSt9enable_ifIXntsrSt14is_convertibleIS2_S0_E5valueEvE4typeE
FNDA:86,_ZNK7testing15AssertionResultcvbEv
FNDA:0,_ZNK7testing15AssertionResult7messageEv
FNDA:0,_ZNK7testing15AssertionResult15failure_messageEv
FNDA:0,_ZN7testing15AssertionResultlsIA12_cEERS0_RKT_
FNDA:0,_ZN7testing15AssertionResultlsIA3_cEERS0_RKT_
FNDA:0,_ZN7testing15AssertionResultlsIA5_cEERS0_RKT_
FNDA:0,_ZN7testing15AssertionResultlsINSt7__cxx1112basic_stringIcSt11char_traitsIcESaIcEEEEERS0_RKT_
FNDA:0,_ZN7testing15AssertionResultlsIPKcEERS0_RKT_
FNDA:0,_ZN7testing15AssertionResult13AppendMessageERKNS_7MessageE
FNF:10
FNH:2
DA:155,86
DA:161,86
DA:174,86
DA:183,0
DA:184,0
DA:187,0
DA:191,0
DA:192,0
DA:193,0
DA:206,0
DA:207,0
DA:208,0
DA:209,0
LF:13
LH:3
end_of_record
TN:
SF:/mnt/c/Users/senya/CLionProjects/fund_alg_4sem/lab1_5/cmake-build-debug/_deps/googletest-src/googletest/include/gtest/gtest-message.h
FN:132,150,_ZN7testing7MessagelsIA12_cEERS0_RKT_
FN:132,150,_ZN7testing7MessagelsIA3_cEERS0_RKT_
FN:132,150,_ZN7testing7MessagelsIA5_cEERS0_RKT_
FN:132,150,_ZN7testing7MessagelsINSt7__cxx1112basic_stringIcSt11char_traitsIcESaIcEEEEERS0_RKT_
FN:182,189,_ZN7testing7MessagelsIKcEERS0_RKPT_
FNDA:0,_ZN7testing7MessagelsIA12_cEERS0_RKT_
FNDA:0,_ZN7testing7MessagelsIA3_cEERS0_RKT_
FNDA:0,_ZN7testing7MessagelsIA5_cEERS0_RKT_
FNDA:0,_ZN7testing7MessagelsINSt7__cxx1112basic_stringIcSt11char_traitsIcESaIcEEEEERS0_RKT_
FNDA:63,_ZN7testing7MessagelsIKcEERS0_RKPT_
FNF:5
FNH:1
DA:132,0
DA:148,0
DA:149,0
DA:182,63
DA:183,63
DA:184,0
DA:186,63
DA:188,63
LF:8
LH:4
end_of_record
TN:
SF:/mnt/c/Users/senya/CLionProjects/fund_alg_4sem/lab1_5/cmake-build-debug/_deps/googletest-src/googletest/include/gtest/gtest-printers.h
FN:1017,1023,_ZN7testing8internal21UniversalTersePrinterIPKcE5PrintES3_PSo
FN:1108,1113,_ZN7testing8internal14UniversalPrintINSt7__cxx1112basic_stringIcSt11char_traitsIcESaIcEEEEEvRKT_PSo
FN:1108,1113,_ZN7testing8internal14UniversalPrintIiEEvRKT_PSo
FN:1108,1113,_ZN7testing8internal14UniversalPrintImEEvRKT_PSo
FN:1148,1152,_ZN7testing13PrintToStringINSt7__cxx1112basic_stringIcSt11char_traitsIcESaIcEEEEES6_RKT_
FN:1148,1152,_ZN7testing13PrintToStringIPKcEENSt7__cxx1112basic_stringIcSt11char_traitsIcESaIcEEERKT_
FN:1148,1152,_ZN7testing13PrintToStringIiEENSt7__cxx1112basic_stringIcSt11char_traitsIcESaIcEEERKT_
FN:1148,1152,_ZN7testing13PrintToStringImEENSt7__cxx1112basic_stringIcSt11char_traitsIcESaIcEEERKT_
FN:221,226,_ZN7testing8internal52internal_stream_operator_without_lexical_name_lookup13StreamPrinter10PrintValueIivEEDTcvvlsdefp0_fp_ERKT_PSo
FN:221,226,_ZN7testing8internal52internal_stream_operator_without_lexical_name_lookup13StreamPrinter10PrintValueImvEEDTcvvlsdefp0_fp_ERKT_PSo
FN:326,337,_ZN7testing8internal17PrintWithFallbackIiEEvRKT_PSo
FN:326,337,_ZN7testing8internal17PrintWithFallbackImEEvRKT_PSo
FN:357,359,_ZN7testing8internal19FormatForComparisonINSt7__cxx1112basic_stringIcSt11char_traitsIcESaIcEEEA2_cE6FormatERKS7_
FN:357,359,_ZN7testing8internal19FormatForComparisonIiiE6FormatB5cxx11ERKi
FN:357,359,_ZN7testing8internal19FormatForComparisonIimE6FormatB5cxx11ERKi
FN:357,359,_ZN7testing8internal19FormatForComparisonImiE6FormatB5cxx11ERKm
FN:366,368,_ZN7testing8internal19FormatForComparisonIA2_cNSt7__cxx1112basic_stringIcSt11char_traitsIcESaIcEEEE6FormatEPKc
FN:411,411,_ZN7testing8internal19FormatForComparisonIPKcNSt7__cxx1112basic_stringIcSt11char_traitsIcESaIcEEEE6FormatES3_
FN:437,440,_ZN7testing8internal33FormatForComparisonFailureMessageIA2_cNSt7__cxx1112basic_stringIcSt11char_traitsIcESaIcEEEEES8_RKT_RKT0_
FN:437,440,_ZN7testing8internal33FormatForComparisonFailureMessageINSt7__cxx1112basic_stringIcSt11char_traitsIcESaIcEEEA2_cEES7_RKT_RKT0_
FN:437,440,_ZN7testing8internal33FormatForComparisonFailureMessageIiiEENSt7__cxx1112basic_stringIcSt11char_traitsIcESaIcEEERKT_RKT0_
FN:437,440,_ZN7testing8internal33FormatForComparisonFailureMessageIimEENSt7__cxx1112basic_stringIcSt11char_traitsIcESaIcEEERKT_RKT0_
FN:437,440,_ZN7testing8internal33FormatForComparisonFailureMessageImiEENSt7__cxx1112basic_stringIcSt11char_traitsIcESaIcEEERKT_RKT0_
FN:464,466,_ZN7testing8internal7PrintToIiEEvRKT_PSo
FN:464,466,_ZN7testing8internal7PrintToImEEvRKT_PSo
FN:660,662,_ZN7testing8internal7PrintToERKNSt7__cxx1112basic_stringIcSt11char_traitsIcESaIcEEEPSo
FN:799,809,_ZN7testing8internal16UniversalPrinterINSt7__cxx1112basic_stringIcSt11char_traitsIcESaIcEEEE5PrintERKS7_PSo
FN:799,809,_ZN7testing8internal16UniversalPrinterIiE5PrintERKiPSo
FN:799,809,_ZN7testing8internal16UniversalPrinterImE5PrintERKmPSo
FN:989,991,_ZN7testing8internal21UniversalTersePrinterINSt7__cxx1112basic_stringIcSt11char_traitsIcESaIcEEEE5PrintERKS7_PSo
FN:989,991,_ZN7testing8internal21UniversalTersePrinterIiE5PrintERKiPSo
FN:989,991,_ZN7testing8internal21UniversalTersePrinterImE5PrintERKmPSo
FNDA:0,_ZN7testing8internal21UniversalTersePrinterIPKcE5PrintES3_PSo
FNDA:0,_ZN7testing8internal14UniversalPrintINSt7__cxx1112basic_stringIcSt11char_traitsIcESaIcEEEEEvRKT_PSo
FNDA:0,_ZN7testing8internal14UniversalPrintIiEEvRKT_PSo
FNDA:0,_ZN7testing8internal14UniversalPrintImEEvRKT_PSo
FNDA:0,_ZN7testing13PrintToStringINSt7__cxx1112basic_stringIcSt11char_traitsIcESaIcEEEEES6_RKT_
FNDA:0,_ZN7testing13PrintToStringIPKcEENSt7__cxx1112basic_stringIcSt11char_traitsIcESaIcEEERKT_
FNDA:0,_ZN7testing13PrintToStringIiEENSt7__cxx1112basic_stringIcSt11char_traitsIcESaIcEEERKT_
FNDA:0,_ZN7testing13PrintToStringImEENSt7__cxx1112basic_stringIcSt11char_traitsIcESaIcEEERKT_
FNDA:0,_ZN7testing8internal52internal_stream_operator_without_lexical_name_lookup13StreamPrinter10PrintValueIivEEDTcvvlsdefp0_fp_ERKT_PSo
FNDA:0,_ZN7testing8internal52internal_stream_operator_without_lexical_name_lookup13StreamPrinter10PrintValueImvEEDTcvvlsdefp0_fp_ERKT_PSo
FNDA:0,_ZN7testing8internal17PrintWithFallbackIiEEvRKT_PSo
FNDA:0,_ZN7testing8internal17PrintWithFallbackImEEvRKT_PSo
FNDA:0,_ZN7testing8internal19FormatForComparisonINSt7__cxx1112basic_stringIcSt11char_traitsIcESaIcEEEA2_cE6FormatERKS7_
FNDA:0,_ZN7testing8internal19FormatForComparisonIiiE6FormatB5cxx11ERKi
FNDA:0,_ZN7testing8internal19FormatForComparisonIimE6FormatB5cxx11ERKi
FNDA:0,_ZN7testing8internal19FormatForComparisonImiE6FormatB5cxx11ERKm
FNDA:0,_ZN7testing8internal19FormatForComparisonIA2_cNSt7__cxx1112basic_stringIcSt11char_traitsIcESaIcEEEE6FormatEPKc
FNDA:0,_ZN7testing8internal19FormatForComparisonIPKcNSt7__cxx1112basic_stringIcSt11char_traitsIcESaIcEEEE6FormatES3_
FNDA:0,_ZN7testing8internal33FormatForComparisonFailureMessageIA2_cNSt7__cxx1112basic_stringIcSt11char_traitsIcESaIcEEEEES8_RKT_RKT0_
FNDA:0,_ZN7testing8internal33FormatForComparisonFailureMessageINSt7__cxx1112basic_stringIcSt11char_traitsIcESaIcEEEA2_cEES7_RKT_RKT0_
FNDA:0,_ZN7testing8internal33FormatForComparisonFailureMessageIiiEENSt7__cxx1112basic_stringIcSt11char_traitsIcESaIcEEERKT_RKT0_
FNDA:0,_ZN7testing8internal33FormatForComparisonFailureMessageIimEENSt7__cxx1112basic_stringIcSt11char_traitsIcESaIcEEERKT_RKT0_
FNDA:0,_ZN7testing8internal33FormatForComparisonFailureMessageImiEENSt7__cxx1112basic_stringIcSt11char_traitsIcESaIcEEERKT_RKT0_
FNDA:0,_ZN7testing8internal7PrintToIiEEvRKT_PSo
FNDA:0,_ZN7testing8internal7PrintToImEEvRKT_PSo
FNDA:0,_ZN7testing8internal7PrintToERKNSt7__cxx1112basic_stringIcSt11char_traitsIcESaIcEEEPSo
FNDA:0,_ZN7testing8internal16UniversalPrinterINSt7__cxx1112basic_stringIcSt11char_traitsIcESaIcEEEE5PrintERKS7_PSo
FNDA:0,_ZN7testing8internal16UniversalPrinterIiE5PrintERKiPSo
FNDA:0,_ZN7testing8internal16UniversalPrinterImE5PrintERKmPSo
FNDA:0,_ZN7testing8internal21UniversalTersePrinterINSt7__cxx1112basic_stringIcSt11char_traitsIcESaIcEEEE5PrintERKS7_PSo
FNDA:0,_ZN7testing8internal21UniversalTersePrinterIiE5PrintERKiPSo
FNDA:0,_ZN7testing8internal21UniversalTersePrinterImE5PrintERKmPSo
FNF:32
FNH:0
DA:221,0
DA:225,0
DA:226,0
DA:326,0
DA:336,0
DA:337,0
DA:357,0
DA:358,0
DA:366,0
DA:367,0
DA:411,0
DA:437,0
DA:439,0
DA:464,0
DA:465,0
DA:466,0
DA:660,0
DA:661,0
DA:662,0
DA:799,0
DA:808,0
DA:809,0
DA:989,0
DA:990,0
DA:991,0
DA:1017,0
DA:1018,0
DA:1019,0
DA:1021,0
DA:1023,0
DA:1108,0
DA:1112,0
DA:1113,0
DA:1148,0
DA:1149,0
DA:1150,0
DA:1151,0
DA:1152,0
LF:38
LH:0
end_of_record
TN:
SF:/mnt/c/Users/senya/CLionProjects/fund_alg_4sem/lab1_5/cmake-build-debug/_deps/googletest-src/googletest/include/gtest/gtest.h
FN:1359,1365,_ZN7testing8internal18CmpHelperEQFailureINSt7__cxx1112basic_stringIcSt11char_traitsIcESaIcEEEA2_cEENS_15AssertionResultEPKcSB_RKT_RKT0_
FN:1359,1365,_ZN7testing8internal18CmpHelperEQFailureIiiEENS_15AssertionResultEPKcS4_RKT_RKT0_
FN:1359,1365,_ZN7testing8internal18CmpHelperEQFailureImiEENS_15AssertionResultEPKcS4_RKT_RKT0_
FN:1376,1384,_ZN7testing8internal11CmpHelperEQINSt7__cxx1112basic_stringIcSt11char_traitsIcESaIcEEEA2_cEENS_15AssertionResultEPKcSB_RKT_RKT0_
FN:1376,1384,_ZN7testing8internal11CmpHelperEQIiiEENS_15AssertionResultEPKcS4_RKT_RKT0_
FN:1376,1384,_ZN7testing8internal11CmpHelperEQImiEENS_15AssertionResultEPKcS4_RKT_RKT0_
FN:1395,1399,_ZN7testing8internal8EqHelper7CompareINSt7__cxx1112basic_stringIcSt11char_traitsIcESaIcEEEA2_cLPv0EEENS_15AssertionResultEPKcSD_RKT_RKT0_
FN:1395,1399,_ZN7testing8internal8EqHelper7CompareIiiLPv0EEENS_15AssertionResultEPKcS6_RKT_RKT0_
FN:1395,1399,_ZN7testing8internal8EqHelper7CompareImiLPv0EEENS_15AssertionResultEPKcS6_RKT_RKT0_
FN:1428,1435,_ZN7testing8internal18CmpHelperOpFailureImiEENS_15AssertionResultEPKcS4_RKT_RKT0_S4_
FN:1463,1463,_ZN7testing8internal11CmpHelperGEImiEENS_15AssertionResultEPKcS4_RKT_RKT0_
FN:256,256,_ZN7testing4Test14SetUpTestSuiteEv
FN:264,264,_ZN7testing4Test17TearDownTestSuiteEv
FN:269,269,_ZN7testing4Test16TearDownTestCaseEv
FN:270,270,_ZN7testing4Test13SetUpTestCaseEv
FN:357,357,_ZN7testing4Test5SetupEv
FNDA:0,_ZN7testing8internal18CmpHelperEQFailureINSt7__cxx1112basic_stringIcSt11char_traitsIcESaIcEEEA2_cEENS_15AssertionResultEPKcSB_RKT_RKT0_
FNDA:0,_ZN7testing8internal18CmpHelperEQFailureIiiEENS_15AssertionResultEPKcS4_RKT_RKT0_
FNDA:0,_ZN7testing8internal18CmpHelperEQFailureImiEENS_15AssertionResultEPKcS4_RKT_RKT0_
FNDA:2,_ZN7testing8internal11CmpHelperEQINSt7__cxx1112basic_stringIcSt11char_traitsIcESaIcEEEA2_cEENS_15AssertionResultEPKcSB_RKT_RKT0_
FNDA:28,_ZN7testing8internal11CmpHelperEQIiiEENS_15AssertionResultEPKcS4_RKT_RKT0_
FNDA:32,_ZN7testing8internal11CmpHelperEQImiEENS_15AssertionResultEPKcS4_RKT_RKT0_
FNDA:2,_ZN7testing8internal8EqHelper7CompareINSt7__cxx1112basic_stringIcSt11char_traitsIcESaIcEEEA2_cLPv0EEENS_15AssertionResultEPKcSD_RKT_RKT0_
FNDA:28,_ZN7testing8internal8EqHelper7CompareIiiLPv0EEENS_15AssertionResultEPKcS6_RKT_RKT0_
FNDA:32,_ZN7testing8internal8EqHelper7CompareImiLPv0EEENS_15AssertionResultEPKcS6_RKT_RKT0_
FNDA:0,_ZN7testing8internal18CmpHelperOpFailureImiEENS_15AssertionResultEPKcS4_RKT_RKT0_S4_
FNDA:2,_ZN7testing8internal11CmpHelperGEImiEENS_15AssertionResultEPKcS4_RKT_RKT0_
FNDA:0,_ZN7testing4Test14SetUpTestSuiteEv
FNDA:0,_ZN7testing4Test17TearDownTestSuiteEv
FNDA:0,_ZN7testing4Test16TearDownTestCaseEv
FNDA:0,_ZN7testing4Test13SetUpTestCaseEv
FNDA:0,_ZN7testing4Test5SetupEv
FNF:16
FNH:7
DA:256,0
DA:264,0
DA:269,0
DA:270,0
DA:357,0
DA:1359,0
DA:1364,0
DA:1376,62
DA:1379,62
DA:1380,62
DA:1383,0
DA:1395,62
DA:1398,62
DA:1428,0
DA:1432,0
DA:1433,0
DA:1434,0
DA:1463,2
LF:18
LH:6
end_of_record
TN:
SF:/mnt/c/Users/senya/CLionProjects/fund_alg_4sem/lab1_5/cmake-build-debug/_deps/googletest-src/googletest/include/gtest/internal/gtest-internal.h
FN:419,425,_ZN7testing8internal9GetTypeIdIN12my_container4test10VectorTestEEEPKvv
FN:438,438,_ZN7testing8internal15TestFactoryBaseD0Ev
FN:438,438,_ZN7testing8internal15TestFactoryBaseD2Ev
FN:445,445,_ZN7testing8internal15TestFactoryBaseC2Ev
FN:457,457,_ZN7testing8internal15TestFactoryImplIN12my_container4test23VectorTest_PushPop_TestEE10CreateTestEv
FN:457,457,_ZN7testing8internal15TestFactoryImplIN12my_container4test24VectorTest_SwapTest_TestEE10CreateTestEv
FN:457,457,_ZN7testing8internal15TestFactoryImplIN12my_container4test25VectorTest_EdgeCases_TestEE10CreateTestEv
FN:457,457,_ZN7testing8internal15TestFactoryImplIN12my_container4test25VectorTest_Iterators_TestEE10CreateTestEv
FN:457,457,_ZN7testing8internal15TestFactoryImplIN12my_container4test27VectorTest_ClearResize_TestEE10CreateTestEv
FN:457,457,_ZN7testing8internal15TestFactoryImplIN12my_container4test27VectorTest_Comparisons_TestEE10CreateTestEv
FN:457,457,_ZN7testing8internal15TestFactoryImplIN12my_container4test27VectorTest_InsertErase_TestEE10CreateTestEv
FN:457,457,_ZN7testing8internal15TestFactoryImplIN12my_container4test29VectorTest_ElementAccess_TestEE10CreateTestEv
FN:457,457,_ZN7testing8internal15TestFactoryImplIN12my_container4test29VectorTest_FrontBackData_TestEE10CreateTestEv
FN:457,457,_ZN7testing8internal15TestFactoryImplIN12my_container4test29VectorTest_MoveSemantics_TestEE10CreateTestEv
FN:457,457,_ZN7testing8internal15TestFactoryImplIN12my_container4test30VectorTest_CopyAssignment_TestEE10CreateTestEv
FN:457,457,_ZN7testing8internal15TestFactoryImplIN12my_container4test30VectorTest_MoveAssignment_TestEE10CreateTestEv
FN:457,457,_ZN7testing8internal15TestFactoryImplIN12my_container4test31VectorTest_CapacityMethods_TestEE10CreateTestEv
FN:457,457,_ZN7testing8internal15TestFactoryImplIN12my_container4test31VectorTest_CopyConstructor_TestEE10CreateTestEv
FN:457,457,_ZN7testing8internal15TestFactoryImplIN12my_container4test31VectorTest_MoveConstructor_TestEE10CreateTestEv
FN:457,457,_ZN7testing8internal15TestFactoryImplIN12my_container4test34VectorTest_DefaultConstructor_TestEE10CreateTestEv
FN:457,457,_ZN7testing8internal15TestFactoryImplIN12my_container4test42VectorTest_InitializerListConstructor_TestEE10CreateTestEv
FN:478,479,_ZN7testing8internal12CodeLocationC2ERKNSt7__cxx1112basic_stringIcSt11char_traitsIcESaIcEEEi
FN:491,494,_ZN7testing8internal19GetNotDefaultOrNullEPFvvES2_
FN:506,525,_ZN7testing8internal16SuiteApiResolverIN12my_container4test10VectorTestEE19GetSetUpCaseOrSuiteEPKci
FN:527,546,_ZN7testing8internal16SuiteApiResolverIN12my_container4test10VectorTestEE22GetTearDownCaseOrSuiteEPKci
FN:843,843,_ZN7testing8internal14TrueWithStringC2Ev
FN:846,846,_ZNK7testing8internal14TrueWithStringcvbEv
FNDA:51,_ZN7testing8internal9GetTypeIdIN12my_container4test10VectorTestEEEPKvv
FNDA:0,_ZN7testing8internal15TestFactoryBaseD0Ev
FNDA:51,_ZN7testing8internal15TestFactoryBaseD2Ev
FNDA:51,_ZN7testing8internal15TestFactoryBaseC2Ev
FNDA:2,_ZN7testing8internal15TestFactoryImplIN12my_container4test23VectorTest_PushPop_TestEE10CreateTestEv
FNDA:2,_ZN7testing8internal15TestFactoryImplIN12my_container4test24VectorTest_SwapTest_TestEE10CreateTestEv
FNDA:2,_ZN7testing8internal15TestFactoryImplIN12my_container4test25VectorTest_EdgeCases_TestEE10CreateTestEv
FNDA:2,_ZN7testing8internal15TestFactoryImplIN12my_container4test25VectorTest_Iterators_TestEE10CreateTestEv
FNDA:2,_ZN7testing8internal15TestFactoryImplIN12my_container4test27VectorTest_ClearResize_TestEE10CreateTestEv
FNDA:2,_ZN7testing8internal15TestFactoryImplIN12my_container4test27VectorTest_Comparisons_TestEE10CreateTestEv
FNDA:2,_ZN7testing8internal15TestFactoryImplIN12my_container4test27VectorTest_InsertErase_TestEE10CreateTestEv
FNDA:2,_ZN7testing8internal15TestFactoryImplIN12my_container4test29VectorTest_ElementAccess_TestEE10CreateTestEv
FNDA:2,_ZN7testing8internal15TestFactoryImplIN12my_container4test29VectorTest_FrontBackData_TestEE10CreateTestEv
FNDA:2,_ZN7testing8internal15TestFactoryImplIN12my_container4test29VectorTest_MoveSemantics_TestEE10CreateTestEv
FNDA:2,_ZN7testing8internal15TestFactoryImplIN12my_container4test30VectorTest_CopyAssignment_TestEE10CreateTestEv
FNDA:2,_ZN7testing8internal15TestFactoryImplIN12my_container4test30VectorTest_MoveAssignment_TestEE10CreateTestEv
FNDA:2,_ZN7testing8internal15TestFactoryImplIN12my_container4test31VectorTest_CapacityMethods_TestEE10CreateTestEv
FNDA:2,_ZN7testing8internal15TestFactoryImplIN12my_container4test31VectorTest_CopyConstructor_TestEE10CreateTestEv
FNDA:2,_ZN7testing8internal15TestFactoryImplIN12my_container4test31VectorTest_MoveConstructor_TestEE10CreateTestEv
FNDA:2,_ZN7testing8internal15TestFactoryImplIN12my_container4test34VectorTest_DefaultConstructor_TestEE10CreateTestEv
FNDA:2,_ZN7testing8internal15TestFactoryImplIN12my_container4test42VectorTest_InitializerListConstructor_TestEE10CreateTestEv
FNDA:51,_ZN7testing8internal12CodeLocationC2ERKNSt7__cxx1112basic_stringIcSt11char_traitsIcESaIcEEEi
FNDA:204,_ZN7testing8internal19GetNotDefaultOrNullEPFvvES2_
FNDA:51,_ZN7testing8internal16SuiteApiResolverIN12my_container4test10VectorTestEE19GetSetUpCaseOrSuiteEPKci
FNDA:51,_ZN7testing8internal16SuiteApiResolverIN12my_container4test10VectorTestEE22GetTearDownCaseOrSuiteEPKci
FNDA:4,_ZN7testing8internal14TrueWithStringC2Ev
FNDA:4,_ZNK7testing8internal14TrueWithStringcvbEv
FNF:27
FNH:26
DA:419,51
DA:424,51
DA:438,51
DA:445,51
DA:457,34
DA:478,51
DA:479,51
DA:491,204
DA:493,204
DA:506,51
DA:510,51
DA:512,51
DA:514,51
DA:517,0
DA:519,51
DA:527,51
DA:531,51
DA:533,51
DA:535,51
DA:538,0
DA:540,51
DA:843,4
DA:846,4
LF:23
LH:21
end_of_record
TN:
SF:/mnt/c/Users/senya/CLionProjects/fund_alg_4sem/lab1_5/cmake-build-debug/_deps/googletest-src/googletest/include/gtest/internal/gtest-port.h
FN:1042,1042,_ZN7testing8internal8GTestLog9GetStreamEv
FNDA:0,_ZN7testing8internal8GTestLog9GetStreamEv
FNF:1
FNH:0
DA:1042,0
LF:1
LH:0
end_of_record
TN:
SF:/mnt/c/Users/senya/CLionProjects/fund_alg_4sem/lab1_5/cmake-build-debug/_deps/googletest-src/googletest/include/gtest/internal/gtest-type-util.h
FN:61,87,_ZN7testing8internal31CanonicalizeForStdLibVersioningENSt7__cxx1112basic_stringIcSt11char_traitsIcESaIcEEE
FN:91,121,_ZN7testing8internal11GetTypeNameB5cxx11ERKSt9type_info
FNDA:0,_ZN7testing8internal31CanonicalizeForStdLibVersioningENSt7__cxx1112basic_stringIcSt11char_traitsIcESaIcEEE
FNDA:0,_ZN7testing8internal11GetTypeNameB5cxx11ERKSt9type_info
FNF:2
FNH:0
DA:61,0
DA:63,0
DA:64,0
DA:65,0
DA:67,0
DA:75,0
DA:78,0
DA:79,0
DA:80,0
DA:83,0
DA:84,0
DA:86,0
DA:91,0
DA:92,0
DA:94,0
DA:100,0
DA:101,0
DA:102,0
DA:103,0
DA:121,0
LF:20
LH:0
end_of_record
TN:
SF:/mnt/c/Users/senya/CLionProjects/fund_alg_4sem/lab1_5/include/container.h
FN:13,13,_ZN9ContainerINSt7__cxx1112basic_stringIcSt11char_traitsIcESaIcEEEED0Ev
FN:13,13,_ZN9ContainerINSt7__cxx1112basic_stringIcSt11char_traitsIcESaIcEEEED2Ev
FN:13,13,_ZN9ContainerIiED0Ev
FN:13,13,_ZN9ContainerIiED2Ev
FN:9,9,_ZN9ContainerINSt7__cxx1112basic_stringIcSt11char_traitsIcESaIcEEEEC2Ev
FN:9,9,_ZN9ContainerIiEC2Ev
FNDA:0,_ZN9ContainerINSt7__cxx1112basic_stringIcSt11char_traitsIcESaIcEEEED0Ev
FNDA:70,_ZN9ContainerINSt7__cxx1112basic_stringIcSt11char_traitsIcESaIcEEEED2Ev
FNDA:0,_ZN9ContainerIiED0Ev
FNDA:124,_ZN9ContainerIiED2Ev
FNDA:70,_ZN9ContainerINSt7__cxx1112basic_stringIcSt11char_traitsIcESaIcEEEEC2Ev
FNDA:124,_ZN9ContainerIiEC2Ev
FNF:6
FNH:4
DA:9,194
DA:13,194
LF:2
LH:2
end_of_record
TN:
SF:/mnt/c/Users/senya/CLionProjects/fund_alg_4sem/lab1_5/include/vector.h
FN:103,105,_ZNK12my_container6VectorIiEgtERKS1_
FN:108,110,_ZNK12my_container6VectorIiEgeERKS1_
FN:113,115,_ZNK12my_container6VectorIiEltERKS1_
FN:118,120,_ZNK12my_container6VectorIiEleERKS1_
FN:123,125,_ZNK12my_container6VectorIiEeqERKS1_
FN:128,130,_ZNK12my_container6VectorIiEssERKS1_
FN:170,184,_ZN12my_container6VectorIiE5eraseEPi
FN:203,207,_ZN12my_container6VectorIiE4swapERS1_
FN:233,250,_ZN12my_container6VectorIiE6insertEPKiRS2_
FN:253,270,_ZN12my_container6VectorIiE6insertEPKiOi
FN:273,281,_ZN12my_container6VectorIiE13shrink_to_fitEv
FN:289,291,_ZN12my_container6VectorIiE4dataEv
FN:294,296,_ZN12my_container6VectorIiE5frontEv
FN:304,306,_ZN12my_container6VectorIiE4backEv
FN:314,319,_ZN12my_container6VectorIiE2atEm
FN:330,332,_ZN12my_container6VectorINSt7__cxx1112basic_stringIcSt11char_traitsIcESaIcEEEEixEm
FN:330,332,_ZN12my_container6VectorIiEixEm
FN:340,349,_ZN12my_container6VectorINSt7__cxx1112basic_stringIcSt11char_traitsIcESaIcEEEEaSEOS7_
FN:340,349,_ZN12my_container6VectorIiEaSEOS1_
FN:352,354,_ZN12my_container6VectorINSt7__cxx1112basic_stringIcSt11char_traitsIcESaIcEEEE5clearEv
FN:352,354,_ZN12my_container6VectorIiE5clearEv
FN:357,364,_ZN12my_container6VectorIiEaSERKS1_
FN:367,369,_ZNK12my_container6VectorIiE5beginEv
FN:372,374,_ZNK12my_container6VectorIiE3endEv
FN:377,380,_ZN12my_container6VectorINSt7__cxx1112basic_stringIcSt11char_traitsIcESaIcEEEEC2ERKSt16initializer_listIS6_E
FN:377,380,_ZN12my_container6VectorIiEC2ERKSt16initializer_listIiE
FN:383,387,_ZN12my_container6VectorINSt7__cxx1112basic_stringIcSt11char_traitsIcESaIcEEEEC2EOS7_
FN:383,387,_ZN12my_container6VectorIiEC2EOS1_
FN:390,392,_ZNK12my_container6VectorINSt7__cxx1112basic_stringIcSt11char_traitsIcESaIcEEEE5emptyEv
FN:390,392,_ZNK12my_container6VectorIiE5emptyEv
FN:395,397,_ZNK12my_container6VectorINSt7__cxx1112basic_stringIcSt11char_traitsIcESaIcEEEE4sizeEv
FN:395,397,_ZNK12my_container6VectorIiE4sizeEv
FN:400,402,_ZNK12my_container6VectorINSt7__cxx1112basic_stringIcSt11char_traitsIcESaIcEEEE8capacityEv
FN:400,402,_ZNK12my_container6VectorIiE8capacityEv
FN:405,407,_ZNK12my_container6VectorIiE6cbeginEv
FN:410,412,_ZN12my_container6VectorINSt7__cxx1112basic_stringIcSt11char_traitsIcESaIcEEEE5beginEv
FN:410,412,_ZN12my_container6VectorIiE5beginEv
FN:420,422,_ZN12my_container6VectorIiE3endEv
FN:425,438,_ZN12my_container6VectorIiE6resizeEmRKi
FN:441,446,_ZN12my_container6VectorIiEC2ERKS1_
FN:449,453,_ZN12my_container6VectorINSt7__cxx1112basic_stringIcSt11char_traitsIcESaIcEEEED0Ev
FN:449,453,_ZN12my_container6VectorINSt7__cxx1112basic_stringIcSt11char_traitsIcESaIcEEEED2Ev
FN:449,453,_ZN12my_container6VectorIiED0Ev
FN:449,453,_ZN12my_container6VectorIiED2Ev
FN:465,468,_ZN12my_container6VectorINSt7__cxx1112basic_stringIcSt11char_traitsIcESaIcEEEEC2Em
FN:465,468,_ZN12my_container6VectorIiEC2Em
FN:76,85,_ZN12my_container6VectorINSt7__cxx1112basic_stringIcSt11char_traitsIcESaIcEEEE7reserveEm
FN:76,85,_ZN12my_container6VectorIiE7reserveEm
FN:88,90,_ZN12my_container6VectorIiE8pop_backEv
FN:98,100,_ZN12my_container6VectorIiE9push_backEOi
FNDA:2,_ZNK12my_container6VectorIiEgtERKS1_
FNDA:2,_ZNK12my_container6VectorIiEgeERKS1_
FNDA:2,_ZNK12my_container6VectorIiEltERKS1_
FNDA:2,_ZNK12my_container6VectorIiEleERKS1_
FNDA:4,_ZNK12my_container6VectorIiEeqERKS1_
FNDA:16,_ZNK12my_container6VectorIiEssERKS1_
FNDA:6,_ZN12my_container6VectorIiE5eraseEPi
FNDA:2,_ZN12my_container6VectorIiE4swapERS1_
FNDA:6,_ZN12my_container6VectorIiE6insertEPKiRS2_
FNDA:4,_ZN12my_container6VectorIiE6insertEPKiOi
FNDA:2,_ZN12my_container6VectorIiE13shrink_to_fitEv
FNDA:2,_ZN12my_container6VectorIiE4dataEv
FNDA:2,_ZN12my_container6VectorIiE5frontEv
FNDA:2,_ZN12my_container6VectorIiE4backEv
FNDA:4,_ZN12my_container6VectorIiE2atEm
FNDA:2,_ZN12my_container6VectorINSt7__cxx1112basic_stringIcSt11char_traitsIcESaIcEEEEixEm
FNDA:16,_ZN12my_container6VectorIiEixEm
FNDA:34,_ZN12my_container6VectorINSt7__cxx1112basic_stringIcSt11char_traitsIcESaIcEEEEaSEOS7_
FNDA:36,_ZN12my_container6VectorIiEaSEOS1_
FNDA:34,_ZN12my_container6VectorINSt7__cxx1112basic_stringIcSt11char_traitsIcESaIcEEEE5clearEv
FNDA:38,_ZN12my_container6VectorIiE5clearEv
FNDA:2,_ZN12my_container6VectorIiEaSERKS1_
FNDA:36,_ZNK12my_container6VectorIiE5beginEv
FNDA:36,_ZNK12my_container6VectorIiE3endEv
FNDA:34,_ZN12my_container6VectorINSt7__cxx1112basic_stringIcSt11char_traitsIcESaIcEEEEC2ERKSt16initializer_listIS6_E
FNDA:46,_ZN12my_container6VectorIiEC2ERKSt16initializer_listIiE
FNDA:2,_ZN12my_container6VectorINSt7__cxx1112basic_stringIcSt11char_traitsIcESaIcEEEEC2EOS7_
FNDA:2,_ZN12my_container6VectorIiEC2EOS1_
FNDA:2,_ZNK12my_container6VectorINSt7__cxx1112basic_stringIcSt11char_traitsIcESaIcEEEE5emptyEv
FNDA:8,_ZNK12my_container6VectorIiE5emptyEv
FNDA:0,_ZNK12my_container6VectorINSt7__cxx1112basic_stringIcSt11char_traitsIcESaIcEEEE4sizeEv
FNDA:28,_ZNK12my_container6VectorIiE4sizeEv
FNDA:0,_ZNK12my_container6VectorINSt7__cxx1112basic_stringIcSt11char_traitsIcESaIcEEEE8capacityEv
FNDA:8,_ZNK12my_container6VectorIiE8capacityEv
FNDA:2,_ZNK12my_container6VectorIiE6cbeginEv
FNDA:34,_ZN12my_container6VectorINSt7__cxx1112basic_stringIcSt11char_traitsIcESaIcEEEE5beginEv
FNDA:66,_ZN12my_container6VectorIiE5beginEv
FNDA:44,_ZN12my_container6VectorIiE3endEv
FNDA:6,_ZN12my_container6VectorIiE6resizeEmRKi
FNDA:2,_ZN12my_container6VectorIiEC2ERKS1_
FNDA:0,_ZN12my_container6VectorINSt7__cxx1112basic_stringIcSt11char_traitsIcESaIcEEEED0Ev
FNDA:70,_ZN12my_container6VectorINSt7__cxx1112basic_stringIcSt11char_traitsIcESaIcEEEED2Ev
FNDA:0,_ZN12my_container6VectorIiED0Ev
FNDA:124,_ZN12my_container6VectorIiED2Ev
FNDA:68,_ZN12my_container6VectorINSt7__cxx1112basic_stringIcSt11char_traitsIcESaIcEEEEC2Em
FNDA:122,_ZN12my_container6VectorIiEC2Em
FNDA:34,_ZN12my_container6VectorINSt7__cxx1112basic_stringIcSt11char_traitsIcESaIcEEEE7reserveEm
FNDA:38,_ZN12my_container6VectorIiE7reserveEm
FNDA:4,_ZN12my_container6VectorIiE8pop_backEv
FNDA:6,_ZN12my_container6VectorIiE9push_backEOi
FNF:50
FNH:46
DA:60,8
DA:76,72
DA:77,72
DA:78,2
DA:79,2
DA:80,2
DA:81,2
DA:82,2
DA:83,2
DA:85,72
DA:88,4
DA:89,4
DA:90,2
DA:98,6
DA:99,6
DA:100,6
DA:103,2
DA:104,2
DA:108,2
DA:109,2
DA:113,2
DA:114,2
DA:118,2
DA:119,2
DA:123,4
DA:124,4
DA:128,16
DA:129,16
DA:170,6
DA:171,6
DA:172,2
DA:174,4
DA:175,0
DA:177,4
DA:178,10
DA:179,6
DA:181,4
DA:183,4
DA:203,2
DA:204,2
DA:205,2
DA:206,2
DA:207,2
DA:233,6
DA:234,6
DA:235,0
DA:237,6
DA:238,6
DA:239,0
DA:240,0
DA:241,0
DA:243,6
DA:244,6
DA:245,0
DA:247,6
DA:248,6
DA:249,6
DA:253,4
DA:254,4
DA:255,0
DA:257,4
DA:258,4
DA:259,2
DA:260,2
DA:261,2
DA:263,4
DA:264,12
DA:265,8
DA:267,4
DA:268,4
DA:269,4
DA:273,2
DA:274,2
DA:275,2
DA:276,2
DA:277,2
DA:278,2
DA:279,2
DA:281,2
DA:289,2
DA:290,2
DA:294,2
DA:295,2
DA:304,2
DA:305,2
DA:314,4
DA:315,4
DA:316,2
DA:318,2
DA:330,18
DA:331,18
DA:340,70
DA:341,70
DA:342,70
DA:343,70
DA:344,70
DA:345,70
DA:346,70
DA:348,70
DA:352,72
DA:353,72
DA:354,72
DA:357,2
DA:358,2
DA:359,2
DA:360,2
DA:361,2
DA:363,2
DA:367,36
DA:368,36
DA:372,36
DA:373,36
DA:377,80
DA:378,80
DA:379,80
DA:380,80
DA:383,4
DA:384,4
DA:385,4
DA:386,4
DA:387,4
DA:390,10
DA:391,10
DA:395,28
DA:396,28
DA:400,8
DA:401,8
DA:405,2
DA:406,2
DA:410,100
DA:411,100
DA:420,44
DA:421,44
DA:425,6
DA:426,6
DA:427,4
DA:428,4
DA:429,4
DA:430,4
DA:431,4
DA:432,4
DA:434,28
DA:435,22
DA:437,6
DA:438,6
DA:441,2
DA:442,2
DA:443,2
DA:444,2
DA:446,2
DA:449,194
DA:450,462
DA:451,194
DA:452,194
DA:453,384
DA:465,190
DA:466,462
DA:467,190
DA:468,190
LF:159
LH:152
end_of_record
TN:
SF:/mnt/c/Users/senya/CLionProjects/fund_alg_4sem/lab1_5/test/test_vector.cpp
FN:103,103,_ZN12my_container4test27VectorTest_Comparisons_Test8TestBodyEv
FN:103,103,_ZN12my_container4test27VectorTest_Comparisons_TestC2Ev
FN:103,103,_ZN12my_container4test27VectorTest_Comparisons_TestD0Ev
FN:103,103,_ZN12my_container4test27VectorTest_Comparisons_TestD2Ev
FN:11,14,_ZN12my_container4test10VectorTest5SetUpEv
FN:116,116,_ZN12my_container4test24VectorTest_SwapTest_Test8TestBodyEv
FN:116,116,_ZN12my_container4test24VectorTest_SwapTest_TestC2Ev
FN:116,116,_ZN12my_container4test24VectorTest_SwapTest_TestD0Ev
FN:116,116,_ZN12my_container4test24VectorTest_SwapTest_TestD2Ev
FN:124,130,_ZN12my_container4test25VectorTest_Iterators_Test8TestBodyEv
FN:124,130,_ZN12my_container4test25VectorTest_Iterators_TestC2Ev
FN:124,130,_ZN12my_container4test25VectorTest_Iterators_TestD0Ev
FN:124,130,_ZN12my_container4test25VectorTest_Iterators_TestD2Ev
FN:132,132,_ZN12my_container4test25VectorTest_EdgeCases_Test8TestBodyEv
FN:132,132,_ZN12my_container4test25VectorTest_EdgeCases_TestC2Ev
FN:132,132,_ZN12my_container4test25VectorTest_EdgeCases_TestD0Ev
FN:132,132,_ZN12my_container4test25VectorTest_EdgeCases_TestD2Ev
FN:141,141,_ZN12my_container4test29VectorTest_MoveSemantics_Test8TestBodyEv
FN:141,141,_ZN12my_container4test29VectorTest_MoveSemantics_TestC2Ev
FN:141,141,_ZN12my_container4test29VectorTest_MoveSemantics_TestD0Ev
FN:141,141,_ZN12my_container4test29VectorTest_MoveSemantics_TestD2Ev
FN:21,21,_ZN12my_container4test34VectorTest_DefaultConstructor_Test8TestBodyEv
FN:21,21,_ZN12my_container4test34VectorTest_DefaultConstructor_TestC2Ev
FN:21,21,_ZN12my_container4test34VectorTest_DefaultConstructor_TestD0Ev
FN:21,21,_ZN12my_container4test34VectorTest_DefaultConstructor_TestD2Ev
FN:26,26,_ZN12my_container4test31VectorTest_CopyConstructor_Test8TestBodyEv
FN:26,26,_ZN12my_container4test31VectorTest_CopyConstructor_TestC2Ev
FN:26,26,_ZN12my_container4test31VectorTest_CopyConstructor_TestD0Ev
FN:26,26,_ZN12my_container4test31VectorTest_CopyConstructor_TestD2Ev
FN:32,32,_ZN12my_container4test31VectorTest_MoveConstructor_Test8TestBodyEv
FN:32,32,_ZN12my_container4test31VectorTest_MoveConstructor_TestC2Ev
FN:32,32,_ZN12my_container4test31VectorTest_MoveConstructor_TestD0Ev
FN:32,32,_ZN12my_container4test31VectorTest_MoveConstructor_TestD2Ev
FN:38,38,_ZN12my_container4test42VectorTest_InitializerListConstructor_Test8TestBodyEv
FN:38,38,_ZN12my_container4test42VectorTest_InitializerListConstructor_TestC2Ev
FN:38,38,_ZN12my_container4test42VectorTest_InitializerListConstructor_TestD0Ev
FN:38,38,_ZN12my_container4test42VectorTest_InitializerListConstructor_TestD2Ev
FN:43,43,_ZN12my_container4test30VectorTest_CopyAssignment_Test8TestBodyEv
FN:43,43,_ZN12my_container4test30VectorTest_CopyAssignment_TestC2Ev
FN:43,43,_ZN12my_container4test30VectorTest_CopyAssignment_TestD0Ev
FN:43,43,_ZN12my_container4test30VectorTest_CopyAssignment_TestD2Ev
FN:50,55,_ZN12my_container4test30VectorTest_MoveAssignment_Test8TestBodyEv
FN:50,55,_ZN12my_container4test30VectorTest_MoveAssignment_TestC2Ev
FN:50,55,_ZN12my_container4test30VectorTest_MoveAssignment_TestD0Ev
FN:50,55,_ZN12my_container4test30VectorTest_MoveAssignment_TestD2Ev
FN:57,57,_ZN12my_container4test29VectorTest_ElementAccess_Test8TestBodyEv
FN:57,57,_ZN12my_container4test29VectorTest_ElementAccess_TestC2Ev
FN:57,57,_ZN12my_container4test29VectorTest_ElementAccess_TestD0Ev
FN:57,57,_ZN12my_container4test29VectorTest_ElementAccess_TestD2Ev
FN:65,65,_ZN12my_container4test29VectorTest_FrontBackData_Test8TestBodyEv
FN:65,65,_ZN12my_container4test29VectorTest_FrontBackData_TestC2Ev
FN:65,65,_ZN12my_container4test29VectorTest_FrontBackData_TestD0Ev
FN:65,65,_ZN12my_container4test29VectorTest_FrontBackData_TestD2Ev
FN:71,71,_ZN12my_container4test31VectorTest_CapacityMethods_Test8TestBodyEv
FN:71,71,_ZN12my_container4test31VectorTest_CapacityMethods_TestC2Ev
FN:71,71,_ZN12my_container4test31VectorTest_CapacityMethods_TestD0Ev
FN:71,71,_ZN12my_container4test31VectorTest_CapacityMethods_TestD2Ev
FN:79,84,_ZN12my_container4test23VectorTest_PushPop_Test8TestBodyEv
FN:79,84,_ZN12my_container4test23VectorTest_PushPop_TestC2Ev
FN:79,84,_ZN12my_container4test23VectorTest_PushPop_TestD0Ev
FN:79,84,_ZN12my_container4test23VectorTest_PushPop_TestD2Ev
FN:86,86,_ZN12my_container4test27VectorTest_InsertErase_Test8TestBodyEv
FN:86,86,_ZN12my_container4test27VectorTest_InsertErase_TestC2Ev
FN:86,86,_ZN12my_container4test27VectorTest_InsertErase_TestD0Ev
FN:86,86,_ZN12my_container4test27VectorTest_InsertErase_TestD2Ev
FN:95,101,_ZN12my_container4test27VectorTest_ClearResize_Test8TestBodyEv
FN:95,101,_ZN12my_container4test27VectorTest_ClearResize_TestC2Ev
FN:95,101,_ZN12my_container4test27VectorTest_ClearResize_TestD0Ev
FN:95,101,_ZN12my_container4test27VectorTest_ClearResize_TestD2Ev
FNDA:2,_ZN12my_container4test27VectorTest_Comparisons_Test8TestBodyEv
FNDA:2,_ZN12my_container4test27VectorTest_Comparisons_TestC2Ev
FNDA:2,_ZN12my_container4test27VectorTest_Comparisons_TestD0Ev
FNDA:2,_ZN12my_container4test27VectorTest_Comparisons_TestD2Ev
FNDA:34,_ZN12my_container4test10VectorTest5SetUpEv
FNDA:2,_ZN12my_container4test24VectorTest_SwapTest_Test8TestBodyEv
FNDA:2,_ZN12my_container4test24VectorTest_SwapTest_TestC2Ev
FNDA:2,_ZN12my_container4test24VectorTest_SwapTest_TestD0Ev
FNDA:2,_ZN12my_container4test24VectorTest_SwapTest_TestD2Ev
FNDA:2,_ZN12my_container4test25VectorTest_Iterators_Test8TestBodyEv
FNDA:2,_ZN12my_container4test25VectorTest_Iterators_TestC2Ev
FNDA:2,_ZN12my_container4test25VectorTest_Iterators_TestD0Ev
FNDA:2,_ZN12my_container4test25VectorTest_Iterators_TestD2Ev
FNDA:2,_ZN12my_container4test25VectorTest_EdgeCases_Test8TestBodyEv
FNDA:2,_ZN12my_container4test25VectorTest_EdgeCases_TestC2Ev
FNDA:2,_ZN12my_container4test25VectorTest_EdgeCases_TestD0Ev
FNDA:2,_ZN12my_container4test25VectorTest_EdgeCases_TestD2Ev
FNDA:2,_ZN12my_container4test29VectorTest_MoveSemantics_Test8TestBodyEv
FNDA:2,_ZN12my_container4test29VectorTest_MoveSemantics_TestC2Ev
FNDA:2,_ZN12my_container4test29VectorTest_MoveSemantics_TestD0Ev
FNDA:2,_ZN12my_container4test29VectorTest_MoveSemantics_TestD2Ev
FNDA:2,_ZN12my_container4test34VectorTest_DefaultConstructor_Test8TestBodyEv
FNDA:2,_ZN12my_container4test34VectorTest_DefaultConstructor_TestC2Ev
FNDA:2,_ZN12my_container4test34VectorTest_DefaultConstructor_TestD0Ev
FNDA:2,_ZN12my_container4test34VectorTest_DefaultConstructor_TestD2Ev
FNDA:2,_ZN12my_container4test31VectorTest_CopyConstructor_Test8TestBodyEv
FNDA:2,_ZN12my_container4test31VectorTest_CopyConstructor_TestC2Ev
FNDA:2,_ZN12my_container4test31VectorTest_CopyConstructor_TestD0Ev
FNDA:2,_ZN12my_container4test31VectorTest_CopyConstructor_TestD2Ev
FNDA:2,_ZN12my_container4test31VectorTest_MoveConstructor_Test8TestBodyEv
FNDA:2,_ZN12my_container4test31VectorTest_MoveConstructor_TestC2Ev
FNDA:2,_ZN12my_container4test31VectorTest_MoveConstructor_TestD0Ev
FNDA:2,_ZN12my_container4test31VectorTest_MoveConstructor_TestD2Ev
FNDA:2,_ZN12my_container4test42VectorTest_InitializerListConstructor_Test8TestBodyEv
FNDA:2,_ZN12my_container4test42VectorTest_InitializerListConstructor_TestC2Ev
FNDA:2,_ZN12my_container4test42VectorTest_InitializerListConstructor_TestD0Ev
FNDA:2,_ZN12my_container4test42VectorTest_InitializerListConstructor_TestD2Ev
FNDA:2,_ZN12my_container4test30VectorTest_CopyAssignment_Test8TestBodyEv
FNDA:2,_ZN12my_container4test30VectorTest_CopyAssignment_TestC2Ev
FNDA:2,_ZN12my_container4test30VectorTest_CopyAssignment_TestD0Ev
FNDA:2,_ZN12my_container4test30VectorTest_CopyAssignment_TestD2Ev
FNDA:2,_ZN12my_container4test30VectorTest_MoveAssignment_Test8TestBodyEv
FNDA:2,_ZN12my_container4test30VectorTest_MoveAssignment_TestC2Ev
FNDA:2,_ZN12my_container4test30VectorTest_MoveAssignment_TestD0Ev
FNDA:2,_ZN12my_container4test30VectorTest_MoveAssignment_TestD2Ev
FNDA:2,_ZN12my_container4test29VectorTest_ElementAccess_Test8TestBodyEv
FNDA:2,_ZN12my_container4test29VectorTest_ElementAccess_TestC2Ev
FNDA:2,_ZN12my_container4test29VectorTest_ElementAccess_TestD0Ev
FNDA:2,_ZN12my_container4test29VectorTest_ElementAccess_TestD2Ev
FNDA:2,_ZN12my_container4test29VectorTest_FrontBackData_Test8TestBodyEv
FNDA:2,_ZN12my_container4test29VectorTest_FrontBackData_TestC2Ev
FNDA:2,_ZN12my_container4test29VectorTest_FrontBackData_TestD0Ev
FNDA:2,_ZN12my_container4test29VectorTest_FrontBackData_TestD2Ev
FNDA:2,_ZN12my_container4test31VectorTest_CapacityMethods_Test8TestBodyEv
FNDA:2,_ZN12my_container4test31VectorTest_CapacityMethods_TestC2Ev
FNDA:2,_ZN12my_container4test31VectorTest_CapacityMethods_TestD0Ev
FNDA:2,_ZN12my_container4test31VectorTest_CapacityMethods_TestD2Ev
FNDA:2,_ZN12my_container4test23VectorTest_PushPop_Test8TestBodyEv
FNDA:2,_ZN12my_container4test23VectorTest_PushPop_TestC2Ev
FNDA:2,_ZN12my_container4test23VectorTest_PushPop_TestD0Ev
FNDA:2,_ZN12my_container4test23VectorTest_PushPop_TestD2Ev
FNDA:2,_ZN12my_container4test27VectorTest_InsertErase_Test8TestBodyEv
FNDA:2,_ZN12my_container4test27VectorTest_InsertErase_TestC2Ev
FNDA:2,_ZN12my_container4test27VectorTest_InsertErase_TestD0Ev
FNDA:2,_ZN12my_container4test27VectorTest_InsertErase_TestD2Ev
FNDA:2,_ZN12my_container4test27VectorTest_ClearResize_Test8TestBodyEv
FNDA:2,_ZN12my_container4test27VectorTest_ClearResize_TestC2Ev
FNDA:2,_ZN12my_container4test27VectorTest_ClearResize_TestD0Ev
FNDA:2,_ZN12my_container4test27VectorTest_ClearResize_TestD2Ev
FNF:69
FNH:69
DA:11,34
DA:12,34
DA:13,136
DA:14,102
DA:21,8
DA:22,2
DA:23,2
DA:24,2
DA:26,8
DA:27,2
DA:28,2
DA:29,2
DA:30,2
DA:32,8
DA:33,2
DA:34,2
DA:35,2
DA:36,2
DA:38,8
DA:39,2
DA:40,2
DA:41,2
DA:43,8
DA:44,2
DA:45,2
DA:46,2
DA:47,2
DA:48,2
DA:50,8
DA:51,2
DA:52,2
DA:53,2
DA:54,2
DA:55,2
DA:57,8
DA:58,2
DA:59,2
DA:60,2
DA:61,2
DA:62,2
DA:63,2
DA:65,8
DA:66,2
DA:67,2
DA:68,2
DA:69,2
DA:71,8
DA:72,2
DA:73,2
DA:74,2
DA:75,2
DA:76,2
DA:77,2
DA:79,8
DA:80,2
DA:81,2
DA:82,2
DA:83,2
DA:84,2
DA:86,8
DA:87,2
DA:88,2
DA:89,2
DA:90,2
DA:91,2
DA:92,2
DA:93,2
DA:95,8
DA:96,2
DA:97,2
DA:98,2
DA:99,2
DA:100,2
DA:101,2
DA:103,8
DA:104,2
DA:105,2
DA:106,2
DA:108,2
DA:109,2
DA:110,2
DA:111,2
DA:112,2
DA:113,2
DA:114,2
DA:116,8
DA:117,2
DA:118,2
DA:119,2
DA:120,2
DA:121,2
DA:122,2
DA:124,8
DA:125,2
DA:126,2
DA:127,2
DA:128,2
DA:129,2
DA:130,2
DA:132,8
DA:133,2
DA:134,2
DA:135,2
DA:136,2
DA:137,2
DA:138,2
DA:139,2
DA:141,8
DA:142,2
DA:143,2
DA:144,2
DA:145,2
LF:112
LH:112
end_of_record
TN:
SF:/usr/include/c++/13/bits/alloc_traits.h
FNF:0
FNH:0
DA:482,522
DA:517,522
DA:576,915
DA:588,378
DA:722,0
LF:5
LH:4
end_of_record
TN:
SF:/usr/include/c++/13/bits/allocator.h
FNF:0
FNH:0
DA:163,702
DA:168,2221
DA:184,1080
DA:191,522
DA:193,0
DA:194,0
DA:195,0
DA:198,522
DA:205,522
DA:207,0
DA:208,0
DA:210,522
DA:217,0
LF:13
LH:7
end_of_record
TN:
SF:/usr/include/c++/13/bits/basic_string.h
FN:1071,1072,_ZNKSt7__cxx1112basic_stringIcSt11char_traitsIcESaIcEE4sizeEv
FN:1078,1079,_ZNKSt7__cxx1112basic_stringIcSt11char_traitsIcESaIcEE6lengthEv
FN:1084,1085,_ZNKSt7__cxx1112basic_stringIcSt11char_traitsIcESaIcEE8max_sizeEv
FN:1169,1173,_ZNKSt7__cxx1112basic_stringIcSt11char_traitsIcESaIcEE8capacityEv
FN:124,137,_ZNSt7__cxx1112basic_stringIcSt11char_traitsIcESaIcEE11_S_allocateERS3_m
FN:1366,1367,_ZNSt7__cxx1112basic_stringIcSt11char_traitsIcESaIcEEpLERKS4_
FN:1376,1377,_ZNSt7__cxx1112basic_stringIcSt11char_traitsIcESaIcEEpLEPKc
FN:1424,1425,_ZNSt7__cxx1112basic_stringIcSt11char_traitsIcESaIcEE6appendERKS4_
FN:1455,1460,_ZNSt7__cxx1112basic_stringIcSt11char_traitsIcESaIcEE6appendEPKcm
FN:1469,1475,_ZNSt7__cxx1112basic_stringIcSt11char_traitsIcESaIcEE6appendEPKc
FN:1577,1610,_ZNSt7__cxx1112basic_stringIcSt11char_traitsIcESaIcEE6assignERKS4_
FN:1681,1686,_ZNSt7__cxx1112basic_stringIcSt11char_traitsIcESaIcEE6assignEPKc
FN:188,189,_ZNSt7__cxx1112basic_stringIcSt11char_traitsIcESaIcEE12_Alloc_hiderC1EPcRKS3_
FN:192,193,_ZNSt7__cxx1112basic_stringIcSt11char_traitsIcESaIcEE12_Alloc_hiderC1EPcOS3_
FN:2069,2077,_ZNSt7__cxx1112basic_stringIcSt11char_traitsIcESaIcEE5eraseEmm
FN:212,213,_ZNSt7__cxx1112basic_stringIcSt11char_traitsIcESaIcEE7_M_dataEPc
FN:217,218,_ZNSt7__cxx1112basic_stringIcSt11char_traitsIcESaIcEE9_M_lengthEm
FN:2204,2210,_ZNSt7__cxx1112basic_stringIcSt11char_traitsIcESaIcEE7replaceEmmPKcm
FN:222,223,_ZNKSt7__cxx1112basic_stringIcSt11char_traitsIcESaIcEE7_M_dataEv
FN:2230,2234,_ZNSt7__cxx1112basic_stringIcSt11char_traitsIcESaIcEE7replaceEmmPKc
FN:227,234,_ZNSt7__cxx1112basic_stringIcSt11char_traitsIcESaIcEE13_M_local_dataEv
FN:238,245,_ZNKSt7__cxx1112basic_stringIcSt11char_traitsIcESaIcEE13_M_local_dataEv
FN:249,250,_ZNSt7__cxx1112basic_stringIcSt11char_traitsIcESaIcEE11_M_capacityEm
FN:254,258,_ZNSt7__cxx1112basic_stringIcSt11char_traitsIcESaIcEE13_M_set_lengthEm
FN:2595,2596,_ZNKSt7__cxx1112basic_stringIcSt11char_traitsIcESaIcEE5c_strEv
FN:2608,2609,_ZNKSt7__cxx1112basic_stringIcSt11char_traitsIcESaIcEE4dataEv
FN:262,271,_ZNKSt7__cxx1112basic_stringIcSt11char_traitsIcESaIcEE11_M_is_localEv
FN:2695,2699,_ZNKSt7__cxx1112basic_stringIcSt11char_traitsIcESaIcEE4findEPKcm
FN:280,284,_ZNSt7__cxx1112basic_stringIcSt11char_traitsIcESaIcEE10_M_disposeEv
FN:288,289,_ZNSt7__cxx1112basic_stringIcSt11char_traitsIcESaIcEE10_M_destroyEm
FN:336,337,_ZNSt7__cxx1112basic_stringIcSt11char_traitsIcESaIcEE16_M_get_allocatorEv
FN:3383,3394,_ZNKSt7__cxx1112basic_stringIcSt11char_traitsIcESaIcEE7compareEmmPKc
FN:341,342,_ZNKSt7__cxx1112basic_stringIcSt11char_traitsIcESaIcEE16_M_get_allocatorEv
FN:3727,3732,_ZSteqIcSt11char_traitsIcESaIcEEbRKNSt7__cxx1112basic_stringIT_T0_T1_EEPKS5_
FN:386,393,_ZNKSt7__cxx1112basic_stringIcSt11char_traitsIcESaIcEE8_M_checkEmPKc
FN:397,401,_ZNKSt7__cxx1112basic_stringIcSt11char_traitsIcESaIcEE15_M_check_lengthEmmPKc
FN:407,411,_ZNKSt7__cxx1112basic_stringIcSt11char_traitsIcESaIcEE8_M_limitEmm
FN:415,419,_ZNKSt7__cxx1112basic_stringIcSt11char_traitsIcESaIcEE11_M_disjunctEPKc
FN:425,431,_ZNSt7__cxx1112basic_stringIcSt11char_traitsIcESaIcEE7_S_copyEPcPKcm
FN:435,441,_ZNSt7__cxx1112basic_stringIcSt11char_traitsIcESaIcEE7_S_moveEPcPKcm
FN:477,478,_ZNSt7__cxx1112basic_stringIcSt11char_traitsIcESaIcEE13_S_copy_charsEPcS5_S5_
FN:482,484,_ZNSt7__cxx1112basic_stringIcSt11char_traitsIcESaIcEE13_S_copy_charsEPcPKcS7_
FN:488,498,_ZNSt7__cxx1112basic_stringIcSt11char_traitsIcESaIcEE10_S_compareEmm
FN:522,528,_ZNSt7__cxx1112basic_stringIcSt11char_traitsIcESaIcEEC1Ev
FN:547,553,_ZNSt7__cxx1112basic_stringIcSt11char_traitsIcESaIcEEC2ERKS4_
FN:641,650,_ZNSt7__cxx1112basic_stringIcSt11char_traitsIcESaIcEEC1IS3_EEPKcRKS3_
FN:677,698,_ZNSt7__cxx1112basic_stringIcSt11char_traitsIcESaIcEEC2EOS4_
FN:803,804,_ZNSt7__cxx1112basic_stringIcSt11char_traitsIcESaIcEED2Ev
FN:812,815,_ZNSt7__cxx1112basic_stringIcSt11char_traitsIcESaIcEEaSERKS4_
FN:823,824,_ZNSt7__cxx1112basic_stringIcSt11char_traitsIcESaIcEEaSEPKc
FNDA:4722,_ZNKSt7__cxx1112basic_stringIcSt11char_traitsIcESaIcEE4sizeEv
FNDA:3439,_ZNKSt7__cxx1112basic_stringIcSt11char_traitsIcESaIcEE6lengthEv
FNDA:915,_ZNKSt7__cxx1112basic_stringIcSt11char_traitsIcESaIcEE8max_sizeEv
FNDA:4037,_ZNKSt7__cxx1112basic_stringIcSt11char_traitsIcESaIcEE8capacityEv
FNDA:522,_ZNSt7__cxx1112basic_stringIcSt11char_traitsIcESaIcEE11_S_allocateERS3_m
FNDA:0,_ZNSt7__cxx1112basic_stringIcSt11char_traitsIcESaIcEEpLERKS4_
FNDA:0,_ZNSt7__cxx1112basic_stringIcSt11char_traitsIcESaIcEEpLEPKc
FNDA:51,_ZNSt7__cxx1112basic_stringIcSt11char_traitsIcESaIcEE6appendERKS4_
FNDA:153,_ZNSt7__cxx1112basic_stringIcSt11char_traitsIcESaIcEE6appendEPKcm
FNDA:56,_ZNSt7__cxx1112basic_stringIcSt11char_traitsIcESaIcEE6appendEPKc
FNDA:514,_ZNSt7__cxx1112basic_stringIcSt11char_traitsIcESaIcEE6assignERKS4_
FNDA:1,_ZNSt7__cxx1112basic_stringIcSt11char_traitsIcESaIcEE6assignEPKc
FNDA:524,_ZNSt7__cxx1112basic_stringIcSt11char_traitsIcESaIcEE12_Alloc_hiderC1EPcRKS3_
FNDA:1319,_ZNSt7__cxx1112basic_stringIcSt11char_traitsIcESaIcEE12_Alloc_hiderC1EPcOS3_
FNDA:0,_ZNSt7__cxx1112basic_stringIcSt11char_traitsIcESaIcEE5eraseEmm
FNDA:1016,_ZNSt7__cxx1112basic_stringIcSt11char_traitsIcESaIcEE7_M_dataEPc
FNDA:5925,_ZNSt7__cxx1112basic_stringIcSt11char_traitsIcESaIcEE9_M_lengthEm
FNDA:0,_ZNSt7__cxx1112basic_stringIcSt11char_traitsIcESaIcEE7replaceEmmPKcm
FNDA:22147,_ZNKSt7__cxx1112basic_stringIcSt11char_traitsIcESaIcEE7_M_dataEv
FNDA:0,_ZNSt7__cxx1112basic_stringIcSt11char_traitsIcESaIcEE7replaceEmmPKc
FNDA:2098,_ZNSt7__cxx1112basic_stringIcSt11char_traitsIcESaIcEE13_M_local_dataEv
FNDA:6779,_ZNKSt7__cxx1112basic_stringIcSt11char_traitsIcESaIcEE13_M_local_dataEv
FNDA:676,_ZNSt7__cxx1112basic_stringIcSt11char_traitsIcESaIcEE11_M_capacityEm
FNDA:5500,_ZNSt7__cxx1112basic_stringIcSt11char_traitsIcESaIcEE13_M_set_lengthEm
FNDA:3024,_ZNKSt7__cxx1112basic_stringIcSt11char_traitsIcESaIcEE5c_strEv
FNDA:2,_ZNKSt7__cxx1112basic_stringIcSt11char_traitsIcESaIcEE4dataEv
FNDA:6779,_ZNKSt7__cxx1112basic_stringIcSt11char_traitsIcESaIcEE11_M_is_localEv
FNDA:0,_ZNKSt7__cxx1112basic_stringIcSt11char_traitsIcESaIcEE4findEPKcm
FNDA:2317,_ZNSt7__cxx1112basic_stringIcSt11char_traitsIcESaIcEE10_M_disposeEv
FNDA:522,_ZNSt7__cxx1112basic_stringIcSt11char_traitsIcESaIcEE10_M_destroyEm
FNDA:1469,_ZNSt7__cxx1112basic_stringIcSt11char_traitsIcESaIcEE16_M_get_allocatorEv
FNDA:0,_ZNKSt7__cxx1112basic_stringIcSt11char_traitsIcESaIcEE7compareEmmPKc
FNDA:1344,_ZNKSt7__cxx1112basic_stringIcSt11char_traitsIcESaIcEE16_M_get_allocatorEv
FNDA:10,_ZSteqIcSt11char_traitsIcESaIcEEbRKNSt7__cxx1112basic_stringIT_T0_T1_EEPKS5_
FNDA:36,_ZNKSt7__cxx1112basic_stringIcSt11char_traitsIcESaIcEE8_M_checkEmPKc
FNDA:295,_ZNKSt7__cxx1112basic_stringIcSt11char_traitsIcESaIcEE15_M_check_lengthEmmPKc
FNDA:18,_ZNKSt7__cxx1112basic_stringIcSt11char_traitsIcESaIcEE8_M_limitEmm
FNDA:86,_ZNKSt7__cxx1112basic_stringIcSt11char_traitsIcESaIcEE11_M_disjunctEPKc
FNDA:1754,_ZNSt7__cxx1112basic_stringIcSt11char_traitsIcESaIcEE7_S_copyEPcPKcm
FNDA:0,_ZNSt7__cxx1112basic_stringIcSt11char_traitsIcESaIcEE7_S_moveEPcPKcm
FNDA:378,_ZNSt7__cxx1112basic_stringIcSt11char_traitsIcESaIcEE13_S_copy_charsEPcS5_S5_
FNDA:491,_ZNSt7__cxx1112basic_stringIcSt11char_traitsIcESaIcEE13_S_copy_charsEPcPKcS7_
FNDA:0,_ZNSt7__cxx1112basic_stringIcSt11char_traitsIcESaIcEE10_S_compareEmm
FNDA:668,_ZNSt7__cxx1112basic_stringIcSt11char_traitsIcESaIcEEC1Ev
FNDA:378,_ZNSt7__cxx1112basic_stringIcSt11char_traitsIcESaIcEEC2ERKS4_
FNDA:422,_ZNSt7__cxx1112basic_stringIcSt11char_traitsIcESaIcEEC1IS3_EEPKcRKS3_
FNDA:255,_ZNSt7__cxx1112basic_stringIcSt11char_traitsIcESaIcEEC2EOS4_
FNDA:2034,_ZNSt7__cxx1112basic_stringIcSt11char_traitsIcESaIcEED2Ev
FNDA:514,_ZNSt7__cxx1112basic_stringIcSt11char_traitsIcESaIcEEaSERKS4_
FNDA:1,_ZNSt7__cxx1112basic_stringIcSt11char_traitsIcESaIcEEaSEPKc
FNF:50
FNH:41
DA:124,522
DA:126,522
DA:136,522
DA:188,524
DA:189,524
DA:192,1319
DA:193,1319
DA:212,1016
DA:213,1016
DA:217,5925
DA:218,5925
DA:222,22147
DA:223,22147
DA:227,2098
DA:230,2098
DA:238,6779
DA:241,6779
DA:249,676
DA:250,676
DA:254,5500
DA:256,5500
DA:257,5500
DA:258,5500
DA:262,6779
DA:264,6779
DA:266,3235
DA:267,0
DA:268,3235
DA:270,3544
DA:280,2317
DA:282,2317
DA:283,522
DA:284,2317
DA:288,522
DA:289,522
DA:336,1469
DA:337,1469
DA:341,1344
DA:342,1344
DA:351,1694
DA:352,0
DA:353,0
DA:355,1694
DA:365,255
DA:386,36
DA:388,36
DA:389,0
DA:392,36
DA:397,295
DA:399,295
DA:400,0
DA:401,295
DA:407,18
DA:409,18
DA:410,18
DA:415,86
DA:417,86
DA:418,86
DA:425,1754
DA:427,1754
DA:428,567
DA:430,1187
DA:431,1754
DA:435,0
DA:437,0
DA:438,0
DA:440,0
DA:441,0
DA:477,378
DA:478,378
DA:482,491
DA:484,491
DA:488,0
DA:490,0
DA:492,0
DA:493,0
DA:494,0
DA:495,0
DA:497,0
DA:522,668
DA:524,2004
DA:527,668
DA:528,668
DA:547,378
DA:548,378
DA:549,378
DA:551,378
DA:553,378
DA:641,422
DA:642,422
DA:645,422
DA:646,0
DA:648,422
DA:649,422
DA:650,422
DA:677,255
DA:678,255
DA:680,255
DA:683,186
DA:684,186
DA:688,69
DA:689,69
DA:695,255
DA:696,255
DA:697,255
DA:698,255
DA:803,2034
DA:804,2034
DA:812,514
DA:814,514
DA:823,1
DA:824,1
DA:1071,4722
DA:1072,4722
DA:1078,3439
DA:1079,3439
DA:1084,915
DA:1085,1830
DA:1169,4037
DA:1171,4037
DA:1172,4037
DA:1366,0
DA:1367,0
DA:1376,0
DA:1377,0
DA:1424,51
DA:1425,51
DA:1455,153
DA:1458,153
DA:1459,153
DA:1469,56
DA:1472,56
DA:1473,56
DA:1474,56
DA:1577,514
DA:1580,514
DA:1582,0
DA:1583,0
DA:1587,0
DA:1589,0
DA:1590,0
DA:1591,0
DA:1595,0
DA:1596,0
DA:1598,0
DA:1599,0
DA:1600,0
DA:1601,0
DA:1602,0
DA:1605,0
DA:1608,514
DA:1609,514
DA:1681,1
DA:1684,1
DA:1685,1
DA:2069,0
DA:2071,0
DA:2072,0
DA:2073,0
DA:2074,0
DA:2075,0
DA:2076,0
DA:2204,0
DA:2208,0
DA:2209,0
DA:2230,0
DA:2233,0
DA:2595,3024
DA:2596,3024
DA:2608,2
DA:2609,2
DA:2695,0
DA:2698,0
DA:3383,0
DA:3386,0
DA:3387,0
DA:3388,0
DA:3389,0
DA:3390,0
DA:3391,0
DA:3392,0
DA:3393,0
DA:3727,10
DA:3730,10
DA:3731,10
LF:185
LH:126
end_of_record
TN:
SF:/usr/include/c++/13/bits/basic_string.tcc
FN:138,160,_ZNSt7__cxx1112basic_stringIcSt11char_traitsIcESaIcEE9_M_createERmm
FN:221,252,_ZNSt7__cxx1112basic_stringIcSt11char_traitsIcESaIcEE12_M_constructIPKcEEvT_S8_St20forward_iterator_tag
FN:221,252,_ZNSt7__cxx1112basic_stringIcSt11char_traitsIcESaIcEE12_M_constructIPcEEvT_S7_St20forward_iterator_tag
FN:239,239,_ZZNSt7__cxx1112basic_stringIcSt11char_traitsIcESaIcEE12_M_constructIPKcEEvT_S8_St20forward_iterator_tagEN6_GuardC2EPS4_
FN:239,239,_ZZNSt7__cxx1112basic_stringIcSt11char_traitsIcESaIcEE12_M_constructIPcEEvT_S7_St20forward_iterator_tagEN6_GuardC2EPS4_
FN:242,242,_ZZNSt7__cxx1112basic_stringIcSt11char_traitsIcESaIcEE12_M_constructIPKcEEvT_S8_St20forward_iterator_tagEN6_GuardD2Ev
FN:242,242,_ZZNSt7__cxx1112basic_stringIcSt11char_traitsIcESaIcEE12_M_constructIPcEEvT_S7_St20forward_iterator_tagEN6_GuardD2Ev
FN:277,299,_ZNSt7__cxx1112basic_stringIcSt11char_traitsIcESaIcEE9_M_assignERKS4_
FN:325,345,_ZNSt7__cxx1112basic_stringIcSt11char_traitsIcESaIcEE9_M_mutateEmmPKcm
FN:350,359,_ZNSt7__cxx1112basic_stringIcSt11char_traitsIcESaIcEE8_M_eraseEmm
FN:413,428,_ZNSt7__cxx1112basic_stringIcSt11char_traitsIcESaIcEE9_M_appendEPKcm
FN:511,552,_ZNSt7__cxx1112basic_stringIcSt11char_traitsIcESaIcEE10_M_replaceEmmPKcm
FN:618,650,_ZNKSt7__cxx1112basic_stringIcSt11char_traitsIcESaIcEE4findEPKcmm
FNDA:522,_ZNSt7__cxx1112basic_stringIcSt11char_traitsIcESaIcEE9_M_createERmm
FNDA:440,_ZNSt7__cxx1112basic_stringIcSt11char_traitsIcESaIcEE12_M_constructIPKcEEvT_S8_St20forward_iterator_tag
FNDA:378,_ZNSt7__cxx1112basic_stringIcSt11char_traitsIcESaIcEE12_M_constructIPcEEvT_S7_St20forward_iterator_tag
FNDA:440,_ZZNSt7__cxx1112basic_stringIcSt11char_traitsIcESaIcEE12_M_constructIPKcEEvT_S8_St20forward_iterator_tagEN6_GuardC2EPS4_
FNDA:378,_ZZNSt7__cxx1112basic_stringIcSt11char_traitsIcESaIcEE12_M_constructIPcEEvT_S7_St20forward_iterator_tagEN6_GuardC2EPS4_
FNDA:440,_ZZNSt7__cxx1112basic_stringIcSt11char_traitsIcESaIcEE12_M_constructIPKcEEvT_S8_St20forward_iterator_tagEN6_GuardD2Ev
FNDA:378,_ZZNSt7__cxx1112basic_stringIcSt11char_traitsIcESaIcEE12_M_constructIPcEEvT_S7_St20forward_iterator_tagEN6_GuardD2Ev
FNDA:514,_ZNSt7__cxx1112basic_stringIcSt11char_traitsIcESaIcEE9_M_assignERKS4_
FNDA:62,_ZNSt7__cxx1112basic_stringIcSt11char_traitsIcESaIcEE9_M_mutateEmmPKcm
FNDA:0,_ZNSt7__cxx1112basic_stringIcSt11char_traitsIcESaIcEE8_M_eraseEmm
FNDA:209,_ZNSt7__cxx1112basic_stringIcSt11char_traitsIcESaIcEE9_M_appendEPKcm
FNDA:86,_ZNSt7__cxx1112basic_stringIcSt11char_traitsIcESaIcEE10_M_replaceEmmPKcm
FNDA:0,_ZNKSt7__cxx1112basic_stringIcSt11char_traitsIcESaIcEE4findEPKcmm
FNF:13
FNH:11
DA:138,522
DA:143,522
DA:144,0
DA:149,522
DA:151,98
DA:153,98
DA:154,0
DA:159,522
DA:221,818
DA:225,818
DA:227,818
DA:229,233
DA:230,233
DA:239,818
DA:242,818
DA:245,818
DA:247,818
DA:249,818
DA:251,818
DA:252,818
DA:277,514
DA:280,514
DA:282,514
DA:283,514
DA:285,514
DA:287,3
DA:288,3
DA:289,3
DA:290,3
DA:291,3
DA:294,514
DA:295,310
DA:297,514
DA:299,514
DA:325,62
DA:329,62
DA:331,62
DA:332,62
DA:334,62
DA:335,62
DA:336,62
DA:337,62
DA:338,62
DA:339,0
DA:340,0
DA:342,62
DA:343,62
DA:344,62
DA:345,62
DA:350,0
DA:353,0
DA:355,0
DA:356,0
DA:358,0
DA:359,0
DA:413,209
DA:416,209
DA:418,209
DA:420,147
DA:421,147
DA:424,62
DA:426,209
DA:427,209
DA:511,86
DA:515,86
DA:517,86
DA:518,86
DA:520,86
DA:522,86
DA:524,86
DA:526,86
DA:528,0
DA:529,0
DA:530,0
DA:531,0
DA:532,0
DA:533,0
DA:537,86
DA:539,86
DA:540,0
DA:541,86
DA:542,86
DA:545,0
DA:548,0
DA:550,86
DA:551,86
DA:618,0
DA:623,0
DA:625,0
DA:626,0
DA:627,0
DA:628,0
DA:630,0
DA:631,0
DA:632,0
DA:633,0
DA:634,0
DA:636,0
DA:639,0
DA:640,0
DA:641,0
DA:645,0
DA:646,0
DA:647,0
DA:649,0
LF:105
LH:67
end_of_record
TN:
SF:/usr/include/c++/13/bits/char_traits.h
FN:136,137,_ZN9__gnu_cxx11char_traitsIcE2eqERKcS3_
FN:199,206,_ZN9__gnu_cxx11char_traitsIcE6lengthEPKc
FN:210,217,_ZN9__gnu_cxx11char_traitsIcE4findEPKcmRS2_
FN:222,248,_ZN9__gnu_cxx11char_traitsIcE4moveEPcPKcm
FN:253,268,_ZN9__gnu_cxx11char_traitsIcE4copyEPcPKcm
FN:351,359,_ZNSt11char_traitsIcE6assignERcRKc
FN:366,371,_ZNSt11char_traitsIcE2ltERKcS2_
FN:374,390,_ZNSt11char_traitsIcE7compareEPKcS2_m
FN:393,400,_ZNSt11char_traitsIcE6lengthEPKc
FN:403,412,_ZNSt11char_traitsIcE4findEPKcmRS1_
FN:415,424,_ZNSt11char_traitsIcE4moveEPcPKcm
FN:427,436,_ZNSt11char_traitsIcE4copyEPcPKcm
FNDA:0,_ZN9__gnu_cxx11char_traitsIcE2eqERKcS3_
FNDA:0,_ZN9__gnu_cxx11char_traitsIcE6lengthEPKc
FNDA:0,_ZN9__gnu_cxx11char_traitsIcE4findEPKcmRS2_
FNDA:0,_ZN9__gnu_cxx11char_traitsIcE4moveEPcPKcm
FNDA:0,_ZN9__gnu_cxx11char_traitsIcE4copyEPcPKcm
FNDA:8912,_ZNSt11char_traitsIcE6assignERcRKc
FNDA:0,_ZNSt11char_traitsIcE2ltERKcS2_
FNDA:2,_ZNSt11char_traitsIcE7compareEPKcS2_m
FNDA:540,_ZNSt11char_traitsIcE6lengthEPKc
FNDA:18,_ZNSt11char_traitsIcE4findEPKcmRS1_
FNDA:0,_ZNSt11char_traitsIcE4moveEPcPKcm
FNDA:1458,_ZNSt11char_traitsIcE4copyEPcPKcm
FNF:12
FNH:5
DA:136,0
DA:137,0
DA:199,0
DA:202,0
DA:203,0
DA:204,0
DA:205,0
DA:210,0
DA:213,0
DA:214,0
DA:215,0
DA:216,0
DA:222,0
DA:225,0
DA:226,0
DA:228,0
DA:242,0
DA:243,0
DA:246,0
DA:247,0
DA:253,0
DA:256,0
DA:257,0
DA:259,0
DA:261,0
DA:262,0
DA:263,0
DA:266,0
DA:267,0
DA:351,8912
DA:354,8912
DA:355,0
DA:358,8912
DA:359,8912
DA:366,0
DA:369,0
DA:370,0
DA:374,2
DA:376,2
DA:377,0
DA:379,2
DA:381,0
DA:382,0
DA:383,0
DA:384,0
DA:385,0
DA:386,0
DA:389,2
DA:393,540
DA:396,540
DA:397,0
DA:399,540
DA:403,18
DA:405,18
DA:406,0
DA:408,18
DA:409,0
DA:411,18
DA:415,0
DA:417,0
DA:418,0
DA:420,0
DA:421,0
DA:423,0
DA:427,1458
DA:429,1458
DA:430,27
DA:432,1431
DA:433,0
DA:435,1431
LF:70
LH:20
end_of_record
TN:
SF:/usr/include/c++/13/bits/cpp_type_traits.h
FN:607,608,_ZSt12__miter_baseIPKNSt7__cxx1112basic_stringIcSt11char_traitsIcESaIcEEEET_S8_
FN:607,608,_ZSt12__miter_baseIPKiET_S2_
FN:607,608,_ZSt12__miter_baseIPNSt7__cxx1112basic_stringIcSt11char_traitsIcESaIcEEEET_S7_
FN:607,608,_ZSt12__miter_baseIPiET_S1_
FNDA:68,_ZSt12__miter_baseIPKNSt7__cxx1112basic_stringIcSt11char_traitsIcESaIcEEEET_S8_
FNDA:92,_ZSt12__miter_baseIPKiET_S2_
FNDA:0,_ZSt12__miter_baseIPNSt7__cxx1112basic_stringIcSt11char_traitsIcESaIcEEEET_S7_
FNDA:20,_ZSt12__miter_baseIPiET_S1_
FNF:4
FNH:3
DA:607,180
DA:608,180
LF:2
LH:2
end_of_record
TN:
SF:/usr/include/c++/13/bits/move.h
FN:138,139,_ZSt9addressofIKcEPT_RS1_
FN:138,139,_ZSt9addressofIcEPT_RS0_
FN:189,200,_ZSt4swapIPNSt7__cxx1112basic_stringIcSt11char_traitsIcESaIcEEEENSt9enable_ifIXsrSt6__and_IJSt6__not_ISt15__is_tuple_likeIT_EESt21is_move_constructibleISB_ESt18is_move_assignableISB_EEE5valueEvE4typeERSB_SL_
FN:189,200,_ZSt4swapIPiENSt9enable_ifIXsrSt6__and_IJSt6__not_ISt15__is_tuple_likeIT_EESt21is_move_constructibleIS5_ESt18is_move_assignableIS5_EEE5valueEvE4typeERS5_SF_
FN:189,200,_ZSt4swapImENSt9enable_ifIXsrSt6__and_IJSt6__not_ISt15__is_tuple_likeIT_EESt21is_move_constructibleIS4_ESt18is_move_assignableIS4_EEE5valueEvE4typeERS4_SE_
FN:51,52,_ZSt11__addressofIKNSt7__cxx1112basic_stringIcSt11char_traitsIcESaIcEEEEPT_RS7_
FN:51,52,_ZSt11__addressofIKcEPT_RS1_
FN:51,52,_ZSt11__addressofIcEPT_RS0_
FN:70,71,_ZSt7forwardIRKcEOT_RNSt16remove_referenceIS2_E4typeE
FN:70,71,_ZSt7forwardISt14default_deleteINSt7__cxx1112basic_stringIcSt11char_traitsIcESaIcEEEEEOT_RNSt16remove_referenceIS8_E4typeE
FN:97,98,_ZSt4moveIRN12my_container6VectorINSt7__cxx1112basic_stringIcSt11char_traitsIcESaIcEEEEEEONSt16remove_referenceIT_E4typeEOSB_
FN:97,98,_ZSt4moveIRN12my_container6VectorIiEEEONSt16remove_referenceIT_E4typeEOS5_
FN:97,98,_ZSt4moveIRPNSt7__cxx1112basic_stringIcSt11char_traitsIcESaIcEEEEONSt16remove_referenceIT_E4typeEOS9_
FN:97,98,_ZSt4moveIRPNSt7__cxx1118basic_stringstreamIcSt11char_traitsIcESaIcEEEEONSt16remove_referenceIT_E4typeEOS9_
FN:97,98,_ZSt4moveIRPiEONSt16remove_referenceIT_E4typeEOS3_
FN:97,98,_ZSt4moveIRSaIcEEONSt16remove_referenceIT_E4typeEOS3_
FN:97,98,_ZSt4moveIRmEONSt16remove_referenceIT_E4typeEOS2_
FNDA:6779,_ZSt9addressofIKcEPT_RS1_
FNDA:2098,_ZSt9addressofIcEPT_RS0_
FNDA:34,_ZSt4swapIPNSt7__cxx1112basic_stringIcSt11char_traitsIcESaIcEEEENSt9enable_ifIXsrSt6__and_IJSt6__not_ISt15__is_tuple_likeIT_EESt21is_move_constructibleISB_ESt18is_move_assignableISB_EEE5valueEvE4typeERSB_SL_
FNDA:38,_ZSt4swapIPiENSt9enable_ifIXsrSt6__and_IJSt6__not_ISt15__is_tuple_likeIT_EESt21is_move_constructibleIS5_ESt18is_move_assignableIS5_EEE5valueEvE4typeERS5_SF_
FNDA:144,_ZSt4swapImENSt9enable_ifIXsrSt6__and_IJSt6__not_ISt15__is_tuple_likeIT_EESt21is_move_constructibleIS4_ESt18is_move_assignableIS4_EEE5valueEvE4typeERS4_SE_
FNDA:514,_ZSt11__addressofIKNSt7__cxx1112basic_stringIcSt11char_traitsIcESaIcEEEEPT_RS7_
FNDA:6779,_ZSt11__addressofIKcEPT_RS1_
FNDA:2098,_ZSt11__addressofIcEPT_RS0_
FNDA:0,_ZSt7forwardIRKcEOT_RNSt16remove_referenceIS2_E4typeE
FNDA:0,_ZSt7forwardISt14default_deleteINSt7__cxx1112basic_stringIcSt11char_traitsIcESaIcEEEEEOT_RNSt16remove_referenceIS8_E4typeE
FNDA:2,_ZSt4moveIRN12my_container6VectorINSt7__cxx1112basic_stringIcSt11char_traitsIcESaIcEEEEEEONSt16remove_referenceIT_E4typeEOSB_
FNDA:4,_ZSt4moveIRN12my_container6VectorIiEEEONSt16remove_referenceIT_E4typeEOS5_
FNDA:102,_ZSt4moveIRPNSt7__cxx1112basic_stringIcSt11char_traitsIcESaIcEEEEONSt16remove_referenceIT_E4typeEOS9_
FNDA:185,_ZSt4moveIRPNSt7__cxx1118basic_stringstreamIcSt11char_traitsIcESaIcEEEEONSt16remove_referenceIT_E4typeEOS9_
FNDA:114,_ZSt4moveIRPiEONSt16remove_referenceIT_E4typeEOS3_
FNDA:1574,_ZSt4moveIRSaIcEEONSt16remove_referenceIT_E4typeEOS3_
FNDA:432,_ZSt4moveIRmEONSt16remove_referenceIT_E4typeEOS2_
FNF:17
FNH:15
DA:51,9391
DA:52,9391
DA:70,0
DA:71,0
DA:97,2413
DA:98,2413
DA:138,8877
DA:139,8877
DA:189,216
DA:197,216
DA:198,216
DA:199,216
DA:200,216
LF:13
LH:11
end_of_record
TN:
SF:/usr/include/c++/13/bits/new_allocator.h
FN:126,152,_ZNSt15__new_allocatorIcE8allocateEmPKv
FN:156,173,_ZNSt15__new_allocatorIcE10deallocateEPcm
FNDA:522,_ZNSt15__new_allocatorIcE8allocateEmPKv
FNDA:522,_ZNSt15__new_allocatorIcE10deallocateEPcm
FNF:2
FNH:2
DA:88,702
DA:92,2221
DA:126,522
DA:134,522
DA:140,0
DA:151,522
DA:156,522
DA:172,522
DA:233,522
LF:9
LH:8
end_of_record
TN:
SF:/usr/include/c++/13/bits/ptr_traits.h
FN:141,142,_ZNSt19__ptr_traits_ptr_toIPKcS0_Lb0EE10pointer_toERS0_
FN:141,142,_ZNSt19__ptr_traits_ptr_toIPccLb0EE10pointer_toERc
FNDA:6779,_ZNSt19__ptr_traits_ptr_toIPKcS0_Lb0EE10pointer_toERS0_
FNDA:2098,_ZNSt19__ptr_traits_ptr_toIPccLb0EE10pointer_toERc
FNF:2
FNH:2
DA:141,8877
DA:142,8877
LF:2
LH:2
end_of_record
TN:
SF:/usr/include/c++/13/bits/stl_algo.h
FN:729,731,_ZSt8__copy_nIPNSt7__cxx1112basic_stringIcSt11char_traitsIcESaIcEEEmS6_ET1_T_T0_S7_St26random_access_iterator_tag
FN:729,731,_ZSt8__copy_nIPimS0_ET1_T_T0_S1_St26random_access_iterator_tag
FN:749,765,_ZSt6copy_nIPNSt7__cxx1112basic_stringIcSt11char_traitsIcESaIcEEEmS6_ET1_T_T0_S7_
FN:749,765,_ZSt6copy_nIPimS0_ET1_T_T0_S1_
FNDA:0,_ZSt8__copy_nIPNSt7__cxx1112basic_stringIcSt11char_traitsIcESaIcEEEmS6_ET1_T_T0_S7_St26random_access_iterator_tag
FNDA:6,_ZSt8__copy_nIPimS0_ET1_T_T0_S1_St26random_access_iterator_tag
FNDA:0,_ZSt6copy_nIPNSt7__cxx1112basic_stringIcSt11char_traitsIcESaIcEEEmS6_ET1_T_T0_S7_
FNDA:8,_ZSt6copy_nIPimS0_ET1_T_T0_S1_
FNF:4
FNH:2
DA:729,6
DA:731,6
DA:749,8
DA:756,8
DA:757,8
DA:758,2
DA:763,12
DA:764,6
LF:8
LH:8
end_of_record
TN:
SF:/usr/include/c++/13/bits/stl_algobase.h
FN:1018,1018,_ZSt17__size_to_integerm
FN:1821,1865,_ZSt33lexicographical_compare_three_wayIPiS0_St17compare_three_wayEDTclfp3_defp_defp1_EET_S3_T0_S4_T1_
FN:1869,1877,_ZSt33lexicographical_compare_three_wayIPiS0_EDaT_S1_T0_S2_
FN:233,241,_ZSt3minImERKT_S2_S2_
FN:257,265,_ZSt3maxImERKT_S2_S2_
FN:316,318,_ZSt12__niter_baseIPKNSt7__cxx1112basic_stringIcSt11char_traitsIcESaIcEEEET_S8_
FN:316,318,_ZSt12__niter_baseIPKiET_S2_
FN:316,318,_ZSt12__niter_baseIPNSt7__cxx1112basic_stringIcSt11char_traitsIcESaIcEEEET_S7_
FN:316,318,_ZSt12__niter_baseIPiET_S1_
FN:338,339,_ZSt12__niter_wrapIPNSt7__cxx1112basic_stringIcSt11char_traitsIcESaIcEEEET_RKS7_S7_
FN:338,339,_ZSt12__niter_wrapIPiET_RKS1_S1_
FN:383,393,_ZNSt11__copy_moveILb0ELb0ESt26random_access_iterator_tagE8__copy_mIPKNSt7__cxx1112basic_stringIcSt11char_traitsIcESaIcEEEPS8_EET0_T_SD_SC_
FN:383,393,_ZNSt11__copy_moveILb0ELb0ESt26random_access_iterator_tagE8__copy_mIPKiPiEET0_T_S7_S6_
FN:383,393,_ZNSt11__copy_moveILb0ELb0ESt26random_access_iterator_tagE8__copy_mIPNSt7__cxx1112basic_stringIcSt11char_traitsIcESaIcEEES9_EET0_T_SB_SA_
FN:383,393,_ZNSt11__copy_moveILb0ELb0ESt26random_access_iterator_tagE8__copy_mIPiS3_EET0_T_S5_S4_
FN:397,398,_ZNSt11__copy_moveILb0ELb0ESt26random_access_iterator_tagE12__assign_oneIiKiEEvPT_PT0_
FN:397,398,_ZNSt11__copy_moveILb0ELb0ESt26random_access_iterator_tagE12__assign_oneIiiEEvPT_PT0_
FN:433,442,_ZNSt11__copy_moveILb0ELb1ESt26random_access_iterator_tagE8__copy_mIKiiEEPT0_PT_S7_S5_
FN:433,442,_ZNSt11__copy_moveILb0ELb1ESt26random_access_iterator_tagE8__copy_mIiiEEPT0_PT_S6_S4_
FN:497,507,_ZSt14__copy_move_a2ILb0EPKNSt7__cxx1112basic_stringIcSt11char_traitsIcESaIcEEEPS5_ET1_T0_SA_S9_
FN:497,507,_ZSt14__copy_move_a2ILb0EPKiPiET1_T0_S4_S3_
FN:497,507,_ZSt14__copy_move_a2ILb0EPNSt7__cxx1112basic_stringIcSt11char_traitsIcESaIcEEES6_ET1_T0_S8_S7_
FN:497,507,_ZSt14__copy_move_a2ILb0EPiS0_ET1_T0_S2_S1_
FN:532,533,_ZSt14__copy_move_a1ILb0EPKNSt7__cxx1112basic_stringIcSt11char_traitsIcESaIcEEEPS5_ET1_T0_SA_S9_
FN:532,533,_ZSt14__copy_move_a1ILb0EPKiPiET1_T0_S4_S3_
FN:532,533,_ZSt14__copy_move_a1ILb0EPNSt7__cxx1112basic_stringIcSt11char_traitsIcESaIcEEES6_ET1_T0_S8_S7_
FN:532,533,_ZSt14__copy_move_a1ILb0EPiS0_ET1_T0_S2_S1_
FN:538,544,_ZSt13__copy_move_aILb0EPKNSt7__cxx1112basic_stringIcSt11char_traitsIcESaIcEEEPS5_ET1_T0_SA_S9_
FN:538,544,_ZSt13__copy_move_aILb0EPKiPiET1_T0_S4_S3_
FN:538,544,_ZSt13__copy_move_aILb0EPNSt7__cxx1112basic_stringIcSt11char_traitsIcESaIcEEES6_ET1_T0_S8_S7_
FN:538,544,_ZSt13__copy_move_aILb0EPiS0_ET1_T0_S2_S1_
FN:624,634,_ZSt4copyIPKNSt7__cxx1112basic_stringIcSt11char_traitsIcESaIcEEEPS5_ET0_T_SA_S9_
FN:624,634,_ZSt4copyIPKiPiET0_T_S4_S3_
FN:624,634,_ZSt4copyIPNSt7__cxx1112basic_stringIcSt11char_traitsIcESaIcEEES6_ET0_T_S8_S7_
FN:624,634,_ZSt4copyIPiS0_ET0_T_S2_S1_
FNDA:8,_ZSt17__size_to_integerm
FNDA:16,_ZSt33lexicographical_compare_three_wayIPiS0_St17compare_three_wayEDTclfp3_defp_defp1_EET_S3_T0_S4_T1_
FNDA:16,_ZSt33lexicographical_compare_three_wayIPiS0_EDaT_S1_T0_S2_
FNDA:145,_ZSt3minImERKT_S2_S2_
FNDA:74,_ZSt3maxImERKT_S2_S2_
FNDA:68,_ZSt12__niter_baseIPKNSt7__cxx1112basic_stringIcSt11char_traitsIcESaIcEEEET_S8_
FNDA:92,_ZSt12__niter_baseIPKiET_S2_
FNDA:199,_ZSt12__niter_baseIPNSt7__cxx1112basic_stringIcSt11char_traitsIcESaIcEEEET_S7_
FNDA:202,_ZSt12__niter_baseIPiET_S1_
FNDA:34,_ZSt12__niter_wrapIPNSt7__cxx1112basic_stringIcSt11char_traitsIcESaIcEEEET_RKS7_S7_
FNDA:56,_ZSt12__niter_wrapIPiET_RKS1_S1_
FNDA:34,_ZNSt11__copy_moveILb0ELb0ESt26random_access_iterator_tagE8__copy_mIPKNSt7__cxx1112basic_stringIcSt11char_traitsIcESaIcEEEPS8_EET0_T_SD_SC_
FNDA:0,_ZNSt11__copy_moveILb0ELb0ESt26random_access_iterator_tagE8__copy_mIPKiPiEET0_T_S7_S6_
FNDA:0,_ZNSt11__copy_moveILb0ELb0ESt26random_access_iterator_tagE8__copy_mIPNSt7__cxx1112basic_stringIcSt11char_traitsIcESaIcEEES9_EET0_T_SB_SA_
FNDA:0,_ZNSt11__copy_moveILb0ELb0ESt26random_access_iterator_tagE8__copy_mIPiS3_EET0_T_S5_S4_
FNDA:0,_ZNSt11__copy_moveILb0ELb0ESt26random_access_iterator_tagE12__assign_oneIiKiEEvPT_PT0_
FNDA:0,_ZNSt11__copy_moveILb0ELb0ESt26random_access_iterator_tagE12__assign_oneIiiEEvPT_PT0_
FNDA:46,_ZNSt11__copy_moveILb0ELb1ESt26random_access_iterator_tagE8__copy_mIKiiEEPT0_PT_S7_S5_
FNDA:10,_ZNSt11__copy_moveILb0ELb1ESt26random_access_iterator_tagE8__copy_mIiiEEPT0_PT_S6_S4_
FNDA:34,_ZSt14__copy_move_a2ILb0EPKNSt7__cxx1112basic_stringIcSt11char_traitsIcESaIcEEEPS5_ET1_T0_SA_S9_
FNDA:46,_ZSt14__copy_move_a2ILb0EPKiPiET1_T0_S4_S3_
FNDA:0,_ZSt14__copy_move_a2ILb0EPNSt7__cxx1112basic_stringIcSt11char_traitsIcESaIcEEES6_ET1_T0_S8_S7_
FNDA:10,_ZSt14__copy_move_a2ILb0EPiS0_ET1_T0_S2_S1_
FNDA:34,_ZSt14__copy_move_a1ILb0EPKNSt7__cxx1112basic_stringIcSt11char_traitsIcESaIcEEEPS5_ET1_T0_SA_S9_
FNDA:46,_ZSt14__copy_move_a1ILb0EPKiPiET1_T0_S4_S3_
FNDA:0,_ZSt14__copy_move_a1ILb0EPNSt7__cxx1112basic_stringIcSt11char_traitsIcESaIcEEES6_ET1_T0_S8_S7_
FNDA:10,_ZSt14__copy_move_a1ILb0EPiS0_ET1_T0_S2_S1_
FNDA:34,_ZSt13__copy_move_aILb0EPKNSt7__cxx1112basic_stringIcSt11char_traitsIcESaIcEEEPS5_ET1_T0_SA_S9_
FNDA:46,_ZSt13__copy_move_aILb0EPKiPiET1_T0_S4_S3_
FNDA:0,_ZSt13__copy_move_aILb0EPNSt7__cxx1112basic_stringIcSt11char_traitsIcESaIcEEES6_ET1_T0_S8_S7_
FNDA:10,_ZSt13__copy_move_aILb0EPiS0_ET1_T0_S2_S1_
FNDA:34,_ZSt4copyIPKNSt7__cxx1112basic_stringIcSt11char_traitsIcESaIcEEEPS5_ET0_T_SA_S9_
FNDA:46,_ZSt4copyIPKiPiET0_T_S4_S3_
FNDA:0,_ZSt4copyIPNSt7__cxx1112basic_stringIcSt11char_traitsIcESaIcEEES6_ET0_T_S8_S7_
FNDA:10,_ZSt4copyIPiS0_ET0_T_S2_S1_
FNF:35
FNH:26
DA:233,145
DA:238,145
DA:239,0
DA:240,145
DA:257,74
DA:262,74
DA:263,32
DA:264,42
DA:316,561
DA:318,561
DA:338,90
DA:339,90
DA:383,34
DA:386,136
DA:388,102
DA:389,102
DA:390,102
DA:392,34
DA:397,0
DA:398,0
DA:433,56
DA:435,56
DA:436,56
DA:437,56
DA:438,0
DA:440,0
DA:441,56
DA:497,90
DA:501,90
DA:503,0
DA:506,90
DA:532,90
DA:533,90
DA:538,90
DA:540,90
DA:543,90
DA:624,90
DA:633,90
DA:1018,8
DA:1821,16
DA:1837,16
DA:1855,50
DA:1857,44
DA:1858,4
DA:1859,40
DA:1860,6
DA:1861,34
DA:1862,34
DA:1864,6
DA:1869,16
DA:1875,16
DA:1876,16
LF:52
LH:46
end_of_record
TN:
SF:/usr/include/c++/13/bits/stl_construct.h
FN:94,97,_ZSt12construct_atIcJRKcEEDTgsnwcvPvLi0E_T_pispcl7declvalIT0_EEEEPS3_DpOS4_
FNDA:0,_ZSt12construct_atIcJRKcEEDTgsnwcvPvLi0E_T_pispcl7declvalIT0_EEEEPS3_DpOS4_
FNF:1
FNH:0
DA:94,0
DA:97,0
LF:2
LH:0
end_of_record
TN:
SF:/usr/include/c++/13/bits/stl_function.h
FN:451,458,_ZNKSt4lessIPKcEclES1_S1_
FNDA:86,_ZNKSt4lessIPKcEclES1_S1_
FNF:1
FNH:1
DA:451,86
DA:454,86
DA:455,0
DA:457,86
LF:4
LH:3
end_of_record
TN:
SF:/usr/include/c++/13/bits/stl_iterator_base_funcs.h
FNF:0
FNH:0
DA:106,818
DA:151,1636
DA:152,1636
LF:3
LH:3
end_of_record
TN:
SF:/usr/include/c++/13/bits/stl_iterator_base_types.h
FNF:0
FNH:0
DA:240,824
LF:1
LH:1
end_of_record
TN:
SF:/usr/include/c++/13/bits/unique_ptr.h
FN:1069,1070,_ZSt11make_uniqueINSt7__cxx1112basic_stringIcSt11char_traitsIcESaIcEEEJEENSt8__detail9_MakeUniqIT_E15__single_objectEDpOT0_
FN:174,174,_ZNSt15__uniq_ptr_implINSt7__cxx1112basic_stringIcSt11char_traitsIcESaIcEEESt14default_deleteIS5_EEC2Ev
FN:176,176,_ZNSt15__uniq_ptr_implINSt7__cxx1112basic_stringIcSt11char_traitsIcESaIcEEESt14default_deleteIS5_EEC2EPS5_
FN:189,194,_ZNSt15__uniq_ptr_implINSt7__cxx1112basic_stringIcSt11char_traitsIcESaIcEEESt14default_deleteIS5_EEaSEOS8_
FN:197,197,_ZNSt15__uniq_ptr_implINSt7__cxx1112basic_stringIcSt11char_traitsIcESaIcEEESt14default_deleteIS5_EE6_M_ptrEv
FN:197,197,_ZNSt15__uniq_ptr_implINSt7__cxx1118basic_stringstreamIcSt11char_traitsIcESaIcEEESt14default_deleteIS5_EE6_M_ptrEv
FN:199,199,_ZNKSt15__uniq_ptr_implINSt7__cxx1112basic_stringIcSt11char_traitsIcESaIcEEESt14default_deleteIS5_EE6_M_ptrEv
FN:199,199,_ZNKSt15__uniq_ptr_implINSt7__cxx1118basic_stringstreamIcSt11char_traitsIcESaIcEEESt14default_deleteIS5_EE6_M_ptrEv
FN:201,201,_ZNSt15__uniq_ptr_implINSt7__cxx1112basic_stringIcSt11char_traitsIcESaIcEEESt14default_deleteIS5_EE10_M_deleterEv
FN:201,201,_ZNSt15__uniq_ptr_implINSt7__cxx1118basic_stringstreamIcSt11char_traitsIcESaIcEEESt14default_deleteIS5_EE10_M_deleterEv
FN:206,212,_ZNSt15__uniq_ptr_implINSt7__cxx1112basic_stringIcSt11char_traitsIcESaIcEEESt14default_deleteIS5_EE5resetEPS5_
FN:215,220,_ZNSt15__uniq_ptr_implINSt7__cxx1112basic_stringIcSt11char_traitsIcESaIcEEESt14default_deleteIS5_EE7releaseEv
FN:243,243,_ZNSt15__uniq_ptr_dataINSt7__cxx1112basic_stringIcSt11char_traitsIcESaIcEEESt14default_deleteIS5_ELb1ELb1EEaSEOS8_
FN:304,306,_ZNSt10unique_ptrINSt7__cxx1112basic_stringIcSt11char_traitsIcESaIcEEESt14default_deleteIS5_EEC2IS7_vEEv
FN:317,319,_ZNSt10unique_ptrINSt7__cxx1112basic_stringIcSt11char_traitsIcESaIcEEESt14default_deleteIS5_EEC2IS7_vEEPS5_
FN:398,406,_ZNSt10unique_ptrINSt7__cxx1112basic_stringIcSt11char_traitsIcESaIcEEESt14default_deleteIS5_EED2Ev
FN:398,406,_ZNSt10unique_ptrINSt7__cxx1118basic_stringstreamIcSt11char_traitsIcESaIcEEESt14default_deleteIS5_EED2Ev
FN:414,414,_ZNSt10unique_ptrINSt7__cxx1112basic_stringIcSt11char_traitsIcESaIcEEESt14default_deleteIS5_EEaSEOS8_
FN:451,455,_ZNKSt10unique_ptrINSt7__cxx1118basic_stringstreamIcSt11char_traitsIcESaIcEEESt14default_deleteIS5_EEdeEv
FN:460,464,_ZNKSt10unique_ptrINSt7__cxx1112basic_stringIcSt11char_traitsIcESaIcEEESt14default_deleteIS5_EEptEv
FN:469,470,_ZNKSt10unique_ptrINSt7__cxx1112basic_stringIcSt11char_traitsIcESaIcEEESt14default_deleteIS5_EE3getEv
FN:469,470,_ZNKSt10unique_ptrINSt7__cxx1118basic_stringstreamIcSt11char_traitsIcESaIcEEESt14default_deleteIS5_EE3getEv
FN:475,476,_ZNSt10unique_ptrINSt7__cxx1112basic_stringIcSt11char_traitsIcESaIcEEESt14default_deleteIS5_EE11get_deleterEv
FN:475,476,_ZNSt10unique_ptrINSt7__cxx1118basic_stringstreamIcSt11char_traitsIcESaIcEEESt14default_deleteIS5_EE11get_deleterEv
FN:486,487,_ZNKSt10unique_ptrINSt7__cxx1112basic_stringIcSt11char_traitsIcESaIcEEESt14default_deleteIS5_EEcvbEv
FN:837,838,_ZSteqINSt7__cxx1112basic_stringIcSt11char_traitsIcESaIcEEESt14default_deleteIS5_EEbRKSt10unique_ptrIT_T0_EDn
FN:93,100,_ZNKSt14default_deleteINSt7__cxx1112basic_stringIcSt11char_traitsIcESaIcEEEEclEPS5_
FN:93,100,_ZNKSt14default_deleteINSt7__cxx1118basic_stringstreamIcSt11char_traitsIcESaIcEEEEclEPS5_
FNDA:0,_ZSt11make_uniqueINSt7__cxx1112basic_stringIcSt11char_traitsIcESaIcEEEJEENSt8__detail9_MakeUniqIT_E15__single_objectEDpOT0_
FNDA:86,_ZNSt15__uniq_ptr_implINSt7__cxx1112basic_stringIcSt11char_traitsIcESaIcEEESt14default_deleteIS5_EEC2Ev
FNDA:0,_ZNSt15__uniq_ptr_implINSt7__cxx1112basic_stringIcSt11char_traitsIcESaIcEEESt14default_deleteIS5_EEC2EPS5_
FNDA:0,_ZNSt15__uniq_ptr_implINSt7__cxx1112basic_stringIcSt11char_traitsIcESaIcEEESt14default_deleteIS5_EEaSEOS8_
FNDA:86,_ZNSt15__uniq_ptr_implINSt7__cxx1112basic_stringIcSt11char_traitsIcESaIcEEESt14default_deleteIS5_EE6_M_ptrEv
FNDA:370,_ZNSt15__uniq_ptr_implINSt7__cxx1118basic_stringstreamIcSt11char_traitsIcESaIcEEESt14default_deleteIS5_EE6_M_ptrEv
FNDA:0,_ZNKSt15__uniq_ptr_implINSt7__cxx1112basic_stringIcSt11char_traitsIcESaIcEEESt14default_deleteIS5_EE6_M_ptrEv
FNDA:1797,_ZNKSt15__uniq_ptr_implINSt7__cxx1118basic_stringstreamIcSt11char_traitsIcESaIcEEESt14default_deleteIS5_EE6_M_ptrEv
FNDA:0,_ZNSt15__uniq_ptr_implINSt7__cxx1112basic_stringIcSt11char_traitsIcESaIcEEESt14default_deleteIS5_EE10_M_deleterEv
FNDA:185,_ZNSt15__uniq_ptr_implINSt7__cxx1118basic_stringstreamIcSt11char_traitsIcESaIcEEESt14default_deleteIS5_EE10_M_deleterEv
FNDA:0,_ZNSt15__uniq_ptr_implINSt7__cxx1112basic_stringIcSt11char_traitsIcESaIcEEESt14default_deleteIS5_EE5resetEPS5_
FNDA:0,_ZNSt15__uniq_ptr_implINSt7__cxx1112basic_stringIcSt11char_traitsIcESaIcEEESt14default_deleteIS5_EE7releaseEv
FNDA:0,_ZNSt15__uniq_ptr_dataINSt7__cxx1112basic_stringIcSt11char_traitsIcESaIcEEESt14default_deleteIS5_ELb1ELb1EEaSEOS8_
FNDA:86,_ZNSt10unique_ptrINSt7__cxx1112basic_stringIcSt11char_traitsIcESaIcEEESt14default_deleteIS5_EEC2IS7_vEEv
FNDA:0,_ZNSt10unique_ptrINSt7__cxx1112basic_stringIcSt11char_traitsIcESaIcEEESt14default_deleteIS5_EEC2IS7_vEEPS5_
FNDA:86,_ZNSt10unique_ptrINSt7__cxx1112basic_stringIcSt11char_traitsIcESaIcEEESt14default_deleteIS5_EED2Ev
FNDA:185,_ZNSt10unique_ptrINSt7__cxx1118basic_stringstreamIcSt11char_traitsIcESaIcEEESt14default_deleteIS5_EED2Ev
FNDA:0,_ZNSt10unique_ptrINSt7__cxx1112basic_stringIcSt11char_traitsIcESaIcEEESt14default_deleteIS5_EEaSEOS8_
FNDA:1612,_ZNKSt10unique_ptrINSt7__cxx1118basic_stringstreamIcSt11char_traitsIcESaIcEEESt14default_deleteIS5_EEdeEv
FNDA:0,_ZNKSt10unique_ptrINSt7__cxx1112basic_stringIcSt11char_traitsIcESaIcEEESt14default_deleteIS5_EEptEv
FNDA:0,_ZNKSt10unique_ptrINSt7__cxx1112basic_stringIcSt11char_traitsIcESaIcEEESt14default_deleteIS5_EE3getEv
FNDA:1797,_ZNKSt10unique_ptrINSt7__cxx1118basic_stringstreamIcSt11char_traitsIcESaIcEEESt14default_deleteIS5_EE3getEv
FNDA:0,_ZNSt10unique_ptrINSt7__cxx1112basic_stringIcSt11char_traitsIcESaIcEEESt14default_deleteIS5_EE11get_deleterEv
FNDA:185,_ZNSt10unique_ptrINSt7__cxx1118basic_stringstreamIcSt11char_traitsIcESaIcEEESt14default_deleteIS5_EE11get_deleterEv
FNDA:0,_ZNKSt10unique_ptrINSt7__cxx1112basic_stringIcSt11char_traitsIcESaIcEEESt14default_deleteIS5_EEcvbEv
FNDA:0,_ZSteqINSt7__cxx1112basic_stringIcSt11char_traitsIcESaIcEEESt14default_deleteIS5_EEbRKSt10unique_ptrIT_T0_EDn
FNDA:0,_ZNKSt14default_deleteINSt7__cxx1112basic_stringIcSt11char_traitsIcESaIcEEEEclEPS5_
FNDA:185,_ZNKSt14default_deleteINSt7__cxx1118basic_stringstreamIcSt11char_traitsIcESaIcEEEEclEPS5_
FNF:28
FNH:12
DA:93,185
DA:99,185
DA:100,185
DA:174,86
DA:176,0
DA:189,0
DA:191,0
DA:192,0
DA:193,0
DA:197,456
DA:199,1797
DA:201,185
DA:206,0
DA:208,0
DA:209,0
DA:210,0
DA:211,0
DA:212,0
DA:215,0
DA:217,0
DA:218,0
DA:219,0
DA:243,0
DA:304,86
DA:305,86
DA:306,86
DA:317,0
DA:318,0
DA:319,0
DA:398,271
DA:402,271
DA:403,271
DA:404,185
DA:405,271
DA:406,271
DA:414,0
DA:451,1612
DA:453,1612
DA:454,1612
DA:460,0
DA:463,0
DA:469,1797
DA:470,1797
DA:475,185
DA:476,185
DA:486,0
DA:487,0
DA:837,0
DA:838,0
DA:1069,0
DA:1070,0
LF:51
LH:23
end_of_record
TN:
SF:/usr/include/c++/13/compare
FN:283,284,_ZSteqSt15strong_orderingNSt9__cmp_cat8__unspecE
FN:288,288,_ZSteqSt15strong_orderingS_
FN:549,564,_ZNKSt17compare_three_wayclIRiS1_EEDaOT_OT0_
FNDA:40,_ZSteqSt15strong_orderingNSt9__cmp_cat8__unspecE
FNDA:16,_ZSteqSt15strong_orderingS_
FNDA:40,_ZNKSt17compare_three_wayclIRiS1_EEDaOT_OT0_
FNF:3
FNH:3
DA:258,16
DA:283,40
DA:284,40
DA:288,16
DA:549,40
DA:563,40
LF:6
LH:6
end_of_record
TN:
SF:/usr/include/c++/13/ext/alloc_traits.h
FNF:0
FNH:0
DA:98,378
DA:106,514
DA:118,0
LF:3
LH:2
end_of_record
TN:
SF:/usr/include/c++/13/initializer_list
FN:69,69,_ZNKSt16initializer_listINSt7__cxx1112basic_stringIcSt11char_traitsIcESaIcEEEE4sizeEv
FN:69,69,_ZNKSt16initializer_listIiE4sizeEv
FN:73,73,_ZNKSt16initializer_listINSt7__cxx1112basic_stringIcSt11char_traitsIcESaIcEEEE5beginEv
FN:73,73,_ZNKSt16initializer_listIiE5beginEv
FN:77,77,_ZNKSt16initializer_listINSt7__cxx1112basic_stringIcSt11char_traitsIcESaIcEEEE3endEv
FN:77,77,_ZNKSt16initializer_listIiE3endEv
FNDA:102,_ZNKSt16initializer_listINSt7__cxx1112basic_stringIcSt11char_traitsIcESaIcEEEE4sizeEv
FNDA:138,_ZNKSt16initializer_listIiE4sizeEv
FNDA:68,_ZNKSt16initializer_listINSt7__cxx1112basic_stringIcSt11char_traitsIcESaIcEEEE5beginEv
FNDA:92,_ZNKSt16initializer_listIiE5beginEv
FNDA:34,_ZNKSt16initializer_listINSt7__cxx1112basic_stringIcSt11char_traitsIcESaIcEEEE3endEv
FNDA:46,_ZNKSt16initializer_listIiE3endEv
FNF:6
FNH:6
DA:69,240
DA:73,160
DA:77,80
LF:3
LH:3
end_of_record
TN:
SF:/usr/include/c++/13/new
FN:174,175,_ZnwmPv
FNDA:162,_ZnwmPv
FNF:1
FNH:1
DA:174,162
DA:175,162
LF:2
LH:2
end_of_record
TN:
SF:/usr/include/c++/13/tuple
FN:125,125,_ZNSt10_Head_baseILm1ESt14default_deleteINSt7__cxx1112basic_stringIcSt11char_traitsIcESaIcEEEELb1EE7_M_headERS8_
FN:125,125,_ZNSt10_Head_baseILm1ESt14default_deleteINSt7__cxx1118basic_stringstreamIcSt11char_traitsIcESaIcEEEELb1EE7_M_headERS8_
FN:1317,1319,_ZNSt5tupleIJPNSt7__cxx1112basic_stringIcSt11char_traitsIcESaIcEEESt14default_deleteIS5_EEEC2ILb1ELb1EEEv
FN:1787,1788,_ZSt12__get_helperILm0EPNSt7__cxx1112basic_stringIcSt11char_traitsIcESaIcEEEJSt14default_deleteIS5_EEERT0_RSt11_Tuple_implIXT_EJS9_DpT1_EE
FN:1787,1788,_ZSt12__get_helperILm0EPNSt7__cxx1118basic_stringstreamIcSt11char_traitsIcESaIcEEEJSt14default_deleteIS5_EEERT0_RSt11_Tuple_implIXT_EJS9_DpT1_EE
FN:1787,1788,_ZSt12__get_helperILm1ESt14default_deleteINSt7__cxx1112basic_stringIcSt11char_traitsIcESaIcEEEEJEERT0_RSt11_Tuple_implIXT_EJS8_DpT1_EE
FN:1787,1788,_ZSt12__get_helperILm1ESt14default_deleteINSt7__cxx1118basic_stringstreamIcSt11char_traitsIcESaIcEEEEJEERT0_RSt11_Tuple_implIXT_EJS8_DpT1_EE
FN:1792,1793,_ZSt12__get_helperILm0EPNSt7__cxx1112basic_stringIcSt11char_traitsIcESaIcEEEJSt14default_deleteIS5_EEERKT0_RKSt11_Tuple_implIXT_EJS9_DpT1_EE
FN:1792,1793,_ZSt12__get_helperILm0EPNSt7__cxx1118basic_stringstreamIcSt11char_traitsIcESaIcEEEJSt14default_deleteIS5_EEERKT0_RKSt11_Tuple_implIXT_EJS9_DpT1_EE
FN:1803,1804,_ZSt3getILm0EJPNSt7__cxx1112basic_stringIcSt11char_traitsIcESaIcEEESt14default_deleteIS5_EEERNSt13tuple_elementIXT_ESt5tupleIJDpT0_EEE4typeERSD_
FN:1803,1804,_ZSt3getILm0EJPNSt7__cxx1118basic_stringstreamIcSt11char_traitsIcESaIcEEESt14default_deleteIS5_EEERNSt13tuple_elementIXT_ESt5tupleIJDpT0_EEE4typeERSD_
FN:1803,1804,_ZSt3getILm1EJPNSt7__cxx1112basic_stringIcSt11char_traitsIcESaIcEEESt14default_deleteIS5_EEERNSt13tuple_elementIXT_ESt5tupleIJDpT0_EEE4typeERSD_
FN:1803,1804,_ZSt3getILm1EJPNSt7__cxx1118basic_stringstreamIcSt11char_traitsIcESaIcEEESt14default_deleteIS5_EEERNSt13tuple_elementIXT_ESt5tupleIJDpT0_EEE4typeERSD_
FN:1809,1810,_ZSt3getILm0EJPNSt7__cxx1112basic_stringIcSt11char_traitsIcESaIcEEESt14default_deleteIS5_EEERKNSt13tuple_elementIXT_ESt5tupleIJDpT0_EEE4typeERKSD_
FN:1809,1810,_ZSt3getILm0EJPNSt7__cxx1118basic_stringstreamIcSt11char_traitsIcESaIcEEESt14default_deleteIS5_EEERKNSt13tuple_elementIXT_ESt5tupleIJDpT0_EEE4typeERKSD_
FN:190,191,_ZNSt10_Head_baseILm0EPNSt7__cxx1112basic_stringIcSt11char_traitsIcESaIcEEELb0EEC2Ev
FN:234,234,_ZNSt10_Head_baseILm0EPNSt7__cxx1112basic_stringIcSt11char_traitsIcESaIcEEELb0EE7_M_headERS7_
FN:234,234,_ZNSt10_Head_baseILm0EPNSt7__cxx1118basic_stringstreamIcSt11char_traitsIcESaIcEEELb0EE7_M_headERS7_
FN:237,237,_ZNSt10_Head_baseILm0EPNSt7__cxx1112basic_stringIcSt11char_traitsIcESaIcEEELb0EE7_M_headERKS7_
FN:237,237,_ZNSt10_Head_baseILm0EPNSt7__cxx1118basic_stringstreamIcSt11char_traitsIcESaIcEEELb0EE7_M_headERKS7_
FN:269,269,_ZNSt11_Tuple_implILm0EJPNSt7__cxx1112basic_stringIcSt11char_traitsIcESaIcEEESt14default_deleteIS5_EEE7_M_headERS9_
FN:269,269,_ZNSt11_Tuple_implILm0EJPNSt7__cxx1118basic_stringstreamIcSt11char_traitsIcESaIcEEESt14default_deleteIS5_EEE7_M_headERS9_
FN:272,272,_ZNSt11_Tuple_implILm0EJPNSt7__cxx1112basic_stringIcSt11char_traitsIcESaIcEEESt14default_deleteIS5_EEE7_M_headERKS9_
FN:272,272,_ZNSt11_Tuple_implILm0EJPNSt7__cxx1118basic_stringstreamIcSt11char_traitsIcESaIcEEESt14default_deleteIS5_EEE7_M_headERKS9_
FN:280,281,_ZNSt11_Tuple_implILm0EJPNSt7__cxx1112basic_stringIcSt11char_traitsIcESaIcEEESt14default_deleteIS5_EEEC2Ev
FN:497,497,_ZNSt11_Tuple_implILm1EJSt14default_deleteINSt7__cxx1112basic_stringIcSt11char_traitsIcESaIcEEEEEE7_M_headERS8_
FN:497,497,_ZNSt11_Tuple_implILm1EJSt14default_deleteINSt7__cxx1118basic_stringstreamIcSt11char_traitsIcESaIcEEEEEE7_M_headERS8_
FN:503,504,_ZNSt11_Tuple_implILm1EJSt14default_deleteINSt7__cxx1112basic_stringIcSt11char_traitsIcESaIcEEEEEEC2Ev
FN:81,82,_ZNSt10_Head_baseILm1ESt14default_deleteINSt7__cxx1112basic_stringIcSt11char_traitsIcESaIcEEEELb1EEC2Ev
FNDA:0,_ZNSt10_Head_baseILm1ESt14default_deleteINSt7__cxx1112basic_stringIcSt11char_traitsIcESaIcEEEELb1EE7_M_headERS8_
FNDA:185,_ZNSt10_Head_baseILm1ESt14default_deleteINSt7__cxx1118basic_stringstreamIcSt11char_traitsIcESaIcEEEELb1EE7_M_headERS8_
FNDA:86,_ZNSt5tupleIJPNSt7__cxx1112basic_stringIcSt11char_traitsIcESaIcEEESt14default_deleteIS5_EEEC2ILb1ELb1EEEv
FNDA:86,_ZSt12__get_helperILm0EPNSt7__cxx1112basic_stringIcSt11char_traitsIcESaIcEEEJSt14default_deleteIS5_EEERT0_RSt11_Tuple_implIXT_EJS9_DpT1_EE
FNDA:370,_ZSt12__get_helperILm0EPNSt7__cxx1118basic_stringstreamIcSt11char_traitsIcESaIcEEEJSt14default_deleteIS5_EEERT0_RSt11_Tuple_implIXT_EJS9_DpT1_EE
FNDA:0,_ZSt12__get_helperILm1ESt14default_deleteINSt7__cxx1112basic_stringIcSt11char_traitsIcESaIcEEEEJEERT0_RSt11_Tuple_implIXT_EJS8_DpT1_EE
FNDA:185,_ZSt12__get_helperILm1ESt14default_deleteINSt7__cxx1118basic_stringstreamIcSt11char_traitsIcESaIcEEEEJEERT0_RSt11_Tuple_implIXT_EJS8_DpT1_EE
FNDA:0,_ZSt12__get_helperILm0EPNSt7__cxx1112basic_stringIcSt11char_traitsIcESaIcEEEJSt14default_deleteIS5_EEERKT0_RKSt11_Tuple_implIXT_EJS9_DpT1_EE
FNDA:1797,_ZSt12__get_helperILm0EPNSt7__cxx1118basic_stringstreamIcSt11char_traitsIcESaIcEEEJSt14default_deleteIS5_EEERKT0_RKSt11_Tuple_implIXT_EJS9_DpT1_EE
FNDA:86,_ZSt3getILm0EJPNSt7__cxx1112basic_stringIcSt11char_traitsIcESaIcEEESt14default_deleteIS5_EEERNSt13tuple_elementIXT_ESt5tupleIJDpT0_EEE4typeERSD_
FNDA:370,_ZSt3getILm0EJPNSt7__cxx1118basic_stringstreamIcSt11char_traitsIcESaIcEEESt14default_deleteIS5_EEERNSt13tuple_elementIXT_ESt5tupleIJDpT0_EEE4typeERSD_
FNDA:0,_ZSt3getILm1EJPNSt7__cxx1112basic_stringIcSt11char_traitsIcESaIcEEESt14default_deleteIS5_EEERNSt13tuple_elementIXT_ESt5tupleIJDpT0_EEE4typeERSD_
FNDA:185,_ZSt3getILm1EJPNSt7__cxx1118basic_stringstreamIcSt11char_traitsIcESaIcEEESt14default_deleteIS5_EEERNSt13tuple_elementIXT_ESt5tupleIJDpT0_EEE4typeERSD_
FNDA:0,_ZSt3getILm0EJPNSt7__cxx1112basic_stringIcSt11char_traitsIcESaIcEEESt14default_deleteIS5_EEERKNSt13tuple_elementIXT_ESt5tupleIJDpT0_EEE4typeERKSD_
FNDA:1797,_ZSt3getILm0EJPNSt7__cxx1118basic_stringstreamIcSt11char_traitsIcESaIcEEESt14default_deleteIS5_EEERKNSt13tuple_elementIXT_ESt5tupleIJDpT0_EEE4typeERKSD_
FNDA:86,_ZNSt10_Head_baseILm0EPNSt7__cxx1112basic_stringIcSt11char_traitsIcESaIcEEELb0EEC2Ev
FNDA:86,_ZNSt10_Head_baseILm0EPNSt7__cxx1112basic_stringIcSt11char_traitsIcESaIcEEELb0EE7_M_headERS7_
FNDA:370,_ZNSt10_Head_baseILm0EPNSt7__cxx1118basic_stringstreamIcSt11char_traitsIcESaIcEEELb0EE7_M_headERS7_
FNDA:0,_ZNSt10_Head_baseILm0EPNSt7__cxx1112basic_stringIcSt11char_traitsIcESaIcEEELb0EE7_M_headERKS7_
FNDA:1797,_ZNSt10_Head_baseILm0EPNSt7__cxx1118basic_stringstreamIcSt11char_traitsIcESaIcEEELb0EE7_M_headERKS7_
FNDA:86,_ZNSt11_Tuple_implILm0EJPNSt7__cxx1112basic_stringIcSt11char_traitsIcESaIcEEESt14default_deleteIS5_EEE7_M_headERS9_
FNDA:370,_ZNSt11_Tuple_implILm0EJPNSt7__cxx1118basic_stringstreamIcSt11char_traitsIcESaIcEEESt14default_deleteIS5_EEE7_M_headERS9_
FNDA:0,_ZNSt11_Tuple_implILm0EJPNSt7__cxx1112basic_stringIcSt11char_traitsIcESaIcEEESt14default_deleteIS5_EEE7_M_headERKS9_
FNDA:1797,_ZNSt11_Tuple_implILm0EJPNSt7__cxx1118basic_stringstreamIcSt11char_traitsIcESaIcEEESt14default_deleteIS5_EEE7_M_headERKS9_
FNDA:86,_ZNSt11_Tuple_implILm0EJPNSt7__cxx1112basic_stringIcSt11char_traitsIcESaIcEEESt14default_deleteIS5_EEEC2Ev
FNDA:0,_ZNSt11_Tuple_implILm1EJSt14default_deleteINSt7__cxx1112basic_stringIcSt11char_traitsIcESaIcEEEEEE7_M_headERS8_
FNDA:185,_ZNSt11_Tuple_implILm1EJSt14default_deleteINSt7__cxx1118basic_stringstreamIcSt11char_traitsIcESaIcEEEEEE7_M_headERS8_
FNDA:86,_ZNSt11_Tuple_implILm1EJSt14default_deleteINSt7__cxx1112basic_stringIcSt11char_traitsIcESaIcEEEEEEC2Ev
FNDA:86,_ZNSt10_Head_baseILm1ESt14default_deleteINSt7__cxx1112basic_stringIcSt11char_traitsIcESaIcEEEELb1EEC2Ev
FNF:29
FNH:21
DA:81,86
DA:82,86
DA:125,185
DA:190,86
DA:191,86
DA:234,456
DA:237,1797
DA:269,456
DA:272,1797
DA:280,86
DA:281,86
DA:497,185
DA:503,86
DA:504,86
DA:1317,86
DA:1319,86
DA:1787,641
DA:1788,641
DA:1792,1797
DA:1793,1797
DA:1803,641
DA:1804,641
DA:1809,1797
DA:1810,1797
LF:24
LH:24
end_of_record
TN:
SF:/usr/include/c++/13/type_traits
FN:3649,3656,_ZSt21is_constant_evaluatedv
FNDA:2123,_ZSt21is_constant_evaluatedv
FNF:1
FNH:1
DA:3649,2123
DA:3654,2123
LF:2
LH:2
end_of_record
TN:
SF:/usr/include/c++/13/typeinfo
FN:103,104,_ZNKSt9type_info4nameEv
FNDA:0,_ZNKSt9type_info4nameEv
FNF:1
FNH:0
DA:103,0
DA:104,0
LF:2
LH:0
end_of_record
TN:
SF:/usr/include/x86_64-linux-gnu/c++/13/bits/c++config.h
FN:540,551,_ZSt23__is_constant_evaluatedv
FNDA:14026,_ZSt23__is_constant_evaluatedv
FNF:1
FNH:1
DA:540,14026
DA:547,14026
LF:2
LH:2
end_of_record
