TN:
SF:/mnt/c/Users/senya/CLionProjects/fund_alg_4sem/lab1_2/cmake-build-debug/_deps/googletest-src/googletest/include/gtest/gtest-assertion-result.h
FN:155,161,_ZN7testing15AssertionResultC2IbEERKT_PNSt9enable_ifIXntsrSt14is_convertibleIS2_S0_E5valueEvE4typeE
FN:174,174,_ZNK7testing15AssertionResultcvbEv
FN:183,185,_ZNK7testing15AssertionResult7messageEv
FN:187,187,_ZNK7testing15AssertionResult15failure_messageEv
FN:191,194,_ZN7testing15AssertionResultlsIA12_cEERS0_RKT_
FN:191,194,_ZN7testing15AssertionResultlsIA3_cEERS0_RKT_
FN:191,194,_ZN7testing15AssertionResultlsIA5_cEERS0_RKT_
FN:191,194,_ZN7testing15AssertionResultlsINSt7__cxx1112basic_stringIcSt11char_traitsIcESaIcEEEEERS0_RKT_
FN:191,194,_ZN7testing15AssertionResultlsIPKcEERS0_RKT_
FN:206,209,_ZN7testing15AssertionResult13AppendMessageERKNS_7MessageE
FNDA:75,_ZN7testing15AssertionResultC2IbEERKT_PNSt9enable_ifIXntsrSt14is_convertibleIS2_S0_E5valueEvE4typeE
FNDA:75,_ZNK7testing15AssertionResultcvbEv
FNDA:0,_ZNK7testing15AssertionResult7messageEv
FNDA:0,_ZNK7testing15AssertionResult15failure_messageEv
FNDA:0,_ZN7testing15AssertionResultlsIA12_cEERS0_RKT_
FNDA:0,_ZN7testing15AssertionResultlsIA3_cEERS0_RKT_
FNDA:0,_ZN7testing15AssertionResultlsIA5_cEERS0_RKT_
FNDA:0,_ZN7testing15AssertionResultlsINSt7__cxx1112basic_stringIcSt11char_traitsIcESaIcEEEEERS0_RKT_
FNDA:0,_ZN7testing15AssertionResultlsIPKcEERS0_RKT_
FNDA:0,_ZN7testing15AssertionResult13AppendMessageERKNS_7MessageE
FNF:10
FNH:2
DA:155,75
DA:161,75
DA:174,75
DA:183,0
DA:184,0
DA:187,0
DA:191,0
DA:192,0
DA:193,0
DA:206,0
DA:207,0
DA:208,0
DA:209,0
LF:13
LH:3
end_of_record
TN:
SF:/mnt/c/Users/senya/CLionProjects/fund_alg_4sem/lab1_2/cmake-build-debug/_deps/googletest-src/googletest/include/gtest/gtest-message.h
FN:132,150,_ZN7testing7MessagelsIA12_cEERS0_RKT_
FN:132,150,_ZN7testing7MessagelsIA3_cEERS0_RKT_
FN:132,150,_ZN7testing7MessagelsIA5_cEERS0_RKT_
FN:132,150,_ZN7testing7MessagelsINSt7__cxx1112basic_stringIcSt11char_traitsIcESaIcEEEEERS0_RKT_
FN:182,189,_ZN7testing7MessagelsIKcEERS0_RKPT_
FNDA:0,_ZN7testing7MessagelsIA12_cEERS0_RKT_
FNDA:0,_ZN7testing7MessagelsIA3_cEERS0_RKT_
FNDA:0,_ZN7testing7MessagelsIA5_cEERS0_RKT_
FNDA:0,_ZN7testing7MessagelsINSt7__cxx1112basic_stringIcSt11char_traitsIcESaIcEEEEERS0_RKT_
FNDA:42,_ZN7testing7MessagelsIKcEERS0_RKPT_
FNF:5
FNH:1
DA:132,0
DA:148,0
DA:149,0
DA:182,42
DA:183,42
DA:184,0
DA:186,42
DA:188,42
LF:8
LH:4
end_of_record
TN:
SF:/mnt/c/Users/senya/CLionProjects/fund_alg_4sem/lab1_2/cmake-build-debug/_deps/googletest-src/googletest/include/gtest/gtest-printers.h
FN:1017,1023,_ZN7testing8internal21UniversalTersePrinterIPKcE5PrintES3_PSo
FN:1108,1113,_ZN7testing8internal14UniversalPrintIN12my_container4ListIiE8iteratorEEEvRKT_PSo
FN:1108,1113,_ZN7testing8internal14UniversalPrintIN12my_container4ListIiEEEEvRKT_PSo
FN:1108,1113,_ZN7testing8internal14UniversalPrintINSt7__cxx1112basic_stringIcSt11char_traitsIcESaIcEEEEEvRKT_PSo
FN:1108,1113,_ZN7testing8internal14UniversalPrintIPKNSt7__cxx1112basic_stringIcSt11char_traitsIcESaIcEEEEEvRKT_PSo
FN:1108,1113,_ZN7testing8internal14UniversalPrintIPKiEEvRKT_PSo
FN:1108,1113,_ZN7testing8internal14UniversalPrintIPN12my_container4ListIiEEEEvRKT_PSo
FN:1108,1113,_ZN7testing8internal14UniversalPrintIPiEEvRKT_PSo
FN:1108,1113,_ZN7testing8internal14UniversalPrintISt16reverse_iteratorIN12my_container4ListINSt7__cxx1112basic_stringIcSt11char_traitsIcESaIcEEEE8iteratorEEEEvRKT_PSo
FN:1108,1113,_ZN7testing8internal14UniversalPrintISt16reverse_iteratorIN12my_container4ListIiE14const_iteratorEEEEvRKT_PSo
FN:1108,1113,_ZN7testing8internal14UniversalPrintISt6vectorIiSaIiEEEEvRKT_PSo
FN:1108,1113,_ZN7testing8internal14UniversalPrintIdEEvRKT_PSo
FN:1108,1113,_ZN7testing8internal14UniversalPrintIiEEvRKT_PSo
FN:1108,1113,_ZN7testing8internal14UniversalPrintImEEvRKT_PSo
FN:1148,1152,_ZN7testing13PrintToStringIN12my_container4ListIiE8iteratorEEENSt7__cxx1112basic_stringIcSt11char_traitsIcESaIcEEERKT_
FN:1148,1152,_ZN7testing13PrintToStringIN12my_container4ListIiEEEENSt7__cxx1112basic_stringIcSt11char_traitsIcESaIcEEERKT_
FN:1148,1152,_ZN7testing13PrintToStringINSt7__cxx1112basic_stringIcSt11char_traitsIcESaIcEEEEES6_RKT_
FN:1148,1152,_ZN7testing13PrintToStringIPKNSt7__cxx1112basic_stringIcSt11char_traitsIcESaIcEEEEES6_RKT_
FN:1148,1152,_ZN7testing13PrintToStringIPKcEENSt7__cxx1112basic_stringIcSt11char_traitsIcESaIcEEERKT_
FN:1148,1152,_ZN7testing13PrintToStringIPKiEENSt7__cxx1112basic_stringIcSt11char_traitsIcESaIcEEERKT_
FN:1148,1152,_ZN7testing13PrintToStringIPN12my_container4ListIiEEEENSt7__cxx1112basic_stringIcSt11char_traitsIcESaIcEEERKT_
FN:1148,1152,_ZN7testing13PrintToStringIPiEENSt7__cxx1112basic_stringIcSt11char_traitsIcESaIcEEERKT_
FN:1148,1152,_ZN7testing13PrintToStringISt16reverse_iteratorIN12my_container4ListINSt7__cxx1112basic_stringIcSt11char_traitsIcESaIcEEEE8iteratorEEEES9_RKT_
FN:1148,1152,_ZN7testing13PrintToStringISt16reverse_iteratorIN12my_container4ListIiE14const_iteratorEEEENSt7__cxx1112basic_stringIcSt11char_traitsIcESaIcEEERKT_
FN:1148,1152,_ZN7testing13PrintToStringISt6vectorIiSaIiEEEENSt7__cxx1112basic_stringIcSt11char_traitsIcESaIcEEERKT_
FN:1148,1152,_ZN7testing13PrintToStringIdEENSt7__cxx1112basic_stringIcSt11char_traitsIcESaIcEEERKT_
FN:1148,1152,_ZN7testing13PrintToStringIiEENSt7__cxx1112basic_stringIcSt11char_traitsIcESaIcEEERKT_
FN:1148,1152,_ZN7testing13PrintToStringImEENSt7__cxx1112basic_stringIcSt11char_traitsIcESaIcEEERKT_
FN:141,164,_ZN7testing8internal16ContainerPrinter10PrintValueIN12my_container4ListIiEEvEEvRKT_PSo
FN:141,164,_ZN7testing8internal16ContainerPrinter10PrintValueISt6vectorIiSaIiEEvEEvRKT_PSo
FN:190,199,_ZN7testing8internal14PointerPrinter10PrintValueIKNSt7__cxx1112basic_stringIcSt11char_traitsIcESaIcEEEEEvPT_PSo
FN:190,199,_ZN7testing8internal14PointerPrinter10PrintValueIKiEEvPT_PSo
FN:190,199,_ZN7testing8internal14PointerPrinter10PrintValueIN12my_container4ListIiEEEEvPT_PSo
FN:190,199,_ZN7testing8internal14PointerPrinter10PrintValueIiEEvPT_PSo
FN:221,226,_ZN7testing8internal52internal_stream_operator_without_lexical_name_lookup13StreamPrinter10PrintValueIivEEDTcvvlsdefp0_fp_ERKT_PSo
FN:221,226,_ZN7testing8internal52internal_stream_operator_without_lexical_name_lookup13StreamPrinter10PrintValueImvEEDTcvvlsdefp0_fp_ERKT_PSo
FN:289,295,_ZN7testing8internal15RawBytesPrinter10PrintValueIN12my_container4ListIiE8iteratorELm8EEEvRKT_PSo
FN:289,295,_ZN7testing8internal15RawBytesPrinter10PrintValueISt16reverse_iteratorIN12my_container4ListINSt7__cxx1112basic_stringIcSt11char_traitsIcESaIcEEEE8iteratorEELm8EEEvRKT_PSo
FN:289,295,_ZN7testing8internal15RawBytesPrinter10PrintValueISt16reverse_iteratorIN12my_container4ListIiE14const_iteratorEELm8EEEvRKT_PSo
FN:326,337,_ZN7testing8internal17PrintWithFallbackIN12my_container4ListIiE8iteratorEEEvRKT_PSo
FN:326,337,_ZN7testing8internal17PrintWithFallbackIN12my_container4ListIiEEEEvRKT_PSo
FN:326,337,_ZN7testing8internal17PrintWithFallbackIPKNSt7__cxx1112basic_stringIcSt11char_traitsIcESaIcEEEEEvRKT_PSo
FN:326,337,_ZN7testing8internal17PrintWithFallbackIPKiEEvRKT_PSo
FN:326,337,_ZN7testing8internal17PrintWithFallbackIPN12my_container4ListIiEEEEvRKT_PSo
FN:326,337,_ZN7testing8internal17PrintWithFallbackIPiEEvRKT_PSo
FN:326,337,_ZN7testing8internal17PrintWithFallbackISt16reverse_iteratorIN12my_container4ListINSt7__cxx1112basic_stringIcSt11char_traitsIcESaIcEEEE8iteratorEEEEvRKT_PSo
FN:326,337,_ZN7testing8internal17PrintWithFallbackISt16reverse_iteratorIN12my_container4ListIiE14const_iteratorEEEEvRKT_PSo
FN:326,337,_ZN7testing8internal17PrintWithFallbackISt6vectorIiSaIiEEEEvRKT_PSo
FN:326,337,_ZN7testing8internal17PrintWithFallbackIiEEvRKT_PSo
FN:326,337,_ZN7testing8internal17PrintWithFallbackImEEvRKT_PSo
FN:357,359,_ZN7testing8internal19FormatForComparisonIN12my_container4ListIiE8iteratorES5_E6FormatB5cxx11ERKS5_
FN:357,359,_ZN7testing8internal19FormatForComparisonIN12my_container4ListIiEES4_E6FormatB5cxx11ERKS4_
FN:357,359,_ZN7testing8internal19FormatForComparisonINSt7__cxx1112basic_stringIcSt11char_traitsIcESaIcEEEA5_cE6FormatERKS7_
FN:357,359,_ZN7testing8internal19FormatForComparisonINSt7__cxx1112basic_stringIcSt11char_traitsIcESaIcEEEA6_cE6FormatERKS7_
FN:357,359,_ZN7testing8internal19FormatForComparisonIPKNSt7__cxx1112basic_stringIcSt11char_traitsIcESaIcEEES9_E6FormatERKS9_
FN:357,359,_ZN7testing8internal19FormatForComparisonIPKiPiE6FormatB5cxx11ERKS3_
FN:357,359,_ZN7testing8internal19FormatForComparisonIPKiS3_E6FormatB5cxx11ERKS3_
FN:357,359,_ZN7testing8internal19FormatForComparisonIPN12my_container4ListIiEES5_E6FormatB5cxx11ERKS5_
FN:357,359,_ZN7testing8internal19FormatForComparisonIPiPKiE6FormatB5cxx11ERKS2_
FN:357,359,_ZN7testing8internal19FormatForComparisonISt16reverse_iteratorIN12my_container4ListINSt7__cxx1112basic_stringIcSt11char_traitsIcESaIcEEEE8iteratorEESD_E6FormatERKSD_
FN:357,359,_ZN7testing8internal19FormatForComparisonISt16reverse_iteratorIN12my_container4ListIiE14const_iteratorEES7_E6FormatB5cxx11ERKS7_
FN:357,359,_ZN7testing8internal19FormatForComparisonISt6vectorIiSaIiEES4_E6FormatB5cxx11ERKS4_
FN:357,359,_ZN7testing8internal19FormatForComparisonIddE6FormatB5cxx11ERKd
FN:357,359,_ZN7testing8internal19FormatForComparisonIiiE6FormatB5cxx11ERKi
FN:357,359,_ZN7testing8internal19FormatForComparisonIimE6FormatB5cxx11ERKi
FN:357,359,_ZN7testing8internal19FormatForComparisonImiE6FormatB5cxx11ERKm
FN:357,359,_ZN7testing8internal19FormatForComparisonImmE6FormatB5cxx11ERKm
FN:366,368,_ZN7testing8internal19FormatForComparisonIA5_cNSt7__cxx1112basic_stringIcSt11char_traitsIcESaIcEEEE6FormatEPKc
FN:366,368,_ZN7testing8internal19FormatForComparisonIA6_cNSt7__cxx1112basic_stringIcSt11char_traitsIcESaIcEEEE6FormatEPKc
FN:411,411,_ZN7testing8internal19FormatForComparisonIPKcNSt7__cxx1112basic_stringIcSt11char_traitsIcESaIcEEEE6FormatES3_
FN:437,440,_ZN7testing8internal33FormatForComparisonFailureMessageIA5_cNSt7__cxx1112basic_stringIcSt11char_traitsIcESaIcEEEEES8_RKT_RKT0_
FN:437,440,_ZN7testing8internal33FormatForComparisonFailureMessageIA6_cNSt7__cxx1112basic_stringIcSt11char_traitsIcESaIcEEEEES8_RKT_RKT0_
FN:437,440,_ZN7testing8internal33FormatForComparisonFailureMessageIN12my_container4ListIiE8iteratorES5_EENSt7__cxx1112basic_stringIcSt11char_traitsIcESaIcEEERKT_RKT0_
FN:437,440,_ZN7testing8internal33FormatForComparisonFailureMessageIN12my_container4ListIiEES4_EENSt7__cxx1112basic_stringIcSt11char_traitsIcESaIcEEERKT_RKT0_
FN:437,440,_ZN7testing8internal33FormatForComparisonFailureMessageINSt7__cxx1112basic_stringIcSt11char_traitsIcESaIcEEEA5_cEES7_RKT_RKT0_
FN:437,440,_ZN7testing8internal33FormatForComparisonFailureMessageINSt7__cxx1112basic_stringIcSt11char_traitsIcESaIcEEEA6_cEES7_RKT_RKT0_
FN:437,440,_ZN7testing8internal33FormatForComparisonFailureMessageIPKNSt7__cxx1112basic_stringIcSt11char_traitsIcESaIcEEES9_EES7_RKT_RKT0_
FN:437,440,_ZN7testing8internal33FormatForComparisonFailureMessageIPKiPiEENSt7__cxx1112basic_stringIcSt11char_traitsIcESaIcEEERKT_RKT0_
FN:437,440,_ZN7testing8internal33FormatForComparisonFailureMessageIPKiS3_EENSt7__cxx1112basic_stringIcSt11char_traitsIcESaIcEEERKT_RKT0_
FN:437,440,_ZN7testing8internal33FormatForComparisonFailureMessageIPN12my_container4ListIiEES5_EENSt7__cxx1112basic_stringIcSt11char_traitsIcESaIcEEERKT_RKT0_
FN:437,440,_ZN7testing8internal33FormatForComparisonFailureMessageIPiPKiEENSt7__cxx1112basic_stringIcSt11char_traitsIcESaIcEEERKT_RKT0_
FN:437,440,_ZN7testing8internal33FormatForComparisonFailureMessageISt16reverse_iteratorIN12my_container4ListINSt7__cxx1112basic_stringIcSt11char_traitsIcESaIcEEEE8iteratorEESD_EESA_RKT_RKT0_
FN:437,440,_ZN7testing8internal33FormatForComparisonFailureMessageISt16reverse_iteratorIN12my_container4ListIiE14const_iteratorEES7_EENSt7__cxx1112basic_stringIcSt11char_traitsIcESaIcEEERKT_RKT0_
FN:437,440,_ZN7testing8internal33FormatForComparisonFailureMessageISt6vectorIiSaIiEES4_EENSt7__cxx1112basic_stringIcSt11char_traitsIcESaIcEEERKT_RKT0_
FN:437,440,_ZN7testing8internal33FormatForComparisonFailureMessageIddEENSt7__cxx1112basic_stringIcSt11char_traitsIcESaIcEEERKT_RKT0_
FN:437,440,_ZN7testing8internal33FormatForComparisonFailureMessageIiiEENSt7__cxx1112basic_stringIcSt11char_traitsIcESaIcEEERKT_RKT0_
FN:437,440,_ZN7testing8internal33FormatForComparisonFailureMessageIimEENSt7__cxx1112basic_stringIcSt11char_traitsIcESaIcEEERKT_RKT0_
FN:437,440,_ZN7testing8internal33FormatForComparisonFailureMessageImiEENSt7__cxx1112basic_stringIcSt11char_traitsIcESaIcEEERKT_RKT0_
FN:437,440,_ZN7testing8internal33FormatForComparisonFailureMessageImmEENSt7__cxx1112basic_stringIcSt11char_traitsIcESaIcEEERKT_RKT0_
FN:464,466,_ZN7testing8internal7PrintToIN12my_container4ListIiE8iteratorEEEvRKT_PSo
FN:464,466,_ZN7testing8internal7PrintToIN12my_container4ListIiEEEEvRKT_PSo
FN:464,466,_ZN7testing8internal7PrintToIPKNSt7__cxx1112basic_stringIcSt11char_traitsIcESaIcEEEEEvRKT_PSo
FN:464,466,_ZN7testing8internal7PrintToIPKiEEvRKT_PSo
FN:464,466,_ZN7testing8internal7PrintToIPN12my_container4ListIiEEEEvRKT_PSo
FN:464,466,_ZN7testing8internal7PrintToIPiEEvRKT_PSo
FN:464,466,_ZN7testing8internal7PrintToISt16reverse_iteratorIN12my_container4ListINSt7__cxx1112basic_stringIcSt11char_traitsIcESaIcEEEE8iteratorEEEEvRKT_PSo
FN:464,466,_ZN7testing8internal7PrintToISt16reverse_iteratorIN12my_container4ListIiE14const_iteratorEEEEvRKT_PSo
FN:464,466,_ZN7testing8internal7PrintToISt6vectorIiSaIiEEEEvRKT_PSo
FN:464,466,_ZN7testing8internal7PrintToIiEEvRKT_PSo
FN:464,466,_ZN7testing8internal7PrintToImEEvRKT_PSo
FN:529,577,_ZN7testing8internal21AppropriateResolutionIdEEiT_
FN:586,591,_ZN7testing8internal7PrintToEdPSo
FN:660,662,_ZN7testing8internal7PrintToERKNSt7__cxx1112basic_stringIcSt11char_traitsIcESaIcEEEPSo
FN:799,809,_ZN7testing8internal16UniversalPrinterIN12my_container4ListIiE8iteratorEE5PrintERKS5_PSo
FN:799,809,_ZN7testing8internal16UniversalPrinterIN12my_container4ListIiEEE5PrintERKS4_PSo
FN:799,809,_ZN7testing8internal16UniversalPrinterINSt7__cxx1112basic_stringIcSt11char_traitsIcESaIcEEEE5PrintERKS7_PSo
FN:799,809,_ZN7testing8internal16UniversalPrinterIPKNSt7__cxx1112basic_stringIcSt11char_traitsIcESaIcEEEE5PrintERKS9_PSo
FN:799,809,_ZN7testing8internal16UniversalPrinterIPKiE5PrintERKS3_PSo
FN:799,809,_ZN7testing8internal16UniversalPrinterIPN12my_container4ListIiEEE5PrintERKS5_PSo
FN:799,809,_ZN7testing8internal16UniversalPrinterIPiE5PrintERKS2_PSo
FN:799,809,_ZN7testing8internal16UniversalPrinterISt16reverse_iteratorIN12my_container4ListINSt7__cxx1112basic_stringIcSt11char_traitsIcESaIcEEEE8iteratorEEE5PrintERKSD_PSo
FN:799,809,_ZN7testing8internal16UniversalPrinterISt16reverse_iteratorIN12my_container4ListIiE14const_iteratorEEE5PrintERKS7_PSo
FN:799,809,_ZN7testing8internal16UniversalPrinterISt6vectorIiSaIiEEE5PrintERKS4_PSo
FN:799,809,_ZN7testing8internal16UniversalPrinterIdE5PrintERKdPSo
FN:799,809,_ZN7testing8internal16UniversalPrinterIiE5PrintERKiPSo
FN:799,809,_ZN7testing8internal16UniversalPrinterImE5PrintERKmPSo
FN:989,991,_ZN7testing8internal21UniversalTersePrinterIN12my_container4ListIiE8iteratorEE5PrintERKS5_PSo
FN:989,991,_ZN7testing8internal21UniversalTersePrinterIN12my_container4ListIiEEE5PrintERKS4_PSo
FN:989,991,_ZN7testing8internal21UniversalTersePrinterINSt7__cxx1112basic_stringIcSt11char_traitsIcESaIcEEEE5PrintERKS7_PSo
FN:989,991,_ZN7testing8internal21UniversalTersePrinterIPKNSt7__cxx1112basic_stringIcSt11char_traitsIcESaIcEEEE5PrintERKS9_PSo
FN:989,991,_ZN7testing8internal21UniversalTersePrinterIPKiE5PrintERKS3_PSo
FN:989,991,_ZN7testing8internal21UniversalTersePrinterIPN12my_container4ListIiEEE5PrintERKS5_PSo
FN:989,991,_ZN7testing8internal21UniversalTersePrinterIPiE5PrintERKS2_PSo
FN:989,991,_ZN7testing8internal21UniversalTersePrinterISt16reverse_iteratorIN12my_container4ListINSt7__cxx1112basic_stringIcSt11char_traitsIcESaIcEEEE8iteratorEEE5PrintERKSD_PSo
FN:989,991,_ZN7testing8internal21UniversalTersePrinterISt16reverse_iteratorIN12my_container4ListIiE14const_iteratorEEE5PrintERKS7_PSo
FN:989,991,_ZN7testing8internal21UniversalTersePrinterISt6vectorIiSaIiEEE5PrintERKS4_PSo
FN:989,991,_ZN7testing8internal21UniversalTersePrinterIdE5PrintERKdPSo
FN:989,991,_ZN7testing8internal21UniversalTersePrinterIiE5PrintERKiPSo
FN:989,991,_ZN7testing8internal21UniversalTersePrinterImE5PrintERKmPSo
FNDA:0,_ZN7testing8internal21UniversalTersePrinterIPKcE5PrintES3_PSo
FNDA:0,_ZN7testing8internal14UniversalPrintIN12my_container4ListIiE8iteratorEEEvRKT_PSo
FNDA:0,_ZN7testing8internal14UniversalPrintIN12my_container4ListIiEEEEvRKT_PSo
FNDA:0,_ZN7testing8internal14UniversalPrintINSt7__cxx1112basic_stringIcSt11char_traitsIcESaIcEEEEEvRKT_PSo
FNDA:0,_ZN7testing8internal14UniversalPrintIPKNSt7__cxx1112basic_stringIcSt11char_traitsIcESaIcEEEEEvRKT_PSo
FNDA:0,_ZN7testing8internal14UniversalPrintIPKiEEvRKT_PSo
FNDA:0,_ZN7testing8internal14UniversalPrintIPN12my_container4ListIiEEEEvRKT_PSo
FNDA:0,_ZN7testing8internal14UniversalPrintIPiEEvRKT_PSo
FNDA:0,_ZN7testing8internal14UniversalPrintISt16reverse_iteratorIN12my_container4ListINSt7__cxx1112basic_stringIcSt11char_traitsIcESaIcEEEE8iteratorEEEEvRKT_PSo
FNDA:0,_ZN7testing8internal14UniversalPrintISt16reverse_iteratorIN12my_container4ListIiE14const_iteratorEEEEvRKT_PSo
FNDA:0,_ZN7testing8internal14UniversalPrintISt6vectorIiSaIiEEEEvRKT_PSo
FNDA:0,_ZN7testing8internal14UniversalPrintIdEEvRKT_PSo
FNDA:0,_ZN7testing8internal14UniversalPrintIiEEvRKT_PSo
FNDA:0,_ZN7testing8internal14UniversalPrintImEEvRKT_PSo
FNDA:0,_ZN7testing13PrintToStringIN12my_container4ListIiE8iteratorEEENSt7__cxx1112basic_stringIcSt11char_traitsIcESaIcEEERKT_
FNDA:0,_ZN7testing13PrintToStringIN12my_container4ListIiEEEENSt7__cxx1112basic_stringIcSt11char_traitsIcESaIcEEERKT_
FNDA:0,_ZN7testing13PrintToStringINSt7__cxx1112basic_stringIcSt11char_traitsIcESaIcEEEEES6_RKT_
FNDA:0,_ZN7testing13PrintToStringIPKNSt7__cxx1112basic_stringIcSt11char_traitsIcESaIcEEEEES6_RKT_
FNDA:0,_ZN7testing13PrintToStringIPKcEENSt7__cxx1112basic_stringIcSt11char_traitsIcESaIcEEERKT_
FNDA:0,_ZN7testing13PrintToStringIPKiEENSt7__cxx1112basic_stringIcSt11char_traitsIcESaIcEEERKT_
FNDA:0,_ZN7testing13PrintToStringIPN12my_container4ListIiEEEENSt7__cxx1112basic_stringIcSt11char_traitsIcESaIcEEERKT_
FNDA:0,_ZN7testing13PrintToStringIPiEENSt7__cxx1112basic_stringIcSt11char_traitsIcESaIcEEERKT_
FNDA:0,_ZN7testing13PrintToStringISt16reverse_iteratorIN12my_container4ListINSt7__cxx1112basic_stringIcSt11char_traitsIcESaIcEEEE8iteratorEEEES9_RKT_
FNDA:0,_ZN7testing13PrintToStringISt16reverse_iteratorIN12my_container4ListIiE14const_iteratorEEEENSt7__cxx1112basic_stringIcSt11char_traitsIcESaIcEEERKT_
FNDA:0,_ZN7testing13PrintToStringISt6vectorIiSaIiEEEENSt7__cxx1112basic_stringIcSt11char_traitsIcESaIcEEERKT_
FNDA:0,_ZN7testing13PrintToStringIdEENSt7__cxx1112basic_stringIcSt11char_traitsIcESaIcEEERKT_
FNDA:0,_ZN7testing13PrintToStringIiEENSt7__cxx1112basic_stringIcSt11char_traitsIcESaIcEEERKT_
FNDA:0,_ZN7testing13PrintToStringImEENSt7__cxx1112basic_stringIcSt11char_traitsIcESaIcEEERKT_
FNDA:0,_ZN7testing8internal16ContainerPrinter10PrintValueIN12my_container4ListIiEEvEEvRKT_PSo
FNDA:0,_ZN7testing8internal16ContainerPrinter10PrintValueISt6vectorIiSaIiEEvEEvRKT_PSo
FNDA:0,_ZN7testing8internal14PointerPrinter10PrintValueIKNSt7__cxx1112basic_stringIcSt11char_traitsIcESaIcEEEEEvPT_PSo
FNDA:0,_ZN7testing8internal14PointerPrinter10PrintValueIKiEEvPT_PSo
FNDA:0,_ZN7testing8internal14PointerPrinter10PrintValueIN12my_container4ListIiEEEEvPT_PSo
FNDA:0,_ZN7testing8internal14PointerPrinter10PrintValueIiEEvPT_PSo
FNDA:0,_ZN7testing8internal52internal_stream_operator_without_lexical_name_lookup13StreamPrinter10PrintValueIivEEDTcvvlsdefp0_fp_ERKT_PSo
FNDA:0,_ZN7testing8internal52internal_stream_operator_without_lexical_name_lookup13StreamPrinter10PrintValueImvEEDTcvvlsdefp0_fp_ERKT_PSo
FNDA:0,_ZN7testing8internal15RawBytesPrinter10PrintValueIN12my_container4ListIiE8iteratorELm8EEEvRKT_PSo
FNDA:0,_ZN7testing8internal15RawBytesPrinter10PrintValueISt16reverse_iteratorIN12my_container4ListINSt7__cxx1112basic_stringIcSt11char_traitsIcESaIcEEEE8iteratorEELm8EEEvRKT_PSo
FNDA:0,_ZN7testing8internal15RawBytesPrinter10PrintValueISt16reverse_iteratorIN12my_container4ListIiE14const_iteratorEELm8EEEvRKT_PSo
FNDA:0,_ZN7testing8internal17PrintWithFallbackIN12my_container4ListIiE8iteratorEEEvRKT_PSo
FNDA:0,_ZN7testing8internal17PrintWithFallbackIN12my_container4ListIiEEEEvRKT_PSo
FNDA:0,_ZN7testing8internal17PrintWithFallbackIPKNSt7__cxx1112basic_stringIcSt11char_traitsIcESaIcEEEEEvRKT_PSo
FNDA:0,_ZN7testing8internal17PrintWithFallbackIPKiEEvRKT_PSo
FNDA:0,_ZN7testing8internal17PrintWithFallbackIPN12my_container4ListIiEEEEvRKT_PSo
FNDA:0,_ZN7testing8internal17PrintWithFallbackIPiEEvRKT_PSo
FNDA:0,_ZN7testing8internal17PrintWithFallbackISt16reverse_iteratorIN12my_container4ListINSt7__cxx1112basic_stringIcSt11char_traitsIcESaIcEEEE8iteratorEEEEvRKT_PSo
FNDA:0,_ZN7testing8internal17PrintWithFallbackISt16reverse_iteratorIN12my_container4ListIiE14const_iteratorEEEEvRKT_PSo
FNDA:0,_ZN7testing8internal17PrintWithFallbackISt6vectorIiSaIiEEEEvRKT_PSo
FNDA:0,_ZN7testing8internal17PrintWithFallbackIiEEvRKT_PSo
FNDA:0,_ZN7testing8internal17PrintWithFallbackImEEvRKT_PSo
FNDA:0,_ZN7testing8internal19FormatForComparisonIN12my_container4ListIiE8iteratorES5_E6FormatB5cxx11ERKS5_
FNDA:0,_ZN7testing8internal19FormatForComparisonIN12my_container4ListIiEES4_E6FormatB5cxx11ERKS4_
FNDA:0,_ZN7testing8internal19FormatForComparisonINSt7__cxx1112basic_stringIcSt11char_traitsIcESaIcEEEA5_cE6FormatERKS7_
FNDA:0,_ZN7testing8internal19FormatForComparisonINSt7__cxx1112basic_stringIcSt11char_traitsIcESaIcEEEA6_cE6FormatERKS7_
FNDA:0,_ZN7testing8internal19FormatForComparisonIPKNSt7__cxx1112basic_stringIcSt11char_traitsIcESaIcEEES9_E6FormatERKS9_
FNDA:0,_ZN7testing8internal19FormatForComparisonIPKiPiE6FormatB5cxx11ERKS3_
FNDA:0,_ZN7testing8internal19FormatForComparisonIPKiS3_E6FormatB5cxx11ERKS3_
FNDA:0,_ZN7testing8internal19FormatForComparisonIPN12my_container4ListIiEES5_E6FormatB5cxx11ERKS5_
FNDA:0,_ZN7testing8internal19FormatForComparisonIPiPKiE6FormatB5cxx11ERKS2_
FNDA:0,_ZN7testing8internal19FormatForComparisonISt16reverse_iteratorIN12my_container4ListINSt7__cxx1112basic_stringIcSt11char_traitsIcESaIcEEEE8iteratorEESD_E6FormatERKSD_
FNDA:0,_ZN7testing8internal19FormatForComparisonISt16reverse_iteratorIN12my_container4ListIiE14const_iteratorEES7_E6FormatB5cxx11ERKS7_
FNDA:0,_ZN7testing8internal19FormatForComparisonISt6vectorIiSaIiEES4_E6FormatB5cxx11ERKS4_
FNDA:0,_ZN7testing8internal19FormatForComparisonIddE6FormatB5cxx11ERKd
FNDA:0,_ZN7testing8internal19FormatForComparisonIiiE6FormatB5cxx11ERKi
FNDA:0,_ZN7testing8internal19FormatForComparisonIimE6FormatB5cxx11ERKi
FNDA:0,_ZN7testing8internal19FormatForComparisonImiE6FormatB5cxx11ERKm
FNDA:0,_ZN7testing8internal19FormatForComparisonImmE6FormatB5cxx11ERKm
FNDA:0,_ZN7testing8internal19FormatForComparisonIA5_cNSt7__cxx1112basic_stringIcSt11char_traitsIcESaIcEEEE6FormatEPKc
FNDA:0,_ZN7testing8internal19FormatForComparisonIA6_cNSt7__cxx1112basic_stringIcSt11char_traitsIcESaIcEEEE6FormatEPKc
FNDA:0,_ZN7testing8internal19FormatForComparisonIPKcNSt7__cxx1112basic_stringIcSt11char_traitsIcESaIcEEEE6FormatES3_
FNDA:0,_ZN7testing8internal33FormatForComparisonFailureMessageIA5_cNSt7__cxx1112basic_stringIcSt11char_traitsIcESaIcEEEEES8_RKT_RKT0_
FNDA:0,_ZN7testing8internal33FormatForComparisonFailureMessageIA6_cNSt7__cxx1112basic_stringIcSt11char_traitsIcESaIcEEEEES8_RKT_RKT0_
FNDA:0,_ZN7testing8internal33FormatForComparisonFailureMessageIN12my_container4ListIiE8iteratorES5_EENSt7__cxx1112basic_stringIcSt11char_traitsIcESaIcEEERKT_RKT0_
FNDA:0,_ZN7testing8internal33FormatForComparisonFailureMessageIN12my_container4ListIiEES4_EENSt7__cxx1112basic_stringIcSt11char_traitsIcESaIcEEERKT_RKT0_
FNDA:0,_ZN7testing8internal33FormatForComparisonFailureMessageINSt7__cxx1112basic_stringIcSt11char_traitsIcESaIcEEEA5_cEES7_RKT_RKT0_
FNDA:0,_ZN7testing8internal33FormatForComparisonFailureMessageINSt7__cxx1112basic_stringIcSt11char_traitsIcESaIcEEEA6_cEES7_RKT_RKT0_
FNDA:0,_ZN7testing8internal33FormatForComparisonFailureMessageIPKNSt7__cxx1112basic_stringIcSt11char_traitsIcESaIcEEES9_EES7_RKT_RKT0_
FNDA:0,_ZN7testing8internal33FormatForComparisonFailureMessageIPKiPiEENSt7__cxx1112basic_stringIcSt11char_traitsIcESaIcEEERKT_RKT0_
FNDA:0,_ZN7testing8internal33FormatForComparisonFailureMessageIPKiS3_EENSt7__cxx1112basic_stringIcSt11char_traitsIcESaIcEEERKT_RKT0_
FNDA:0,_ZN7testing8internal33FormatForComparisonFailureMessageIPN12my_container4ListIiEES5_EENSt7__cxx1112basic_stringIcSt11char_traitsIcESaIcEEERKT_RKT0_
FNDA:0,_ZN7testing8internal33FormatForComparisonFailureMessageIPiPKiEENSt7__cxx1112basic_stringIcSt11char_traitsIcESaIcEEERKT_RKT0_
FNDA:0,_ZN7testing8internal33FormatForComparisonFailureMessageISt16reverse_iteratorIN12my_container4ListINSt7__cxx1112basic_stringIcSt11char_traitsIcESaIcEEEE8iteratorEESD_EESA_RKT_RKT0_
FNDA:0,_ZN7testing8internal33FormatForComparisonFailureMessageISt16reverse_iteratorIN12my_container4ListIiE14const_iteratorEES7_EENSt7__cxx1112basic_stringIcSt11char_traitsIcESaIcEEERKT_RKT0_
FNDA:0,_ZN7testing8internal33FormatForComparisonFailureMessageISt6vectorIiSaIiEES4_EENSt7__cxx1112basic_stringIcSt11char_traitsIcESaIcEEERKT_RKT0_
FNDA:0,_ZN7testing8internal33FormatForComparisonFailureMessageIddEENSt7__cxx1112basic_stringIcSt11char_traitsIcESaIcEEERKT_RKT0_
FNDA:0,_ZN7testing8internal33FormatForComparisonFailureMessageIiiEENSt7__cxx1112basic_stringIcSt11char_traitsIcESaIcEEERKT_RKT0_
FNDA:0,_ZN7testing8internal33FormatForComparisonFailureMessageIimEENSt7__cxx1112basic_stringIcSt11char_traitsIcESaIcEEERKT_RKT0_
FNDA:0,_ZN7testing8internal33FormatForComparisonFailureMessageImiEENSt7__cxx1112basic_stringIcSt11char_traitsIcESaIcEEERKT_RKT0_
FNDA:0,_ZN7testing8internal33FormatForComparisonFailureMessageImmEENSt7__cxx1112basic_stringIcSt11char_traitsIcESaIcEEERKT_RKT0_
FNDA:0,_ZN7testing8internal7PrintToIN12my_container4ListIiE8iteratorEEEvRKT_PSo
FNDA:0,_ZN7testing8internal7PrintToIN12my_container4ListIiEEEEvRKT_PSo
FNDA:0,_ZN7testing8internal7PrintToIPKNSt7__cxx1112basic_stringIcSt11char_traitsIcESaIcEEEEEvRKT_PSo
FNDA:0,_ZN7testing8internal7PrintToIPKiEEvRKT_PSo
FNDA:0,_ZN7testing8internal7PrintToIPN12my_container4ListIiEEEEvRKT_PSo
FNDA:0,_ZN7testing8internal7PrintToIPiEEvRKT_PSo
FNDA:0,_ZN7testing8internal7PrintToISt16reverse_iteratorIN12my_container4ListINSt7__cxx1112basic_stringIcSt11char_traitsIcESaIcEEEE8iteratorEEEEvRKT_PSo
FNDA:0,_ZN7testing8internal7PrintToISt16reverse_iteratorIN12my_container4ListIiE14const_iteratorEEEEvRKT_PSo
FNDA:0,_ZN7testing8internal7PrintToISt6vectorIiSaIiEEEEvRKT_PSo
FNDA:0,_ZN7testing8internal7PrintToIiEEvRKT_PSo
FNDA:0,_ZN7testing8internal7PrintToImEEvRKT_PSo
FNDA:0,_ZN7testing8internal21AppropriateResolutionIdEEiT_
FNDA:0,_ZN7testing8internal7PrintToEdPSo
FNDA:0,_ZN7testing8internal7PrintToERKNSt7__cxx1112basic_stringIcSt11char_traitsIcESaIcEEEPSo
FNDA:0,_ZN7testing8internal16UniversalPrinterIN12my_container4ListIiE8iteratorEE5PrintERKS5_PSo
FNDA:0,_ZN7testing8internal16UniversalPrinterIN12my_container4ListIiEEE5PrintERKS4_PSo
FNDA:0,_ZN7testing8internal16UniversalPrinterINSt7__cxx1112basic_stringIcSt11char_traitsIcESaIcEEEE5PrintERKS7_PSo
FNDA:0,_ZN7testing8internal16UniversalPrinterIPKNSt7__cxx1112basic_stringIcSt11char_traitsIcESaIcEEEE5PrintERKS9_PSo
FNDA:0,_ZN7testing8internal16UniversalPrinterIPKiE5PrintERKS3_PSo
FNDA:0,_ZN7testing8internal16UniversalPrinterIPN12my_container4ListIiEEE5PrintERKS5_PSo
FNDA:0,_ZN7testing8internal16UniversalPrinterIPiE5PrintERKS2_PSo
FNDA:0,_ZN7testing8internal16UniversalPrinterISt16reverse_iteratorIN12my_container4ListINSt7__cxx1112basic_stringIcSt11char_traitsIcESaIcEEEE8iteratorEEE5PrintERKSD_PSo
FNDA:0,_ZN7testing8internal16UniversalPrinterISt16reverse_iteratorIN12my_container4ListIiE14const_iteratorEEE5PrintERKS7_PSo
FNDA:0,_ZN7testing8internal16UniversalPrinterISt6vectorIiSaIiEEE5PrintERKS4_PSo
FNDA:0,_ZN7testing8internal16UniversalPrinterIdE5PrintERKdPSo
FNDA:0,_ZN7testing8internal16UniversalPrinterIiE5PrintERKiPSo
FNDA:0,_ZN7testing8internal16UniversalPrinterImE5PrintERKmPSo
FNDA:0,_ZN7testing8internal21UniversalTersePrinterIN12my_container4ListIiE8iteratorEE5PrintERKS5_PSo
FNDA:0,_ZN7testing8internal21UniversalTersePrinterIN12my_container4ListIiEEE5PrintERKS4_PSo
FNDA:0,_ZN7testing8internal21UniversalTersePrinterINSt7__cxx1112basic_stringIcSt11char_traitsIcESaIcEEEE5PrintERKS7_PSo
FNDA:0,_ZN7testing8internal21UniversalTersePrinterIPKNSt7__cxx1112basic_stringIcSt11char_traitsIcESaIcEEEE5PrintERKS9_PSo
FNDA:0,_ZN7testing8internal21UniversalTersePrinterIPKiE5PrintERKS3_PSo
FNDA:0,_ZN7testing8internal21UniversalTersePrinterIPN12my_container4ListIiEEE5PrintERKS5_PSo
FNDA:0,_ZN7testing8internal21UniversalTersePrinterIPiE5PrintERKS2_PSo
FNDA:0,_ZN7testing8internal21UniversalTersePrinterISt16reverse_iteratorIN12my_container4ListINSt7__cxx1112basic_stringIcSt11char_traitsIcESaIcEEEE8iteratorEEE5PrintERKSD_PSo
FNDA:0,_ZN7testing8internal21UniversalTersePrinterISt16reverse_iteratorIN12my_container4ListIiE14const_iteratorEEE5PrintERKS7_PSo
FNDA:0,_ZN7testing8internal21UniversalTersePrinterISt6vectorIiSaIiEEE5PrintERKS4_PSo
FNDA:0,_ZN7testing8internal21UniversalTersePrinterIdE5PrintERKdPSo
FNDA:0,_ZN7testing8internal21UniversalTersePrinterIiE5PrintERKiPSo
FNDA:0,_ZN7testing8internal21UniversalTersePrinterImE5PrintERKmPSo
FNF:129
FNH:0
DA:141,0
DA:142,0
DA:143,0
DA:144,0
DA:145,0
DA:146,0
DA:147,0
DA:148,0
DA:149,0
DA:150,0
DA:153,0
DA:156,0
DA:157,0
DA:160,0
DA:161,0
DA:163,0
DA:164,0
DA:190,0
DA:191,0
DA:192,0
DA:197,0
DA:199,0
DA:221,0
DA:225,0
DA:226,0
DA:289,0
DA:290,0
DA:293,0
DA:295,0
DA:326,0
DA:336,0
DA:337,0
DA:357,0
DA:358,0
DA:366,0
DA:367,0
DA:411,0
DA:437,0
DA:439,0
DA:464,0
DA:465,0
DA:466,0
DA:529,0
DA:530,0
DA:531,0
DA:533,0
DA:534,0
DA:535,0
DA:536,0
DA:537,0
DA:538,0
DA:539,0
DA:540,0
DA:541,0
DA:542,0
DA:543,0
DA:544,0
DA:545,0
DA:546,0
DA:547,0
DA:548,0
DA:549,0
DA:550,0
DA:551,0
DA:552,0
DA:553,0
DA:554,0
DA:556,0
DA:559,0
DA:560,0
DA:561,0
DA:562,0
DA:563,0
DA:564,0
DA:565,0
DA:566,0
DA:567,0
DA:568,0
DA:569,0
DA:571,0
DA:574,0
DA:576,0
DA:586,0
DA:587,0
DA:588,0
DA:589,0
DA:590,0
DA:591,0
DA:660,0
DA:661,0
DA:662,0
DA:799,0
DA:808,0
DA:809,0
DA:989,0
DA:990,0
DA:991,0
DA:1017,0
DA:1018,0
DA:1019,0
DA:1021,0
DA:1023,0
DA:1108,0
DA:1112,0
DA:1113,0
DA:1148,0
DA:1149,0
DA:1150,0
DA:1151,0
DA:1152,0
LF:110
LH:0
end_of_record
TN:
SF:/mnt/c/Users/senya/CLionProjects/fund_alg_4sem/lab1_2/cmake-build-debug/_deps/googletest-src/googletest/include/gtest/gtest.h
FN:1359,1365,_ZN7testing8internal18CmpHelperEQFailureIN12my_container4ListIiE8iteratorES5_EENS_15AssertionResultEPKcS8_RKT_RKT0_
FN:1359,1365,_ZN7testing8internal18CmpHelperEQFailureIN12my_container4ListIiEES4_EENS_15AssertionResultEPKcS7_RKT_RKT0_
FN:1359,1365,_ZN7testing8internal18CmpHelperEQFailureINSt7__cxx1112basic_stringIcSt11char_traitsIcESaIcEEEA5_cEENS_15AssertionResultEPKcSB_RKT_RKT0_
FN:1359,1365,_ZN7testing8internal18CmpHelperEQFailureINSt7__cxx1112basic_stringIcSt11char_traitsIcESaIcEEEA6_cEENS_15AssertionResultEPKcSB_RKT_RKT0_
FN:1359,1365,_ZN7testing8internal18CmpHelperEQFailureIPKNSt7__cxx1112basic_stringIcSt11char_traitsIcESaIcEEES9_EENS_15AssertionResultEPKcSC_RKT_RKT0_
FN:1359,1365,_ZN7testing8internal18CmpHelperEQFailureIPiPKiEENS_15AssertionResultEPKcS7_RKT_RKT0_
FN:1359,1365,_ZN7testing8internal18CmpHelperEQFailureISt16reverse_iteratorIN12my_container4ListINSt7__cxx1112basic_stringIcSt11char_traitsIcESaIcEEEE8iteratorEESD_EENS_15AssertionResultEPKcSG_RKT_RKT0_
FN:1359,1365,_ZN7testing8internal18CmpHelperEQFailureISt16reverse_iteratorIN12my_container4ListIiE14const_iteratorEES7_EENS_15AssertionResultEPKcSA_RKT_RKT0_
FN:1359,1365,_ZN7testing8internal18CmpHelperEQFailureISt6vectorIiSaIiEES4_EENS_15AssertionResultEPKcS7_RKT_RKT0_
FN:1359,1365,_ZN7testing8internal18CmpHelperEQFailureIddEENS_15AssertionResultEPKcS4_RKT_RKT0_
FN:1359,1365,_ZN7testing8internal18CmpHelperEQFailureIiiEENS_15AssertionResultEPKcS4_RKT_RKT0_
FN:1359,1365,_ZN7testing8internal18CmpHelperEQFailureImiEENS_15AssertionResultEPKcS4_RKT_RKT0_
FN:1359,1365,_ZN7testing8internal18CmpHelperEQFailureImmEENS_15AssertionResultEPKcS4_RKT_RKT0_
FN:1376,1384,_ZN7testing8internal11CmpHelperEQIN12my_container4ListIiE8iteratorES5_EENS_15AssertionResultEPKcS8_RKT_RKT0_
FN:1376,1384,_ZN7testing8internal11CmpHelperEQIN12my_container4ListIiEES4_EENS_15AssertionResultEPKcS7_RKT_RKT0_
FN:1376,1384,_ZN7testing8internal11CmpHelperEQINSt7__cxx1112basic_stringIcSt11char_traitsIcESaIcEEEA5_cEENS_15AssertionResultEPKcSB_RKT_RKT0_
FN:1376,1384,_ZN7testing8internal11CmpHelperEQINSt7__cxx1112basic_stringIcSt11char_traitsIcESaIcEEEA6_cEENS_15AssertionResultEPKcSB_RKT_RKT0_
FN:1376,1384,_ZN7testing8internal11CmpHelperEQIPKNSt7__cxx1112basic_stringIcSt11char_traitsIcESaIcEEES9_EENS_15AssertionResultEPKcSC_RKT_RKT0_
FN:1376,1384,_ZN7testing8internal11CmpHelperEQIPiPKiEENS_15AssertionResultEPKcS7_RKT_RKT0_
FN:1376,1384,_ZN7testing8internal11CmpHelperEQISt16reverse_iteratorIN12my_container4ListINSt7__cxx1112basic_stringIcSt11char_traitsIcESaIcEEEE8iteratorEESD_EENS_15AssertionResultEPKcSG_RKT_RKT0_
FN:1376,1384,_ZN7testing8internal11CmpHelperEQISt16reverse_iteratorIN12my_container4ListIiE14const_iteratorEES7_EENS_15AssertionResultEPKcSA_RKT_RKT0_
FN:1376,1384,_ZN7testing8internal11CmpHelperEQISt6vectorIiSaIiEES4_EENS_15AssertionResultEPKcS7_RKT_RKT0_
FN:1376,1384,_ZN7testing8internal11CmpHelperEQIddEENS_15AssertionResultEPKcS4_RKT_RKT0_
FN:1376,1384,_ZN7testing8internal11CmpHelperEQIiiEENS_15AssertionResultEPKcS4_RKT_RKT0_
FN:1376,1384,_ZN7testing8internal11CmpHelperEQImiEENS_15AssertionResultEPKcS4_RKT_RKT0_
FN:1376,1384,_ZN7testing8internal11CmpHelperEQImmEENS_15AssertionResultEPKcS4_RKT_RKT0_
FN:1395,1399,_ZN7testing8internal8EqHelper7CompareIN12my_container4ListIiE8iteratorES6_LPv0EEENS_15AssertionResultEPKcSA_RKT_RKT0_
FN:1395,1399,_ZN7testing8internal8EqHelper7CompareIN12my_container4ListIiEES5_LPv0EEENS_15AssertionResultEPKcS9_RKT_RKT0_
FN:1395,1399,_ZN7testing8internal8EqHelper7CompareINSt7__cxx1112basic_stringIcSt11char_traitsIcESaIcEEEA5_cLPv0EEENS_15AssertionResultEPKcSD_RKT_RKT0_
FN:1395,1399,_ZN7testing8internal8EqHelper7CompareINSt7__cxx1112basic_stringIcSt11char_traitsIcESaIcEEEA6_cLPv0EEENS_15AssertionResultEPKcSD_RKT_RKT0_
FN:1395,1399,_ZN7testing8internal8EqHelper7CompareIPKNSt7__cxx1112basic_stringIcSt11char_traitsIcESaIcEEESA_LPv0EEENS_15AssertionResultEPKcSE_RKT_RKT0_
FN:1395,1399,_ZN7testing8internal8EqHelper7CompareIPiPKiLPv0EEENS_15AssertionResultEPKcS9_RKT_RKT0_
FN:1395,1399,_ZN7testing8internal8EqHelper7CompareISt16reverse_iteratorIN12my_container4ListINSt7__cxx1112basic_stringIcSt11char_traitsIcESaIcEEEE8iteratorEESE_LPv0EEENS_15AssertionResultEPKcSI_RKT_RKT0_
FN:1395,1399,_ZN7testing8internal8EqHelper7CompareISt16reverse_iteratorIN12my_container4ListIiE14const_iteratorEES8_LPv0EEENS_15AssertionResultEPKcSC_RKT_RKT0_
FN:1395,1399,_ZN7testing8internal8EqHelper7CompareISt6vectorIiSaIiEES5_LPv0EEENS_15AssertionResultEPKcS9_RKT_RKT0_
FN:1395,1399,_ZN7testing8internal8EqHelper7CompareIddLPv0EEENS_15AssertionResultEPKcS6_RKT_RKT0_
FN:1395,1399,_ZN7testing8internal8EqHelper7CompareIiiLPv0EEENS_15AssertionResultEPKcS6_RKT_RKT0_
FN:1395,1399,_ZN7testing8internal8EqHelper7CompareImiLPv0EEENS_15AssertionResultEPKcS6_RKT_RKT0_
FN:1395,1399,_ZN7testing8internal8EqHelper7CompareImmLPv0EEENS_15AssertionResultEPKcS6_RKT_RKT0_
FN:1428,1435,_ZN7testing8internal18CmpHelperOpFailureIN12my_container4ListIiEES4_EENS_15AssertionResultEPKcS7_RKT_RKT0_S7_
FN:1428,1435,_ZN7testing8internal18CmpHelperOpFailureIPKiS3_EENS_15AssertionResultEPKcS6_RKT_RKT0_S6_
FN:1428,1435,_ZN7testing8internal18CmpHelperOpFailureIPN12my_container4ListIiEES5_EENS_15AssertionResultEPKcS8_RKT_RKT0_S8_
FN:1428,1435,_ZN7testing8internal18CmpHelperOpFailureISt16reverse_iteratorIN12my_container4ListINSt7__cxx1112basic_stringIcSt11char_traitsIcESaIcEEEE8iteratorEESD_EENS_15AssertionResultEPKcSG_RKT_RKT0_SG_
FN:1428,1435,_ZN7testing8internal18CmpHelperOpFailureImiEENS_15AssertionResultEPKcS4_RKT_RKT0_S4_
FN:1457,1457,_ZN7testing8internal11CmpHelperNEIN12my_container4ListIiEES4_EENS_15AssertionResultEPKcS7_RKT_RKT0_
FN:1457,1457,_ZN7testing8internal11CmpHelperNEIPKiS3_EENS_15AssertionResultEPKcS6_RKT_RKT0_
FN:1457,1457,_ZN7testing8internal11CmpHelperNEIPN12my_container4ListIiEES5_EENS_15AssertionResultEPKcS8_RKT_RKT0_
FN:1457,1457,_ZN7testing8internal11CmpHelperNEISt16reverse_iteratorIN12my_container4ListINSt7__cxx1112basic_stringIcSt11char_traitsIcESaIcEEEE8iteratorEESD_EENS_15AssertionResultEPKcSG_RKT_RKT0_
FN:1461,1461,_ZN7testing8internal11CmpHelperLTIN12my_container4ListIiEES4_EENS_15AssertionResultEPKcS7_RKT_RKT0_
FN:1465,1465,_ZN7testing8internal11CmpHelperGTImiEENS_15AssertionResultEPKcS4_RKT_RKT0_
FN:256,256,_ZN7testing4Test14SetUpTestSuiteEv
FN:264,264,_ZN7testing4Test17TearDownTestSuiteEv
FN:269,269,_ZN7testing4Test16TearDownTestCaseEv
FN:270,270,_ZN7testing4Test13SetUpTestCaseEv
FN:357,357,_ZN7testing4Test5SetupEv
FNDA:0,_ZN7testing8internal18CmpHelperEQFailureIN12my_container4ListIiE8iteratorES5_EENS_15AssertionResultEPKcS8_RKT_RKT0_
FNDA:0,_ZN7testing8internal18CmpHelperEQFailureIN12my_container4ListIiEES4_EENS_15AssertionResultEPKcS7_RKT_RKT0_
FNDA:0,_ZN7testing8internal18CmpHelperEQFailureINSt7__cxx1112basic_stringIcSt11char_traitsIcESaIcEEEA5_cEENS_15AssertionResultEPKcSB_RKT_RKT0_
FNDA:0,_ZN7testing8internal18CmpHelperEQFailureINSt7__cxx1112basic_stringIcSt11char_traitsIcESaIcEEEA6_cEENS_15AssertionResultEPKcSB_RKT_RKT0_
FNDA:0,_ZN7testing8internal18CmpHelperEQFailureIPKNSt7__cxx1112basic_stringIcSt11char_traitsIcESaIcEEES9_EENS_15AssertionResultEPKcSC_RKT_RKT0_
FNDA:0,_ZN7testing8internal18CmpHelperEQFailureIPiPKiEENS_15AssertionResultEPKcS7_RKT_RKT0_
FNDA:0,_ZN7testing8internal18CmpHelperEQFailureISt16reverse_iteratorIN12my_container4ListINSt7__cxx1112basic_stringIcSt11char_traitsIcESaIcEEEE8iteratorEESD_EENS_15AssertionResultEPKcSG_RKT_RKT0_
FNDA:0,_ZN7testing8internal18CmpHelperEQFailureISt16reverse_iteratorIN12my_container4ListIiE14const_iteratorEES7_EENS_15AssertionResultEPKcSA_RKT_RKT0_
FNDA:0,_ZN7testing8internal18CmpHelperEQFailureISt6vectorIiSaIiEES4_EENS_15AssertionResultEPKcS7_RKT_RKT0_
FNDA:0,_ZN7testing8internal18CmpHelperEQFailureIddEENS_15AssertionResultEPKcS4_RKT_RKT0_
FNDA:0,_ZN7testing8internal18CmpHelperEQFailureIiiEENS_15AssertionResultEPKcS4_RKT_RKT0_
FNDA:0,_ZN7testing8internal18CmpHelperEQFailureImiEENS_15AssertionResultEPKcS4_RKT_RKT0_
FNDA:0,_ZN7testing8internal18CmpHelperEQFailureImmEENS_15AssertionResultEPKcS4_RKT_RKT0_
FNDA:2,_ZN7testing8internal11CmpHelperEQIN12my_container4ListIiE8iteratorES5_EENS_15AssertionResultEPKcS8_RKT_RKT0_
FNDA:6,_ZN7testing8internal11CmpHelperEQIN12my_container4ListIiEES4_EENS_15AssertionResultEPKcS7_RKT_RKT0_
FNDA:1,_ZN7testing8internal11CmpHelperEQINSt7__cxx1112basic_stringIcSt11char_traitsIcESaIcEEEA5_cEENS_15AssertionResultEPKcSB_RKT_RKT0_
FNDA:5,_ZN7testing8internal11CmpHelperEQINSt7__cxx1112basic_stringIcSt11char_traitsIcESaIcEEEA6_cEENS_15AssertionResultEPKcSB_RKT_RKT0_
FNDA:1,_ZN7testing8internal11CmpHelperEQIPKNSt7__cxx1112basic_stringIcSt11char_traitsIcESaIcEEES9_EENS_15AssertionResultEPKcSC_RKT_RKT0_
FNDA:1,_ZN7testing8internal11CmpHelperEQIPiPKiEENS_15AssertionResultEPKcS7_RKT_RKT0_
FNDA:1,_ZN7testing8internal11CmpHelperEQISt16reverse_iteratorIN12my_container4ListINSt7__cxx1112basic_stringIcSt11char_traitsIcESaIcEEEE8iteratorEESD_EENS_15AssertionResultEPKcSG_RKT_RKT0_
FNDA:2,_ZN7testing8internal11CmpHelperEQISt16reverse_iteratorIN12my_container4ListIiE14const_iteratorEES7_EENS_15AssertionResultEPKcSA_RKT_RKT0_
FNDA:2,_ZN7testing8internal11CmpHelperEQISt6vectorIiSaIiEES4_EENS_15AssertionResultEPKcS7_RKT_RKT0_
FNDA:6,_ZN7testing8internal11CmpHelperEQIddEENS_15AssertionResultEPKcS4_RKT_RKT0_
FNDA:18,_ZN7testing8internal11CmpHelperEQIiiEENS_15AssertionResultEPKcS4_RKT_RKT0_
FNDA:13,_ZN7testing8internal11CmpHelperEQImiEENS_15AssertionResultEPKcS4_RKT_RKT0_
FNDA:5,_ZN7testing8internal11CmpHelperEQImmEENS_15AssertionResultEPKcS4_RKT_RKT0_
FNDA:2,_ZN7testing8internal8EqHelper7CompareIN12my_container4ListIiE8iteratorES6_LPv0EEENS_15AssertionResultEPKcSA_RKT_RKT0_
FNDA:6,_ZN7testing8internal8EqHelper7CompareIN12my_container4ListIiEES5_LPv0EEENS_15AssertionResultEPKcS9_RKT_RKT0_
FNDA:1,_ZN7testing8internal8EqHelper7CompareINSt7__cxx1112basic_stringIcSt11char_traitsIcESaIcEEEA5_cLPv0EEENS_15AssertionResultEPKcSD_RKT_RKT0_
FNDA:5,_ZN7testing8internal8EqHelper7CompareINSt7__cxx1112basic_stringIcSt11char_traitsIcESaIcEEEA6_cLPv0EEENS_15AssertionResultEPKcSD_RKT_RKT0_
FNDA:1,_ZN7testing8internal8EqHelper7CompareIPKNSt7__cxx1112basic_stringIcSt11char_traitsIcESaIcEEESA_LPv0EEENS_15AssertionResultEPKcSE_RKT_RKT0_
FNDA:1,_ZN7testing8internal8EqHelper7CompareIPiPKiLPv0EEENS_15AssertionResultEPKcS9_RKT_RKT0_
FNDA:1,_ZN7testing8internal8EqHelper7CompareISt16reverse_iteratorIN12my_container4ListINSt7__cxx1112basic_stringIcSt11char_traitsIcESaIcEEEE8iteratorEESE_LPv0EEENS_15AssertionResultEPKcSI_RKT_RKT0_
FNDA:2,_ZN7testing8internal8EqHelper7CompareISt16reverse_iteratorIN12my_container4ListIiE14const_iteratorEES8_LPv0EEENS_15AssertionResultEPKcSC_RKT_RKT0_
FNDA:2,_ZN7testing8internal8EqHelper7CompareISt6vectorIiSaIiEES5_LPv0EEENS_15AssertionResultEPKcS9_RKT_RKT0_
FNDA:6,_ZN7testing8internal8EqHelper7CompareIddLPv0EEENS_15AssertionResultEPKcS6_RKT_RKT0_
FNDA:18,_ZN7testing8internal8EqHelper7CompareIiiLPv0EEENS_15AssertionResultEPKcS6_RKT_RKT0_
FNDA:13,_ZN7testing8internal8EqHelper7CompareImiLPv0EEENS_15AssertionResultEPKcS6_RKT_RKT0_
FNDA:5,_ZN7testing8internal8EqHelper7CompareImmLPv0EEENS_15AssertionResultEPKcS6_RKT_RKT0_
FNDA:0,_ZN7testing8internal18CmpHelperOpFailureIN12my_container4ListIiEES4_EENS_15AssertionResultEPKcS7_RKT_RKT0_S7_
FNDA:0,_ZN7testing8internal18CmpHelperOpFailureIPKiS3_EENS_15AssertionResultEPKcS6_RKT_RKT0_S6_
FNDA:0,_ZN7testing8internal18CmpHelperOpFailureIPN12my_container4ListIiEES5_EENS_15AssertionResultEPKcS8_RKT_RKT0_S8_
FNDA:0,_ZN7testing8internal18CmpHelperOpFailureISt16reverse_iteratorIN12my_container4ListINSt7__cxx1112basic_stringIcSt11char_traitsIcESaIcEEEE8iteratorEESD_EENS_15AssertionResultEPKcSG_RKT_RKT0_SG_
FNDA:0,_ZN7testing8internal18CmpHelperOpFailureImiEENS_15AssertionResultEPKcS4_RKT_RKT0_S4_
FNDA:1,_ZN7testing8internal11CmpHelperNEIN12my_container4ListIiEES4_EENS_15AssertionResultEPKcS7_RKT_RKT0_
FNDA:1,_ZN7testing8internal11CmpHelperNEIPKiS3_EENS_15AssertionResultEPKcS6_RKT_RKT0_
FNDA:1,_ZN7testing8internal11CmpHelperNEIPN12my_container4ListIiEES5_EENS_15AssertionResultEPKcS8_RKT_RKT0_
FNDA:1,_ZN7testing8internal11CmpHelperNEISt16reverse_iteratorIN12my_container4ListINSt7__cxx1112basic_stringIcSt11char_traitsIcESaIcEEEE8iteratorEESD_EENS_15AssertionResultEPKcSG_RKT_RKT0_
FNDA:1,_ZN7testing8internal11CmpHelperLTIN12my_container4ListIiEES4_EENS_15AssertionResultEPKcS7_RKT_RKT0_
FNDA:1,_ZN7testing8internal11CmpHelperGTImiEENS_15AssertionResultEPKcS4_RKT_RKT0_
FNDA:0,_ZN7testing4Test14SetUpTestSuiteEv
FNDA:0,_ZN7testing4Test17TearDownTestSuiteEv
FNDA:0,_ZN7testing4Test16TearDownTestCaseEv
FNDA:0,_ZN7testing4Test13SetUpTestCaseEv
FNDA:0,_ZN7testing4Test5SetupEv
FNF:55
FNH:32
DA:256,0
DA:264,0
DA:269,0
DA:270,0
DA:357,0
DA:1359,0
DA:1364,0
DA:1376,63
DA:1379,63
DA:1380,63
DA:1383,0
DA:1395,63
DA:1398,63
DA:1428,0
DA:1432,0
DA:1433,0
DA:1434,0
DA:1457,4
DA:1461,1
DA:1465,1
LF:20
LH:8
end_of_record
TN:
SF:/mnt/c/Users/senya/CLionProjects/fund_alg_4sem/lab1_2/cmake-build-debug/_deps/googletest-src/googletest/include/gtest/internal/gtest-internal.h
FN:419,425,_ZN7testing8internal9GetTypeIdIN12my_container12_GLOBAL__N_18ListTestEEEPKvv
FN:438,438,_ZN7testing8internal15TestFactoryBaseD0Ev
FN:438,438,_ZN7testing8internal15TestFactoryBaseD2Ev
FN:445,445,_ZN7testing8internal15TestFactoryBaseC2Ev
FN:457,457,_ZN7testing8internal15TestFactoryImplI38ListAssignmentTest_SelfAssignment_TestE10CreateTestEv
FN:457,457,_ZN7testing8internal15TestFactoryImplI39ListReverseIteratorsTest_EmptyList_TestE10CreateTestEv
FN:457,457,_ZN7testing8internal15TestFactoryImplI42ListAssignmentTest_AssignBetweenLists_TestE10CreateTestEv
FN:457,457,_ZN7testing8internal15TestFactoryImplI43ListAssignmentTest_EmptyListAssignment_TestE10CreateTestEv
FN:457,457,_ZN7testing8internal15TestFactoryImplI43ListReverseIteratorsTest_SingleElement_TestE10CreateTestEv
FN:457,457,_ZN7testing8internal15TestFactoryImplI44ListAssignmentTest_DeepCopyVerification_TestE10CreateTestEv
FN:457,457,_ZN7testing8internal15TestFactoryImplI45ListReverseIteratorsTest_MixedOperations_TestE10CreateTestEv
FN:457,457,_ZN7testing8internal15TestFactoryImplI46ListReverseIteratorsTest_ReverseTraversal_TestE10CreateTestEv
FN:457,457,_ZN7testing8internal15TestFactoryImplI49ListAssignmentTest_AssignViaContainerPointer_TestE10CreateTestEv
FN:457,457,_ZN7testing8internal15TestFactoryImplI55ListAssignmentTest_AssignFromIncompatibleContainer_TestE10CreateTestEv
FN:457,457,_ZN7testing8internal15TestFactoryImplIN12my_container12_GLOBAL__N_118ListTest_Swap_TestEE10CreateTestEv
FN:457,457,_ZN7testing8internal15TestFactoryImplIN12my_container12_GLOBAL__N_120ListTest_Insert_TestEE10CreateTestEv
FN:457,457,_ZN7testing8internal15TestFactoryImplIN12my_container12_GLOBAL__N_120ListTest_Resize_TestEE10CreateTestEv
FN:457,457,_ZN7testing8internal15TestFactoryImplIN12my_container12_GLOBAL__N_121ListTest_MaxSize_TestEE10CreateTestEv
FN:457,457,_ZN7testing8internal15TestFactoryImplIN12my_container12_GLOBAL__N_123ListTest_FrontBack_TestEE10CreateTestEv
FN:457,457,_ZN7testing8internal15TestFactoryImplIN12my_container12_GLOBAL__N_123ListTest_Iterators_TestEE10CreateTestEv
FN:457,457,_ZN7testing8internal15TestFactoryImplIN12my_container12_GLOBAL__N_125ListTest_Comparisons_TestEE10CreateTestEv
FN:457,457,_ZN7testing8internal15TestFactoryImplIN12my_container12_GLOBAL__N_125ListTest_InsertErase_TestEE10CreateTestEv
FN:457,457,_ZN7testing8internal15TestFactoryImplIN12my_container12_GLOBAL__N_128ListTest_ConstIterators_TestEE10CreateTestEv
FN:457,457,_ZN7testing8internal15TestFactoryImplIN12my_container12_GLOBAL__N_128ListTest_CopyAssignment_TestEE10CreateTestEv
FN:457,457,_ZN7testing8internal15TestFactoryImplIN12my_container12_GLOBAL__N_128ListTest_MoveAssignment_TestEE10CreateTestEv
FN:457,457,_ZN7testing8internal15TestFactoryImplIN12my_container12_GLOBAL__N_129ListTest_CopyConstructor_TestEE10CreateTestEv
FN:457,457,_ZN7testing8internal15TestFactoryImplIN12my_container12_GLOBAL__N_129ListTest_MoveConstructor_TestEE10CreateTestEv
FN:457,457,_ZN7testing8internal15TestFactoryImplIN12my_container12_GLOBAL__N_132ListTest_DefaultConstructor_TestEE10CreateTestEv
FN:457,457,_ZN7testing8internal15TestFactoryImplIN12my_container12_GLOBAL__N_133ListFrontBackTest_StringType_TestEE10CreateTestEv
FN:457,457,_ZN7testing8internal15TestFactoryImplIN12my_container12_GLOBAL__N_136ListFrontBackTest_SingleElement_TestEE10CreateTestEv
FN:457,457,_ZN7testing8internal15TestFactoryImplIN12my_container12_GLOBAL__N_137ListTest_FrontBackThrowWhenEmpty_TestEE10CreateTestEv
FN:457,457,_ZN7testing8internal15TestFactoryImplIN12my_container12_GLOBAL__N_139ListFrontBackTest_MultipleElements_TestEE10CreateTestEv
FN:457,457,_ZN7testing8internal15TestFactoryImplIN12my_container12_GLOBAL__N_140ListTest_InitializerListConstructor_TestEE10CreateTestEv
FN:457,457,_ZN7testing8internal15TestFactoryImplIN12my_container12_GLOBAL__N_141ListFrontBackTest_AfterModifications_TestEE10CreateTestEv
FN:478,479,_ZN7testing8internal12CodeLocationC2ERKNSt7__cxx1112basic_stringIcSt11char_traitsIcESaIcEEEi
FN:491,494,_ZN7testing8internal19GetNotDefaultOrNullEPFvvES2_
FN:506,525,_ZN7testing8internal16SuiteApiResolverIN12my_container12_GLOBAL__N_18ListTestEE19GetSetUpCaseOrSuiteEPKci
FN:506,525,_ZN7testing8internal16SuiteApiResolverINS_4TestEE19GetSetUpCaseOrSuiteEPKci
FN:527,546,_ZN7testing8internal16SuiteApiResolverIN12my_container12_GLOBAL__N_18ListTestEE22GetTearDownCaseOrSuiteEPKci
FN:527,546,_ZN7testing8internal16SuiteApiResolverINS_4TestEE22GetTearDownCaseOrSuiteEPKci
FN:843,843,_ZN7testing8internal14TrueWithStringC2Ev
FN:846,846,_ZNK7testing8internal14TrueWithStringcvbEv
FNDA:32,_ZN7testing8internal9GetTypeIdIN12my_container12_GLOBAL__N_18ListTestEEEPKvv
FNDA:0,_ZN7testing8internal15TestFactoryBaseD0Ev
FNDA:60,_ZN7testing8internal15TestFactoryBaseD2Ev
FNDA:60,_ZN7testing8internal15TestFactoryBaseC2Ev
FNDA:1,_ZN7testing8internal15TestFactoryImplI38ListAssignmentTest_SelfAssignment_TestE10CreateTestEv
FNDA:1,_ZN7testing8internal15TestFactoryImplI39ListReverseIteratorsTest_EmptyList_TestE10CreateTestEv
FNDA:1,_ZN7testing8internal15TestFactoryImplI42ListAssignmentTest_AssignBetweenLists_TestE10CreateTestEv
FNDA:1,_ZN7testing8internal15TestFactoryImplI43ListAssignmentTest_EmptyListAssignment_TestE10CreateTestEv
FNDA:1,_ZN7testing8internal15TestFactoryImplI43ListReverseIteratorsTest_SingleElement_TestE10CreateTestEv
FNDA:1,_ZN7testing8internal15TestFactoryImplI44ListAssignmentTest_DeepCopyVerification_TestE10CreateTestEv
FNDA:1,_ZN7testing8internal15TestFactoryImplI45ListReverseIteratorsTest_MixedOperations_TestE10CreateTestEv
FNDA:1,_ZN7testing8internal15TestFactoryImplI46ListReverseIteratorsTest_ReverseTraversal_TestE10CreateTestEv
FNDA:1,_ZN7testing8internal15TestFactoryImplI49ListAssignmentTest_AssignViaContainerPointer_TestE10CreateTestEv
FNDA:1,_ZN7testing8internal15TestFactoryImplI55ListAssignmentTest_AssignFromIncompatibleContainer_TestE10CreateTestEv
FNDA:1,_ZN7testing8internal15TestFactoryImplIN12my_container12_GLOBAL__N_118ListTest_Swap_TestEE10CreateTestEv
FNDA:1,_ZN7testing8internal15TestFactoryImplIN12my_container12_GLOBAL__N_120ListTest_Insert_TestEE10CreateTestEv
FNDA:1,_ZN7testing8internal15TestFactoryImplIN12my_container12_GLOBAL__N_120ListTest_Resize_TestEE10CreateTestEv
FNDA:1,_ZN7testing8internal15TestFactoryImplIN12my_container12_GLOBAL__N_121ListTest_MaxSize_TestEE10CreateTestEv
FNDA:1,_ZN7testing8internal15TestFactoryImplIN12my_container12_GLOBAL__N_123ListTest_FrontBack_TestEE10CreateTestEv
FNDA:1,_ZN7testing8internal15TestFactoryImplIN12my_container12_GLOBAL__N_123ListTest_Iterators_TestEE10CreateTestEv
FNDA:1,_ZN7testing8internal15TestFactoryImplIN12my_container12_GLOBAL__N_125ListTest_Comparisons_TestEE10CreateTestEv
FNDA:1,_ZN7testing8internal15TestFactoryImplIN12my_container12_GLOBAL__N_125ListTest_InsertErase_TestEE10CreateTestEv
FNDA:1,_ZN7testing8internal15TestFactoryImplIN12my_container12_GLOBAL__N_128ListTest_ConstIterators_TestEE10CreateTestEv
FNDA:1,_ZN7testing8internal15TestFactoryImplIN12my_container12_GLOBAL__N_128ListTest_CopyAssignment_TestEE10CreateTestEv
FNDA:1,_ZN7testing8internal15TestFactoryImplIN12my_container12_GLOBAL__N_128ListTest_MoveAssignment_TestEE10CreateTestEv
FNDA:1,_ZN7testing8internal15TestFactoryImplIN12my_container12_GLOBAL__N_129ListTest_CopyConstructor_TestEE10CreateTestEv
FNDA:1,_ZN7testing8internal15TestFactoryImplIN12my_container12_GLOBAL__N_129ListTest_MoveConstructor_TestEE10CreateTestEv
FNDA:1,_ZN7testing8internal15TestFactoryImplIN12my_container12_GLOBAL__N_132ListTest_DefaultConstructor_TestEE10CreateTestEv
FNDA:1,_ZN7testing8internal15TestFactoryImplIN12my_container12_GLOBAL__N_133ListFrontBackTest_StringType_TestEE10CreateTestEv
FNDA:1,_ZN7testing8internal15TestFactoryImplIN12my_container12_GLOBAL__N_136ListFrontBackTest_SingleElement_TestEE10CreateTestEv
FNDA:1,_ZN7testing8internal15TestFactoryImplIN12my_container12_GLOBAL__N_137ListTest_FrontBackThrowWhenEmpty_TestEE10CreateTestEv
FNDA:1,_ZN7testing8internal15TestFactoryImplIN12my_container12_GLOBAL__N_139ListFrontBackTest_MultipleElements_TestEE10CreateTestEv
FNDA:1,_ZN7testing8internal15TestFactoryImplIN12my_container12_GLOBAL__N_140ListTest_InitializerListConstructor_TestEE10CreateTestEv
FNDA:1,_ZN7testing8internal15TestFactoryImplIN12my_container12_GLOBAL__N_141ListFrontBackTest_AfterModifications_TestEE10CreateTestEv
FNDA:60,_ZN7testing8internal12CodeLocationC2ERKNSt7__cxx1112basic_stringIcSt11char_traitsIcESaIcEEEi
FNDA:240,_ZN7testing8internal19GetNotDefaultOrNullEPFvvES2_
FNDA:32,_ZN7testing8internal16SuiteApiResolverIN12my_container12_GLOBAL__N_18ListTestEE19GetSetUpCaseOrSuiteEPKci
FNDA:28,_ZN7testing8internal16SuiteApiResolverINS_4TestEE19GetSetUpCaseOrSuiteEPKci
FNDA:32,_ZN7testing8internal16SuiteApiResolverIN12my_container12_GLOBAL__N_18ListTestEE22GetTearDownCaseOrSuiteEPKci
FNDA:28,_ZN7testing8internal16SuiteApiResolverINS_4TestEE22GetTearDownCaseOrSuiteEPKci
FNDA:3,_ZN7testing8internal14TrueWithStringC2Ev
FNDA:3,_ZNK7testing8internal14TrueWithStringcvbEv
FNF:42
FNH:41
DA:419,32
DA:424,32
DA:438,60
DA:445,60
DA:457,30
DA:478,60
DA:479,60
DA:491,240
DA:493,240
DA:506,60
DA:510,60
DA:512,60
DA:514,60
DA:517,0
DA:519,60
DA:527,60
DA:531,60
DA:533,60
DA:535,60
DA:538,0
DA:540,60
DA:843,3
DA:846,3
LF:23
LH:21
end_of_record
TN:
SF:/mnt/c/Users/senya/CLionProjects/fund_alg_4sem/lab1_2/cmake-build-debug/_deps/googletest-src/googletest/include/gtest/internal/gtest-port.h
FN:1042,1042,_ZN7testing8internal8GTestLog9GetStreamEv
FNDA:0,_ZN7testing8internal8GTestLog9GetStreamEv
FNF:1
FNH:0
DA:1042,0
LF:1
LH:0
end_of_record
TN:
SF:/mnt/c/Users/senya/CLionProjects/fund_alg_4sem/lab1_2/cmake-build-debug/_deps/googletest-src/googletest/include/gtest/internal/gtest-type-util.h
FN:61,87,_ZN7testing8internal31CanonicalizeForStdLibVersioningENSt7__cxx1112basic_stringIcSt11char_traitsIcESaIcEEE
FN:91,121,_ZN7testing8internal11GetTypeNameB5cxx11ERKSt9type_info
FNDA:0,_ZN7testing8internal31CanonicalizeForStdLibVersioningENSt7__cxx1112basic_stringIcSt11char_traitsIcESaIcEEE
FNDA:0,_ZN7testing8internal11GetTypeNameB5cxx11ERKSt9type_info
FNF:2
FNH:0
DA:61,0
DA:63,0
DA:64,0
DA:65,0
DA:67,0
DA:75,0
DA:78,0
DA:79,0
DA:80,0
DA:83,0
DA:84,0
DA:86,0
DA:91,0
DA:92,0
DA:94,0
DA:100,0
DA:101,0
DA:102,0
DA:103,0
DA:121,0
LF:20
LH:0
end_of_record
TN:
SF:/mnt/c/Users/senya/CLionProjects/fund_alg_4sem/lab1_2/include/container.h
FN:14,14,_ZN9ContainerINSt7__cxx1112basic_stringIcSt11char_traitsIcESaIcEEEEC2Ev
FN:14,14,_ZN9ContainerIdEC2Ev
FN:14,14,_ZN9ContainerIiEC2Ev
FN:18,18,_ZN9ContainerINSt7__cxx1112basic_stringIcSt11char_traitsIcESaIcEEEED0Ev
FN:18,18,_ZN9ContainerINSt7__cxx1112basic_stringIcSt11char_traitsIcESaIcEEEED2Ev
FN:18,18,_ZN9ContainerIdED0Ev
FN:18,18,_ZN9ContainerIdED2Ev
FN:18,18,_ZN9ContainerIiED0Ev
FN:18,18,_ZN9ContainerIiED2Ev
FNDA:5,_ZN9ContainerINSt7__cxx1112basic_stringIcSt11char_traitsIcESaIcEEEEC2Ev
FNDA:1,_ZN9ContainerIdEC2Ev
FNDA:57,_ZN9ContainerIiEC2Ev
FNDA:0,_ZN9ContainerINSt7__cxx1112basic_stringIcSt11char_traitsIcESaIcEEEED0Ev
FNDA:5,_ZN9ContainerINSt7__cxx1112basic_stringIcSt11char_traitsIcESaIcEEEED2Ev
FNDA:0,_ZN9ContainerIdED0Ev
FNDA:1,_ZN9ContainerIdED2Ev
FNDA:0,_ZN9ContainerIiED0Ev
FNDA:58,_ZN9ContainerIiED2Ev
FNF:9
FNH:6
DA:14,63
DA:18,64
LF:2
LH:2
end_of_record
TN:
SF:/mnt/c/Users/senya/CLionProjects/fund_alg_4sem/lab1_2/include/list.h
FN:111,111,_ZN12my_container4ListINSt7__cxx1112basic_stringIcSt11char_traitsIcESaIcEEEE14const_iteratorC2EPKNS7_4NodeE
FN:111,111,_ZN12my_container4ListIdE14const_iteratorC2EPKNS1_4NodeE
FN:111,111,_ZN12my_container4ListIiE14const_iteratorC2EPKNS1_4NodeE
FN:112,112,_ZN12my_container4ListINSt7__cxx1112basic_stringIcSt11char_traitsIcESaIcEEEE14const_iteratorC2ERKNS7_8iteratorE
FN:112,112,_ZN12my_container4ListIdE14const_iteratorC2ERKNS1_8iteratorE
FN:112,112,_ZN12my_container4ListIiE14const_iteratorC2ERKNS1_8iteratorE
FN:114,114,_ZNK12my_container4ListINSt7__cxx1112basic_stringIcSt11char_traitsIcESaIcEEEE14const_iteratordeEv
FN:114,114,_ZNK12my_container4ListIdE14const_iteratordeEv
FN:114,114,_ZNK12my_container4ListIiE14const_iteratordeEv
FN:117,117,_ZN12my_container4ListINSt7__cxx1112basic_stringIcSt11char_traitsIcESaIcEEEE14const_iteratorppEv
FN:117,117,_ZN12my_container4ListIdE14const_iteratorppEv
FN:117,117,_ZN12my_container4ListIiE14const_iteratorppEv
FN:119,119,_ZN12my_container4ListIiE14const_iteratormmEv
FN:122,122,_ZNK12my_container4ListINSt7__cxx1112basic_stringIcSt11char_traitsIcESaIcEEEE14const_iteratoreqERKS8_
FN:122,122,_ZNK12my_container4ListIdE14const_iteratoreqERKS2_
FN:122,122,_ZNK12my_container4ListIiE14const_iteratoreqERKS2_
FN:123,123,_ZNK12my_container4ListINSt7__cxx1112basic_stringIcSt11char_traitsIcESaIcEEEE14const_iteratorneERKS8_
FN:123,123,_ZNK12my_container4ListIdE14const_iteratorneERKS2_
FN:123,123,_ZNK12my_container4ListIiE14const_iteratorneERKS2_
FN:127,127,_ZN12my_container4ListINSt7__cxx1112basic_stringIcSt11char_traitsIcESaIcEEEE5beginEv
FN:127,127,_ZN12my_container4ListIdE5beginEv
FN:127,127,_ZN12my_container4ListIiE5beginEv
FN:128,128,_ZN12my_container4ListINSt7__cxx1112basic_stringIcSt11char_traitsIcESaIcEEEE3endEv
FN:128,128,_ZN12my_container4ListIdE3endEv
FN:128,128,_ZN12my_container4ListIiE3endEv
FN:129,129,_ZNK12my_container4ListIiE5beginEv
FN:130,130,_ZNK12my_container4ListIiE3endEv
FN:131,131,_ZNK12my_container4ListINSt7__cxx1112basic_stringIcSt11char_traitsIcESaIcEEEE6cbeginEv
FN:131,131,_ZNK12my_container4ListIdE6cbeginEv
FN:131,131,_ZNK12my_container4ListIiE6cbeginEv
FN:132,132,_ZNK12my_container4ListINSt7__cxx1112basic_stringIcSt11char_traitsIcESaIcEEEE4cendEv
FN:132,132,_ZNK12my_container4ListIdE4cendEv
FN:132,132,_ZNK12my_container4ListIiE4cendEv
FN:137,137,_ZN12my_container4ListINSt7__cxx1112basic_stringIcSt11char_traitsIcESaIcEEEE6rbeginEv
FN:137,137,_ZN12my_container4ListIiE6rbeginEv
FN:138,138,_ZN12my_container4ListINSt7__cxx1112basic_stringIcSt11char_traitsIcESaIcEEEE4rendEv
FN:138,138,_ZN12my_container4ListIiE4rendEv
FN:140,140,_ZNK12my_container4ListIiE7crbeginEv
FN:141,141,_ZNK12my_container4ListIiE5crendEv
FN:143,143,_ZNK12my_container4ListIiE6rbeginEv
FN:144,144,_ZNK12my_container4ListIiE4rendEv
FN:151,151,_ZN12my_container4ListINSt7__cxx1112basic_stringIcSt11char_traitsIcESaIcEEEE9push_backERKS6_
FN:151,151,_ZN12my_container4ListIdE9push_backERKd
FN:151,151,_ZN12my_container4ListIiE9push_backERKi
FN:152,152,_ZN12my_container4ListINSt7__cxx1112basic_stringIcSt11char_traitsIcESaIcEEEE9push_backEOS6_
FN:152,152,_ZN12my_container4ListIdE9push_backEOd
FN:152,152,_ZN12my_container4ListIiE9push_backEOi
FN:153,153,_ZN12my_container4ListINSt7__cxx1112basic_stringIcSt11char_traitsIcESaIcEEEE8pop_backEv
FN:153,153,_ZN12my_container4ListIdE8pop_backEv
FN:153,153,_ZN12my_container4ListIiE8pop_backEv
FN:155,155,_ZN12my_container4ListINSt7__cxx1112basic_stringIcSt11char_traitsIcESaIcEEEE10push_frontEOS6_
FN:155,155,_ZN12my_container4ListIdE10push_frontEOd
FN:166,176,_ZN12my_container4ListINSt7__cxx1112basic_stringIcSt11char_traitsIcESaIcEEEEaSERK9ContainerIS6_E
FN:166,176,_ZN12my_container4ListIdEaSERK9ContainerIdE
FN:166,176,_ZN12my_container4ListIiEaSERK9ContainerIiE
FN:179,183,_ZNK12my_container4ListINSt7__cxx1112basic_stringIcSt11char_traitsIcESaIcEEEEeqERK9ContainerIS6_E
FN:179,183,_ZNK12my_container4ListIdEeqERK9ContainerIdE
FN:179,183,_ZNK12my_container4ListIiEeqERK9ContainerIiE
FN:186,188,_ZNK12my_container4ListINSt7__cxx1112basic_stringIcSt11char_traitsIcESaIcEEEEneERK9ContainerIS6_E
FN:186,188,_ZNK12my_container4ListIdEneERK9ContainerIdE
FN:186,188,_ZNK12my_container4ListIiEneERK9ContainerIiE
FN:191,193,_ZNK12my_container4ListIiEssERKS1_
FN:197,199,_ZNK12my_container4ListIiEneERKS1_
FN:202,204,_ZNK12my_container4ListIiEeqERKS1_
FN:207,215,_ZN12my_container4ListINSt7__cxx1112basic_stringIcSt11char_traitsIcESaIcEEEE5eraseENS7_14const_iteratorE
FN:207,215,_ZN12my_container4ListIdE5eraseENS1_14const_iteratorE
FN:207,215,_ZN12my_container4ListIiE5eraseENS1_14const_iteratorE
FN:218,221,_ZN12my_container4ListIiE4swapERS1_
FN:22,23,_ZN12my_container4ListINSt7__cxx1112basic_stringIcSt11char_traitsIcESaIcEEEE4NodeC2ERKS6_PS8_SB_
FN:22,23,_ZN12my_container4ListIdE4NodeC2ERKdPS2_S5_
FN:22,23,_ZN12my_container4ListIiE4NodeC2ERKiPS2_S5_
FN:224,227,_ZN12my_container4ListIiE6resizeEmRKi
FN:230,239,_ZN12my_container4ListINSt7__cxx1112basic_stringIcSt11char_traitsIcESaIcEEEE6insertENS7_14const_iteratorERKS6_
FN:230,239,_ZN12my_container4ListIdE6insertENS1_14const_iteratorERKd
FN:230,239,_ZN12my_container4ListIiE6insertENS1_14const_iteratorERKi
FN:24,25,_ZN12my_container4ListINSt7__cxx1112basic_stringIcSt11char_traitsIcESaIcEEEE4NodeC2EOS6_PS8_SA_
FN:24,25,_ZN12my_container4ListIdE4NodeC2EOdPS2_S4_
FN:24,25,_ZN12my_container4ListIiE4NodeC2EOiPS2_S4_
FN:241,250,_ZN12my_container4ListINSt7__cxx1112basic_stringIcSt11char_traitsIcESaIcEEEE6insertENS7_14const_iteratorEOS6_
FN:241,250,_ZN12my_container4ListIdE6insertENS1_14const_iteratorEOd
FN:241,250,_ZN12my_container4ListIiE6insertENS1_14const_iteratorEOi
FN:253,256,_ZN12my_container4ListINSt7__cxx1112basic_stringIcSt11char_traitsIcESaIcEEEE5clearEv
FN:253,256,_ZN12my_container4ListIdE5clearEv
FN:253,256,_ZN12my_container4ListIiE5clearEv
FN:259,262,_ZNK12my_container4ListINSt7__cxx1112basic_stringIcSt11char_traitsIcESaIcEEEE4backEv
FN:259,262,_ZNK12my_container4ListIdE4backEv
FN:259,262,_ZNK12my_container4ListIiE4backEv
FN:265,268,_ZN12my_container4ListIdE4backEv
FN:265,268,_ZN12my_container4ListIiE4backEv
FN:271,274,_ZNK12my_container4ListINSt7__cxx1112basic_stringIcSt11char_traitsIcESaIcEEEE5frontEv
FN:271,274,_ZNK12my_container4ListIdE5frontEv
FN:271,274,_ZNK12my_container4ListIiE5frontEv
FN:277,280,_ZN12my_container4ListINSt7__cxx1112basic_stringIcSt11char_traitsIcESaIcEEEE5frontEv
FN:277,280,_ZN12my_container4ListIdE5frontEv
FN:277,280,_ZN12my_container4ListIiE5frontEv
FN:283,286,_ZN12my_container4ListINSt7__cxx1112basic_stringIcSt11char_traitsIcESaIcEEEED0Ev
FN:283,286,_ZN12my_container4ListINSt7__cxx1112basic_stringIcSt11char_traitsIcESaIcEEEED2Ev
FN:283,286,_ZN12my_container4ListIdED0Ev
FN:283,286,_ZN12my_container4ListIdED2Ev
FN:283,286,_ZN12my_container4ListIiED0Ev
FN:283,286,_ZN12my_container4ListIiED2Ev
FN:289,302,_ZN12my_container4ListIiEaSEOS1_
FN:305,311,_ZN12my_container4ListINSt7__cxx1112basic_stringIcSt11char_traitsIcESaIcEEEEaSERKS7_
FN:305,311,_ZN12my_container4ListIdEaSERKS1_
FN:305,311,_ZN12my_container4ListIiEaSERKS1_
FN:314,318,_ZN12my_container4ListIiEC2EOS1_
FN:32,38,_ZN12my_container4ListINSt7__cxx1112basic_stringIcSt11char_traitsIcESaIcEEEE9copyNodesERKS7_
FN:32,38,_ZN12my_container4ListIdE9copyNodesERKS1_
FN:32,38,_ZN12my_container4ListIiE9copyNodesERKS1_
FN:321,323,_ZN12my_container4ListIiEC2ERKS1_
FN:326,328,_ZN12my_container4ListINSt7__cxx1112basic_stringIcSt11char_traitsIcESaIcEEEEC2ESt16initializer_listIS6_E
FN:326,328,_ZN12my_container4ListIiEC2ESt16initializer_listIiE
FN:331,335,_ZN12my_container4ListINSt7__cxx1112basic_stringIcSt11char_traitsIcESaIcEEEEC2Ev
FN:331,335,_ZN12my_container4ListIdEC2Ev
FN:331,335,_ZN12my_container4ListIiEC2Ev
FN:71,71,_ZNK12my_container4ListINSt7__cxx1112basic_stringIcSt11char_traitsIcESaIcEEEE5emptyEv
FN:71,71,_ZNK12my_container4ListIdE5emptyEv
FN:71,71,_ZNK12my_container4ListIiE5emptyEv
FN:72,72,_ZNK12my_container4ListINSt7__cxx1112basic_stringIcSt11char_traitsIcESaIcEEEE4sizeEv
FN:72,72,_ZNK12my_container4ListIdE4sizeEv
FN:72,72,_ZNK12my_container4ListIiE4sizeEv
FN:73,73,_ZNK12my_container4ListINSt7__cxx1112basic_stringIcSt11char_traitsIcESaIcEEEE8max_sizeEv
FN:73,73,_ZNK12my_container4ListIdE8max_sizeEv
FN:73,73,_ZNK12my_container4ListIiE8max_sizeEv
FN:87,87,_ZN12my_container4ListINSt7__cxx1112basic_stringIcSt11char_traitsIcESaIcEEEE8iteratorC2EPNS7_4NodeE
FN:87,87,_ZN12my_container4ListIdE8iteratorC2EPNS1_4NodeE
FN:87,87,_ZN12my_container4ListIiE8iteratorC2EPNS1_4NodeE
FN:89,89,_ZNK12my_container4ListINSt7__cxx1112basic_stringIcSt11char_traitsIcESaIcEEEE8iteratordeEv
FN:89,89,_ZNK12my_container4ListIiE8iteratordeEv
FN:92,92,_ZN12my_container4ListIiE8iteratorppEv
FN:94,94,_ZN12my_container4ListINSt7__cxx1112basic_stringIcSt11char_traitsIcESaIcEEEE8iteratormmEv
FN:94,94,_ZN12my_container4ListIdE8iteratormmEv
FN:94,94,_ZN12my_container4ListIiE8iteratormmEv
FN:97,97,_ZNK12my_container4ListINSt7__cxx1112basic_stringIcSt11char_traitsIcESaIcEEEE8iteratoreqERKS8_
FN:97,97,_ZNK12my_container4ListIiE8iteratoreqERKS2_
FN:98,98,_ZNK12my_container4ListIiE8iteratorneERKS2_
FNDA:0,_ZN12my_container4ListINSt7__cxx1112basic_stringIcSt11char_traitsIcESaIcEEEE14const_iteratorC2EPKNS7_4NodeE
FNDA:0,_ZN12my_container4ListIdE14const_iteratorC2EPKNS1_4NodeE
FNDA:11,_ZN12my_container4ListIiE14const_iteratorC2EPKNS1_4NodeE
FNDA:10,_ZN12my_container4ListINSt7__cxx1112basic_stringIcSt11char_traitsIcESaIcEEEE14const_iteratorC2ERKNS7_8iteratorE
FNDA:4,_ZN12my_container4ListIdE14const_iteratorC2ERKNS1_8iteratorE
FNDA:236,_ZN12my_container4ListIiE14const_iteratorC2ERKNS1_8iteratorE
FNDA:0,_ZNK12my_container4ListINSt7__cxx1112basic_stringIcSt11char_traitsIcESaIcEEEE14const_iteratordeEv
FNDA:0,_ZNK12my_container4ListIdE14const_iteratordeEv
FNDA:5,_ZNK12my_container4ListIiE14const_iteratordeEv
FNDA:0,_ZN12my_container4ListINSt7__cxx1112basic_stringIcSt11char_traitsIcESaIcEEEE14const_iteratorppEv
FNDA:0,_ZN12my_container4ListIdE14const_iteratorppEv
FNDA:0,_ZN12my_container4ListIiE14const_iteratorppEv
FNDA:10,_ZN12my_container4ListIiE14const_iteratormmEv
FNDA:0,_ZNK12my_container4ListINSt7__cxx1112basic_stringIcSt11char_traitsIcESaIcEEEE14const_iteratoreqERKS8_
FNDA:0,_ZNK12my_container4ListIdE14const_iteratoreqERKS2_
FNDA:8,_ZNK12my_container4ListIiE14const_iteratoreqERKS2_
FNDA:0,_ZNK12my_container4ListINSt7__cxx1112basic_stringIcSt11char_traitsIcESaIcEEEE14const_iteratorneERKS8_
FNDA:0,_ZNK12my_container4ListIdE14const_iteratorneERKS2_
FNDA:0,_ZNK12my_container4ListIiE14const_iteratorneERKS2_
FNDA:4,_ZN12my_container4ListINSt7__cxx1112basic_stringIcSt11char_traitsIcESaIcEEEE5beginEv
FNDA:1,_ZN12my_container4ListIdE5beginEv
FNDA:14,_ZN12my_container4ListIiE5beginEv
FNDA:9,_ZN12my_container4ListINSt7__cxx1112basic_stringIcSt11char_traitsIcESaIcEEEE3endEv
FNDA:3,_ZN12my_container4ListIdE3endEv
FNDA:239,_ZN12my_container4ListIiE3endEv
FNDA:17,_ZNK12my_container4ListIiE5beginEv
FNDA:20,_ZNK12my_container4ListIiE3endEv
FNDA:0,_ZNK12my_container4ListINSt7__cxx1112basic_stringIcSt11char_traitsIcESaIcEEEE6cbeginEv
FNDA:0,_ZNK12my_container4ListIdE6cbeginEv
FNDA:8,_ZNK12my_container4ListIiE6cbeginEv
FNDA:0,_ZNK12my_container4ListINSt7__cxx1112basic_stringIcSt11char_traitsIcESaIcEEEE4cendEv
FNDA:0,_ZNK12my_container4ListIdE4cendEv
FNDA:3,_ZNK12my_container4ListIiE4cendEv
FNDA:1,_ZN12my_container4ListINSt7__cxx1112basic_stringIcSt11char_traitsIcESaIcEEEE6rbeginEv
FNDA:2,_ZN12my_container4ListIiE6rbeginEv
FNDA:2,_ZN12my_container4ListINSt7__cxx1112basic_stringIcSt11char_traitsIcESaIcEEEE4rendEv
FNDA:6,_ZN12my_container4ListIiE4rendEv
FNDA:3,_ZNK12my_container4ListIiE7crbeginEv
FNDA:8,_ZNK12my_container4ListIiE5crendEv
FNDA:1,_ZNK12my_container4ListIiE6rbeginEv
FNDA:1,_ZNK12my_container4ListIiE4rendEv
FNDA:1,_ZN12my_container4ListINSt7__cxx1112basic_stringIcSt11char_traitsIcESaIcEEEE9push_backERKS6_
FNDA:0,_ZN12my_container4ListIdE9push_backERKd
FNDA:115,_ZN12my_container4ListIiE9push_backERKi
FNDA:2,_ZN12my_container4ListINSt7__cxx1112basic_stringIcSt11char_traitsIcESaIcEEEE9push_backEOS6_
FNDA:1,_ZN12my_container4ListIdE9push_backEOd
FNDA:1,_ZN12my_container4ListIiE9push_backEOi
FNDA:5,_ZN12my_container4ListINSt7__cxx1112basic_stringIcSt11char_traitsIcESaIcEEEE8pop_backEv
FNDA:2,_ZN12my_container4ListIdE8pop_backEv
FNDA:117,_ZN12my_container4ListIiE8pop_backEv
FNDA:2,_ZN12my_container4ListINSt7__cxx1112basic_stringIcSt11char_traitsIcESaIcEEEE10push_frontEOS6_
FNDA:1,_ZN12my_container4ListIdE10push_frontEOd
FNDA:0,_ZN12my_container4ListINSt7__cxx1112basic_stringIcSt11char_traitsIcESaIcEEEEaSERK9ContainerIS6_E
FNDA:0,_ZN12my_container4ListIdEaSERK9ContainerIdE
FNDA:4,_ZN12my_container4ListIiEaSERK9ContainerIiE
FNDA:0,_ZNK12my_container4ListINSt7__cxx1112basic_stringIcSt11char_traitsIcESaIcEEEEeqERK9ContainerIS6_E
FNDA:0,_ZNK12my_container4ListIdEeqERK9ContainerIdE
FNDA:0,_ZNK12my_container4ListIiEeqERK9ContainerIiE
FNDA:0,_ZNK12my_container4ListINSt7__cxx1112basic_stringIcSt11char_traitsIcESaIcEEEEneERK9ContainerIS6_E
FNDA:0,_ZNK12my_container4ListIdEneERK9ContainerIdE
FNDA:0,_ZNK12my_container4ListIiEneERK9ContainerIiE
FNDA:8,_ZNK12my_container4ListIiEssERKS1_
FNDA:1,_ZNK12my_container4ListIiEneERKS1_
FNDA:7,_ZNK12my_container4ListIiEeqERKS1_
FNDA:5,_ZN12my_container4ListINSt7__cxx1112basic_stringIcSt11char_traitsIcESaIcEEEE5eraseENS7_14const_iteratorE
FNDA:2,_ZN12my_container4ListIdE5eraseENS1_14const_iteratorE
FNDA:118,_ZN12my_container4ListIiE5eraseENS1_14const_iteratorE
FNDA:1,_ZN12my_container4ListIiE4swapERS1_
FNDA:6,_ZN12my_container4ListINSt7__cxx1112basic_stringIcSt11char_traitsIcESaIcEEEE4NodeC2ERKS6_PS8_SB_
FNDA:1,_ZN12my_container4ListIdE4NodeC2ERKdPS2_S5_
FNDA:174,_ZN12my_container4ListIiE4NodeC2ERKiPS2_S5_
FNDA:2,_ZN12my_container4ListIiE6resizeEmRKi
FNDA:1,_ZN12my_container4ListINSt7__cxx1112basic_stringIcSt11char_traitsIcESaIcEEEE6insertENS7_14const_iteratorERKS6_
FNDA:0,_ZN12my_container4ListIdE6insertENS1_14const_iteratorERKd
FNDA:115,_ZN12my_container4ListIiE6insertENS1_14const_iteratorERKi
FNDA:4,_ZN12my_container4ListINSt7__cxx1112basic_stringIcSt11char_traitsIcESaIcEEEE4NodeC2EOS6_PS8_SA_
FNDA:2,_ZN12my_container4ListIdE4NodeC2EOdPS2_S4_
FNDA:3,_ZN12my_container4ListIiE4NodeC2EOiPS2_S4_
FNDA:4,_ZN12my_container4ListINSt7__cxx1112basic_stringIcSt11char_traitsIcESaIcEEEE6insertENS7_14const_iteratorEOS6_
FNDA:2,_ZN12my_container4ListIdE6insertENS1_14const_iteratorEOd
FNDA:3,_ZN12my_container4ListIiE6insertENS1_14const_iteratorEOi
FNDA:6,_ZN12my_container4ListINSt7__cxx1112basic_stringIcSt11char_traitsIcESaIcEEEE5clearEv
FNDA:1,_ZN12my_container4ListIdE5clearEv
FNDA:63,_ZN12my_container4ListIiE5clearEv
FNDA:3,_ZNK12my_container4ListINSt7__cxx1112basic_stringIcSt11char_traitsIcESaIcEEEE4backEv
FNDA:2,_ZNK12my_container4ListIdE4backEv
FNDA:2,_ZNK12my_container4ListIiE4backEv
FNDA:1,_ZN12my_container4ListIdE4backEv
FNDA:8,_ZN12my_container4ListIiE4backEv
FNDA:4,_ZNK12my_container4ListINSt7__cxx1112basic_stringIcSt11char_traitsIcESaIcEEEE5frontEv
FNDA:2,_ZNK12my_container4ListIdE5frontEv
FNDA:2,_ZNK12my_container4ListIiE5frontEv
FNDA:1,_ZN12my_container4ListINSt7__cxx1112basic_stringIcSt11char_traitsIcESaIcEEEE5frontEv
FNDA:1,_ZN12my_container4ListIdE5frontEv
FNDA:6,_ZN12my_container4ListIiE5frontEv
FNDA:0,_ZN12my_container4ListINSt7__cxx1112basic_stringIcSt11char_traitsIcESaIcEEEED0Ev
FNDA:5,_ZN12my_container4ListINSt7__cxx1112basic_stringIcSt11char_traitsIcESaIcEEEED2Ev
FNDA:0,_ZN12my_container4ListIdED0Ev
FNDA:1,_ZN12my_container4ListIdED2Ev
FNDA:0,_ZN12my_container4ListIiED0Ev
FNDA:57,_ZN12my_container4ListIiED2Ev
FNDA:2,_ZN12my_container4ListIiEaSEOS1_
FNDA:1,_ZN12my_container4ListINSt7__cxx1112basic_stringIcSt11char_traitsIcESaIcEEEEaSERKS7_
FNDA:0,_ZN12my_container4ListIdEaSERKS1_
FNDA:4,_ZN12my_container4ListIiEaSERKS1_
FNDA:1,_ZN12my_container4ListIiEC2EOS1_
FNDA:1,_ZN12my_container4ListINSt7__cxx1112basic_stringIcSt11char_traitsIcESaIcEEEE9copyNodesERKS7_
FNDA:0,_ZN12my_container4ListIdE9copyNodesERKS1_
FNDA:6,_ZN12my_container4ListIiE9copyNodesERKS1_
FNDA:2,_ZN12my_container4ListIiEC2ERKS1_
FNDA:1,_ZN12my_container4ListINSt7__cxx1112basic_stringIcSt11char_traitsIcESaIcEEEEC2ESt16initializer_listIS6_E
FNDA:31,_ZN12my_container4ListIiEC2ESt16initializer_listIiE
FNDA:5,_ZN12my_container4ListINSt7__cxx1112basic_stringIcSt11char_traitsIcESaIcEEEEC2Ev
FNDA:1,_ZN12my_container4ListIdEC2Ev
FNDA:56,_ZN12my_container4ListIiEC2Ev
FNDA:20,_ZNK12my_container4ListINSt7__cxx1112basic_stringIcSt11char_traitsIcESaIcEEEE5emptyEv
FNDA:8,_ZNK12my_container4ListIdE5emptyEv
FNDA:198,_ZNK12my_container4ListIiE5emptyEv
FNDA:1,_ZNK12my_container4ListINSt7__cxx1112basic_stringIcSt11char_traitsIcESaIcEEEE4sizeEv
FNDA:0,_ZNK12my_container4ListIdE4sizeEv
FNDA:16,_ZNK12my_container4ListIiE4sizeEv
FNDA:0,_ZNK12my_container4ListINSt7__cxx1112basic_stringIcSt11char_traitsIcESaIcEEEE8max_sizeEv
FNDA:0,_ZNK12my_container4ListIdE8max_sizeEv
FNDA:5,_ZNK12my_container4ListIiE8max_sizeEv
FNDA:23,_ZN12my_container4ListINSt7__cxx1112basic_stringIcSt11char_traitsIcESaIcEEEE8iteratorC2EPNS7_4NodeE
FNDA:8,_ZN12my_container4ListIdE8iteratorC2EPNS1_4NodeE
FNDA:526,_ZN12my_container4ListIiE8iteratorC2EPNS1_4NodeE
FNDA:1,_ZNK12my_container4ListINSt7__cxx1112basic_stringIcSt11char_traitsIcESaIcEEEE8iteratordeEv
FNDA:73,_ZNK12my_container4ListIiE8iteratordeEv
FNDA:69,_ZN12my_container4ListIiE8iteratorppEv
FNDA:7,_ZN12my_container4ListINSt7__cxx1112basic_stringIcSt11char_traitsIcESaIcEEEE8iteratormmEv
FNDA:2,_ZN12my_container4ListIdE8iteratormmEv
FNDA:130,_ZN12my_container4ListIiE8iteratormmEv
FNDA:2,_ZNK12my_container4ListINSt7__cxx1112basic_stringIcSt11char_traitsIcESaIcEEEE8iteratoreqERKS8_
FNDA:84,_ZNK12my_container4ListIiE8iteratoreqERKS2_
FNDA:44,_ZNK12my_container4ListIiE8iteratorneERKS2_
FNF:136
FNH:102
DA:22,181
DA:23,181
DA:24,9
DA:25,9
DA:32,7
DA:33,7
DA:34,24
DA:35,17
DA:36,17
DA:38,7
DA:71,226
DA:72,17
DA:73,5
DA:87,557
DA:89,74
DA:92,69
DA:94,139
DA:97,86
DA:98,44
DA:111,11
DA:112,250
DA:114,5
DA:117,0
DA:119,10
DA:122,8
DA:123,0
DA:127,19
DA:128,251
DA:129,17
DA:130,20
DA:131,8
DA:132,3
DA:137,3
DA:138,8
DA:140,3
DA:141,8
DA:143,1
DA:144,1
DA:151,116
DA:152,4
DA:153,124
DA:155,3
DA:166,4
DA:167,4
DA:168,1
DA:170,3
DA:171,3
DA:172,1
DA:174,2
DA:175,2
DA:179,0
DA:180,0
DA:181,0
DA:182,0
DA:186,0
DA:187,0
DA:191,8
DA:192,8
DA:197,1
DA:198,1
DA:202,7
DA:203,7
DA:207,125
DA:208,125
DA:209,125
DA:210,125
DA:211,125
DA:212,125
DA:213,125
DA:214,125
DA:218,1
DA:219,1
DA:220,1
DA:221,1
DA:224,2
DA:225,5
DA:226,4
DA:227,2
DA:230,116
DA:231,116
DA:232,116
DA:234,116
DA:235,116
DA:236,116
DA:237,116
DA:238,116
DA:241,9
DA:242,9
DA:243,9
DA:245,9
DA:246,9
DA:247,9
DA:248,9
DA:249,9
DA:253,70
DA:255,190
DA:256,70
DA:259,7
DA:260,7
DA:261,7
DA:265,9
DA:266,9
DA:267,8
DA:271,8
DA:272,8
DA:273,8
DA:277,8
DA:278,8
DA:279,7
DA:283,63
DA:284,63
DA:285,63
DA:286,126
DA:289,2
DA:290,2
DA:291,2
DA:292,2
DA:294,2
DA:295,2
DA:297,2
DA:298,2
DA:299,2
DA:301,2
DA:305,5
DA:306,5
DA:307,5
DA:308,5
DA:310,5
DA:314,1
DA:315,1
DA:316,1
DA:317,1
DA:318,1
DA:321,2
DA:322,2
DA:323,2
DA:326,32
DA:327,129
DA:328,32
DA:331,62
DA:332,62
DA:333,62
DA:334,62
DA:335,62
LF:144
LH:136
end_of_record
TN:
SF:/mnt/c/Users/senya/CLionProjects/fund_alg_4sem/lab1_2/tests/test_list.cpp
FN:105,105,_ZN12my_container12_GLOBAL__N_141ListFrontBackTest_AfterModifications_Test8TestBodyEv
FN:105,105,_ZN12my_container12_GLOBAL__N_141ListFrontBackTest_AfterModifications_TestC2Ev
FN:105,105,_ZN12my_container12_GLOBAL__N_141ListFrontBackTest_AfterModifications_TestD0Ev
FN:105,105,_ZN12my_container12_GLOBAL__N_141ListFrontBackTest_AfterModifications_TestD2Ev
FN:122,122,_ZN12my_container12_GLOBAL__N_133ListFrontBackTest_StringType_Test8TestBodyEv
FN:122,122,_ZN12my_container12_GLOBAL__N_133ListFrontBackTest_StringType_TestC2Ev
FN:122,122,_ZN12my_container12_GLOBAL__N_133ListFrontBackTest_StringType_TestD0Ev
FN:122,122,_ZN12my_container12_GLOBAL__N_133ListFrontBackTest_StringType_TestD2Ev
FN:135,135,_ZN12my_container12_GLOBAL__N_125ListTest_InsertErase_Test8TestBodyEv
FN:135,135,_ZN12my_container12_GLOBAL__N_125ListTest_InsertErase_TestC2Ev
FN:135,135,_ZN12my_container12_GLOBAL__N_125ListTest_InsertErase_TestD0Ev
FN:135,135,_ZN12my_container12_GLOBAL__N_125ListTest_InsertErase_TestD2Ev
FN:149,149,_ZN12my_container12_GLOBAL__N_120ListTest_Insert_Test8TestBodyEv
FN:149,149,_ZN12my_container12_GLOBAL__N_120ListTest_Insert_TestC2Ev
FN:149,149,_ZN12my_container12_GLOBAL__N_120ListTest_Insert_TestD0Ev
FN:149,149,_ZN12my_container12_GLOBAL__N_120ListTest_Insert_TestD2Ev
FN:15,15,_ZN12my_container12_GLOBAL__N_18ListTestC2Ev
FN:158,158,_ZN12my_container12_GLOBAL__N_120ListTest_Resize_Test8TestBodyEv
FN:158,158,_ZN12my_container12_GLOBAL__N_120ListTest_Resize_TestC2Ev
FN:158,158,_ZN12my_container12_GLOBAL__N_120ListTest_Resize_TestD0Ev
FN:158,158,_ZN12my_container12_GLOBAL__N_120ListTest_Resize_TestD2Ev
FN:168,168,_ZN12my_container12_GLOBAL__N_118ListTest_Swap_Test8TestBodyEv
FN:168,168,_ZN12my_container12_GLOBAL__N_118ListTest_Swap_TestC2Ev
FN:168,168,_ZN12my_container12_GLOBAL__N_118ListTest_Swap_TestD0Ev
FN:168,168,_ZN12my_container12_GLOBAL__N_118ListTest_Swap_TestD2Ev
FN:17,17,_ZN12my_container12_GLOBAL__N_18ListTest5SetUpEv
FN:177,177,_ZN12my_container12_GLOBAL__N_125ListTest_Comparisons_Test8TestBodyEv
FN:177,177,_ZN12my_container12_GLOBAL__N_125ListTest_Comparisons_TestC2Ev
FN:177,177,_ZN12my_container12_GLOBAL__N_125ListTest_Comparisons_TestD0Ev
FN:177,177,_ZN12my_container12_GLOBAL__N_125ListTest_Comparisons_TestD2Ev
FN:187,187,_ZN12my_container12_GLOBAL__N_121ListTest_MaxSize_Test8TestBodyEv
FN:187,187,_ZN12my_container12_GLOBAL__N_121ListTest_MaxSize_TestC2Ev
FN:187,187,_ZN12my_container12_GLOBAL__N_121ListTest_MaxSize_TestD0Ev
FN:187,187,_ZN12my_container12_GLOBAL__N_121ListTest_MaxSize_TestD2Ev
FN:20,23,_ZN12my_container12_GLOBAL__N_132ListTest_DefaultConstructor_Test8TestBodyEv
FN:20,23,_ZN12my_container12_GLOBAL__N_132ListTest_DefaultConstructor_TestC2Ev
FN:20,23,_ZN12my_container12_GLOBAL__N_132ListTest_DefaultConstructor_TestD0Ev
FN:20,23,_ZN12my_container12_GLOBAL__N_132ListTest_DefaultConstructor_TestD2Ev
FN:208,208,_ZN14DummyContainerIiEaSERK9ContainerIiE
FN:210,210,_ZNK14DummyContainerIiEeqERK9ContainerIiE
FN:212,212,_ZNK14DummyContainerIiEneERK9ContainerIiE
FN:214,214,_ZNK14DummyContainerIiE4sizeEv
FN:216,216,_ZNK14DummyContainerIiE8max_sizeEv
FN:218,218,_ZNK14DummyContainerIiE5emptyEv
FN:220,220,_ZN42ListAssignmentTest_AssignBetweenLists_Test8TestBodyEv
FN:220,220,_ZN42ListAssignmentTest_AssignBetweenLists_TestC2Ev
FN:220,220,_ZN42ListAssignmentTest_AssignBetweenLists_TestD0Ev
FN:220,220,_ZN42ListAssignmentTest_AssignBetweenLists_TestD2Ev
FN:231,241,_ZN38ListAssignmentTest_SelfAssignment_Test8TestBodyEv
FN:231,241,_ZN38ListAssignmentTest_SelfAssignment_TestC2Ev
FN:231,241,_ZN38ListAssignmentTest_SelfAssignment_TestD0Ev
FN:231,241,_ZN38ListAssignmentTest_SelfAssignment_TestD2Ev
FN:243,243,_ZN55ListAssignmentTest_AssignFromIncompatibleContainer_Test8TestBodyEv
FN:243,243,_ZN55ListAssignmentTest_AssignFromIncompatibleContainer_TestC2Ev
FN:243,243,_ZN55ListAssignmentTest_AssignFromIncompatibleContainer_TestD0Ev
FN:243,243,_ZN55ListAssignmentTest_AssignFromIncompatibleContainer_TestD2Ev
FN:25,25,_ZN12my_container12_GLOBAL__N_140ListTest_InitializerListConstructor_Test8TestBodyEv
FN:25,25,_ZN12my_container12_GLOBAL__N_140ListTest_InitializerListConstructor_TestC2Ev
FN:25,25,_ZN12my_container12_GLOBAL__N_140ListTest_InitializerListConstructor_TestD0Ev
FN:25,25,_ZN12my_container12_GLOBAL__N_140ListTest_InitializerListConstructor_TestD2Ev
FN:253,262,_ZN44ListAssignmentTest_DeepCopyVerification_Test8TestBodyEv
FN:253,262,_ZN44ListAssignmentTest_DeepCopyVerification_TestC2Ev
FN:253,262,_ZN44ListAssignmentTest_DeepCopyVerification_TestD0Ev
FN:253,262,_ZN44ListAssignmentTest_DeepCopyVerification_TestD2Ev
FN:264,272,_ZN43ListAssignmentTest_EmptyListAssignment_Test8TestBodyEv
FN:264,272,_ZN43ListAssignmentTest_EmptyListAssignment_TestC2Ev
FN:264,272,_ZN43ListAssignmentTest_EmptyListAssignment_TestD0Ev
FN:264,272,_ZN43ListAssignmentTest_EmptyListAssignment_TestD2Ev
FN:274,274,_ZN49ListAssignmentTest_AssignViaContainerPointer_Test8TestBodyEv
FN:274,274,_ZN49ListAssignmentTest_AssignViaContainerPointer_TestC2Ev
FN:274,274,_ZN49ListAssignmentTest_AssignViaContainerPointer_TestD0Ev
FN:274,274,_ZN49ListAssignmentTest_AssignViaContainerPointer_TestD2Ev
FN:286,286,_ZN39ListReverseIteratorsTest_EmptyList_Test8TestBodyEv
FN:286,286,_ZN39ListReverseIteratorsTest_EmptyList_TestC2Ev
FN:286,286,_ZN39ListReverseIteratorsTest_EmptyList_TestD0Ev
FN:286,286,_ZN39ListReverseIteratorsTest_EmptyList_TestD2Ev
FN:292,292,_ZN43ListReverseIteratorsTest_SingleElement_Test8TestBodyEv
FN:292,292,_ZN43ListReverseIteratorsTest_SingleElement_TestC2Ev
FN:292,292,_ZN43ListReverseIteratorsTest_SingleElement_TestD0Ev
FN:292,292,_ZN43ListReverseIteratorsTest_SingleElement_TestD2Ev
FN:302,302,_ZN46ListReverseIteratorsTest_ReverseTraversal_Test8TestBodyEv
FN:302,302,_ZN46ListReverseIteratorsTest_ReverseTraversal_TestC2Ev
FN:302,302,_ZN46ListReverseIteratorsTest_ReverseTraversal_TestD0Ev
FN:302,302,_ZN46ListReverseIteratorsTest_ReverseTraversal_TestD2Ev
FN:31,31,_ZN12my_container12_GLOBAL__N_129ListTest_CopyConstructor_Test8TestBodyEv
FN:31,31,_ZN12my_container12_GLOBAL__N_129ListTest_CopyConstructor_TestC2Ev
FN:31,31,_ZN12my_container12_GLOBAL__N_129ListTest_CopyConstructor_TestD0Ev
FN:31,31,_ZN12my_container12_GLOBAL__N_129ListTest_CopyConstructor_TestD2Ev
FN:320,320,_ZN45ListReverseIteratorsTest_MixedOperations_Test8TestBodyEv
FN:320,320,_ZN45ListReverseIteratorsTest_MixedOperations_TestC2Ev
FN:320,320,_ZN45ListReverseIteratorsTest_MixedOperations_TestD0Ev
FN:320,320,_ZN45ListReverseIteratorsTest_MixedOperations_TestD2Ev
FN:37,37,_ZN12my_container12_GLOBAL__N_129ListTest_MoveConstructor_Test8TestBodyEv
FN:37,37,_ZN12my_container12_GLOBAL__N_129ListTest_MoveConstructor_TestC2Ev
FN:37,37,_ZN12my_container12_GLOBAL__N_129ListTest_MoveConstructor_TestD0Ev
FN:37,37,_ZN12my_container12_GLOBAL__N_129ListTest_MoveConstructor_TestD2Ev
FN:43,43,_ZN12my_container12_GLOBAL__N_128ListTest_CopyAssignment_Test8TestBodyEv
FN:43,43,_ZN12my_container12_GLOBAL__N_128ListTest_CopyAssignment_TestC2Ev
FN:43,43,_ZN12my_container12_GLOBAL__N_128ListTest_CopyAssignment_TestD0Ev
FN:43,43,_ZN12my_container12_GLOBAL__N_128ListTest_CopyAssignment_TestD2Ev
FN:50,50,_ZN12my_container12_GLOBAL__N_128ListTest_MoveAssignment_Test8TestBodyEv
FN:50,50,_ZN12my_container12_GLOBAL__N_128ListTest_MoveAssignment_TestC2Ev
FN:50,50,_ZN12my_container12_GLOBAL__N_128ListTest_MoveAssignment_TestD0Ev
FN:50,50,_ZN12my_container12_GLOBAL__N_128ListTest_MoveAssignment_TestD2Ev
FN:57,57,_ZN12my_container12_GLOBAL__N_123ListTest_FrontBack_Test8TestBodyEv
FN:57,57,_ZN12my_container12_GLOBAL__N_123ListTest_FrontBack_TestC2Ev
FN:57,57,_ZN12my_container12_GLOBAL__N_123ListTest_FrontBack_TestD0Ev
FN:57,57,_ZN12my_container12_GLOBAL__N_123ListTest_FrontBack_TestD2Ev
FN:62,62,_ZN12my_container12_GLOBAL__N_137ListTest_FrontBackThrowWhenEmpty_Test8TestBodyEv
FN:62,62,_ZN12my_container12_GLOBAL__N_137ListTest_FrontBackThrowWhenEmpty_TestC2Ev
FN:62,62,_ZN12my_container12_GLOBAL__N_137ListTest_FrontBackThrowWhenEmpty_TestD0Ev
FN:62,62,_ZN12my_container12_GLOBAL__N_137ListTest_FrontBackThrowWhenEmpty_TestD2Ev
FN:67,76,_ZN12my_container12_GLOBAL__N_123ListTest_Iterators_Test8TestBodyEv
FN:67,76,_ZN12my_container12_GLOBAL__N_123ListTest_Iterators_TestC2Ev
FN:67,76,_ZN12my_container12_GLOBAL__N_123ListTest_Iterators_TestD0Ev
FN:67,76,_ZN12my_container12_GLOBAL__N_123ListTest_Iterators_TestD2Ev
FN:78,78,_ZN12my_container12_GLOBAL__N_128ListTest_ConstIterators_Test8TestBodyEv
FN:78,78,_ZN12my_container12_GLOBAL__N_128ListTest_ConstIterators_TestC2Ev
FN:78,78,_ZN12my_container12_GLOBAL__N_128ListTest_ConstIterators_TestD0Ev
FN:78,78,_ZN12my_container12_GLOBAL__N_128ListTest_ConstIterators_TestD2Ev
FN:87,87,_ZN12my_container12_GLOBAL__N_136ListFrontBackTest_SingleElement_Test8TestBodyEv
FN:87,87,_ZN12my_container12_GLOBAL__N_136ListFrontBackTest_SingleElement_TestC2Ev
FN:87,87,_ZN12my_container12_GLOBAL__N_136ListFrontBackTest_SingleElement_TestD0Ev
FN:87,87,_ZN12my_container12_GLOBAL__N_136ListFrontBackTest_SingleElement_TestD2Ev
FN:97,97,_ZN12my_container12_GLOBAL__N_139ListFrontBackTest_MultipleElements_Test8TestBodyEv
FN:97,97,_ZN12my_container12_GLOBAL__N_139ListFrontBackTest_MultipleElements_TestC2Ev
FN:97,97,_ZN12my_container12_GLOBAL__N_139ListFrontBackTest_MultipleElements_TestD0Ev
FN:97,97,_ZN12my_container12_GLOBAL__N_139ListFrontBackTest_MultipleElements_TestD2Ev
FNDA:1,_ZN12my_container12_GLOBAL__N_141ListFrontBackTest_AfterModifications_Test8TestBodyEv
FNDA:1,_ZN12my_container12_GLOBAL__N_141ListFrontBackTest_AfterModifications_TestC2Ev
FNDA:1,_ZN12my_container12_GLOBAL__N_141ListFrontBackTest_AfterModifications_TestD0Ev
FNDA:1,_ZN12my_container12_GLOBAL__N_141ListFrontBackTest_AfterModifications_TestD2Ev
FNDA:1,_ZN12my_container12_GLOBAL__N_133ListFrontBackTest_StringType_Test8TestBodyEv
FNDA:1,_ZN12my_container12_GLOBAL__N_133ListFrontBackTest_StringType_TestC2Ev
FNDA:1,_ZN12my_container12_GLOBAL__N_133ListFrontBackTest_StringType_TestD0Ev
FNDA:1,_ZN12my_container12_GLOBAL__N_133ListFrontBackTest_StringType_TestD2Ev
FNDA:1,_ZN12my_container12_GLOBAL__N_125ListTest_InsertErase_Test8TestBodyEv
FNDA:1,_ZN12my_container12_GLOBAL__N_125ListTest_InsertErase_TestC2Ev
FNDA:1,_ZN12my_container12_GLOBAL__N_125ListTest_InsertErase_TestD0Ev
FNDA:1,_ZN12my_container12_GLOBAL__N_125ListTest_InsertErase_TestD2Ev
FNDA:1,_ZN12my_container12_GLOBAL__N_120ListTest_Insert_Test8TestBodyEv
FNDA:1,_ZN12my_container12_GLOBAL__N_120ListTest_Insert_TestC2Ev
FNDA:1,_ZN12my_container12_GLOBAL__N_120ListTest_Insert_TestD0Ev
FNDA:1,_ZN12my_container12_GLOBAL__N_120ListTest_Insert_TestD2Ev
FNDA:16,_ZN12my_container12_GLOBAL__N_18ListTestC2Ev
FNDA:1,_ZN12my_container12_GLOBAL__N_120ListTest_Resize_Test8TestBodyEv
FNDA:1,_ZN12my_container12_GLOBAL__N_120ListTest_Resize_TestC2Ev
FNDA:1,_ZN12my_container12_GLOBAL__N_120ListTest_Resize_TestD0Ev
FNDA:1,_ZN12my_container12_GLOBAL__N_120ListTest_Resize_TestD2Ev
FNDA:1,_ZN12my_container12_GLOBAL__N_118ListTest_Swap_Test8TestBodyEv
FNDA:1,_ZN12my_container12_GLOBAL__N_118ListTest_Swap_TestC2Ev
FNDA:1,_ZN12my_container12_GLOBAL__N_118ListTest_Swap_TestD0Ev
FNDA:1,_ZN12my_container12_GLOBAL__N_118ListTest_Swap_TestD2Ev
FNDA:16,_ZN12my_container12_GLOBAL__N_18ListTest5SetUpEv
FNDA:1,_ZN12my_container12_GLOBAL__N_125ListTest_Comparisons_Test8TestBodyEv
FNDA:1,_ZN12my_container12_GLOBAL__N_125ListTest_Comparisons_TestC2Ev
FNDA:1,_ZN12my_container12_GLOBAL__N_125ListTest_Comparisons_TestD0Ev
FNDA:1,_ZN12my_container12_GLOBAL__N_125ListTest_Comparisons_TestD2Ev
FNDA:1,_ZN12my_container12_GLOBAL__N_121ListTest_MaxSize_Test8TestBodyEv
FNDA:1,_ZN12my_container12_GLOBAL__N_121ListTest_MaxSize_TestC2Ev
FNDA:1,_ZN12my_container12_GLOBAL__N_121ListTest_MaxSize_TestD0Ev
FNDA:1,_ZN12my_container12_GLOBAL__N_121ListTest_MaxSize_TestD2Ev
FNDA:1,_ZN12my_container12_GLOBAL__N_132ListTest_DefaultConstructor_Test8TestBodyEv
FNDA:1,_ZN12my_container12_GLOBAL__N_132ListTest_DefaultConstructor_TestC2Ev
FNDA:1,_ZN12my_container12_GLOBAL__N_132ListTest_DefaultConstructor_TestD0Ev
FNDA:1,_ZN12my_container12_GLOBAL__N_132ListTest_DefaultConstructor_TestD2Ev
FNDA:0,_ZN14DummyContainerIiEaSERK9ContainerIiE
FNDA:0,_ZNK14DummyContainerIiEeqERK9ContainerIiE
FNDA:0,_ZNK14DummyContainerIiEneERK9ContainerIiE
FNDA:0,_ZNK14DummyContainerIiE4sizeEv
FNDA:0,_ZNK14DummyContainerIiE8max_sizeEv
FNDA:0,_ZNK14DummyContainerIiE5emptyEv
FNDA:1,_ZN42ListAssignmentTest_AssignBetweenLists_Test8TestBodyEv
FNDA:1,_ZN42ListAssignmentTest_AssignBetweenLists_TestC2Ev
FNDA:1,_ZN42ListAssignmentTest_AssignBetweenLists_TestD0Ev
FNDA:1,_ZN42ListAssignmentTest_AssignBetweenLists_TestD2Ev
FNDA:1,_ZN38ListAssignmentTest_SelfAssignment_Test8TestBodyEv
FNDA:1,_ZN38ListAssignmentTest_SelfAssignment_TestC2Ev
FNDA:1,_ZN38ListAssignmentTest_SelfAssignment_TestD0Ev
FNDA:1,_ZN38ListAssignmentTest_SelfAssignment_TestD2Ev
FNDA:1,_ZN55ListAssignmentTest_AssignFromIncompatibleContainer_Test8TestBodyEv
FNDA:1,_ZN55ListAssignmentTest_AssignFromIncompatibleContainer_TestC2Ev
FNDA:1,_ZN55ListAssignmentTest_AssignFromIncompatibleContainer_TestD0Ev
FNDA:1,_ZN55ListAssignmentTest_AssignFromIncompatibleContainer_TestD2Ev
FNDA:1,_ZN12my_container12_GLOBAL__N_140ListTest_InitializerListConstructor_Test8TestBodyEv
FNDA:1,_ZN12my_container12_GLOBAL__N_140ListTest_InitializerListConstructor_TestC2Ev
FNDA:1,_ZN12my_container12_GLOBAL__N_140ListTest_InitializerListConstructor_TestD0Ev
FNDA:1,_ZN12my_container12_GLOBAL__N_140ListTest_InitializerListConstructor_TestD2Ev
FNDA:1,_ZN44ListAssignmentTest_DeepCopyVerification_Test8TestBodyEv
FNDA:1,_ZN44ListAssignmentTest_DeepCopyVerification_TestC2Ev
FNDA:1,_ZN44ListAssignmentTest_DeepCopyVerification_TestD0Ev
FNDA:1,_ZN44ListAssignmentTest_DeepCopyVerification_TestD2Ev
FNDA:1,_ZN43ListAssignmentTest_EmptyListAssignment_Test8TestBodyEv
FNDA:1,_ZN43ListAssignmentTest_EmptyListAssignment_TestC2Ev
FNDA:1,_ZN43ListAssignmentTest_EmptyListAssignment_TestD0Ev
FNDA:1,_ZN43ListAssignmentTest_EmptyListAssignment_TestD2Ev
FNDA:1,_ZN49ListAssignmentTest_AssignViaContainerPointer_Test8TestBodyEv
FNDA:1,_ZN49ListAssignmentTest_AssignViaContainerPointer_TestC2Ev
FNDA:1,_ZN49ListAssignmentTest_AssignViaContainerPointer_TestD0Ev
FNDA:1,_ZN49ListAssignmentTest_AssignViaContainerPointer_TestD2Ev
FNDA:1,_ZN39ListReverseIteratorsTest_EmptyList_Test8TestBodyEv
FNDA:1,_ZN39ListReverseIteratorsTest_EmptyList_TestC2Ev
FNDA:1,_ZN39ListReverseIteratorsTest_EmptyList_TestD0Ev
FNDA:1,_ZN39ListReverseIteratorsTest_EmptyList_TestD2Ev
FNDA:1,_ZN43ListReverseIteratorsTest_SingleElement_Test8TestBodyEv
FNDA:1,_ZN43ListReverseIteratorsTest_SingleElement_TestC2Ev
FNDA:1,_ZN43ListReverseIteratorsTest_SingleElement_TestD0Ev
FNDA:1,_ZN43ListReverseIteratorsTest_SingleElement_TestD2Ev
FNDA:1,_ZN46ListReverseIteratorsTest_ReverseTraversal_Test8TestBodyEv
FNDA:1,_ZN46ListReverseIteratorsTest_ReverseTraversal_TestC2Ev
FNDA:1,_ZN46ListReverseIteratorsTest_ReverseTraversal_TestD0Ev
FNDA:1,_ZN46ListReverseIteratorsTest_ReverseTraversal_TestD2Ev
FNDA:1,_ZN12my_container12_GLOBAL__N_129ListTest_CopyConstructor_Test8TestBodyEv
FNDA:1,_ZN12my_container12_GLOBAL__N_129ListTest_CopyConstructor_TestC2Ev
FNDA:1,_ZN12my_container12_GLOBAL__N_129ListTest_CopyConstructor_TestD0Ev
FNDA:1,_ZN12my_container12_GLOBAL__N_129ListTest_CopyConstructor_TestD2Ev
FNDA:1,_ZN45ListReverseIteratorsTest_MixedOperations_Test8TestBodyEv
FNDA:1,_ZN45ListReverseIteratorsTest_MixedOperations_TestC2Ev
FNDA:1,_ZN45ListReverseIteratorsTest_MixedOperations_TestD0Ev
FNDA:1,_ZN45ListReverseIteratorsTest_MixedOperations_TestD2Ev
FNDA:1,_ZN12my_container12_GLOBAL__N_129ListTest_MoveConstructor_Test8TestBodyEv
FNDA:1,_ZN12my_container12_GLOBAL__N_129ListTest_MoveConstructor_TestC2Ev
FNDA:1,_ZN12my_container12_GLOBAL__N_129ListTest_MoveConstructor_TestD0Ev
FNDA:1,_ZN12my_container12_GLOBAL__N_129ListTest_MoveConstructor_TestD2Ev
FNDA:1,_ZN12my_container12_GLOBAL__N_128ListTest_CopyAssignment_Test8TestBodyEv
FNDA:1,_ZN12my_container12_GLOBAL__N_128ListTest_CopyAssignment_TestC2Ev
FNDA:1,_ZN12my_container12_GLOBAL__N_128ListTest_CopyAssignment_TestD0Ev
FNDA:1,_ZN12my_container12_GLOBAL__N_128ListTest_CopyAssignment_TestD2Ev
FNDA:1,_ZN12my_container12_GLOBAL__N_128ListTest_MoveAssignment_Test8TestBodyEv
FNDA:1,_ZN12my_container12_GLOBAL__N_128ListTest_MoveAssignment_TestC2Ev
FNDA:1,_ZN12my_container12_GLOBAL__N_128ListTest_MoveAssignment_TestD0Ev
FNDA:1,_ZN12my_container12_GLOBAL__N_128ListTest_MoveAssignment_TestD2Ev
FNDA:1,_ZN12my_container12_GLOBAL__N_123ListTest_FrontBack_Test8TestBodyEv
FNDA:1,_ZN12my_container12_GLOBAL__N_123ListTest_FrontBack_TestC2Ev
FNDA:1,_ZN12my_container12_GLOBAL__N_123ListTest_FrontBack_TestD0Ev
FNDA:1,_ZN12my_container12_GLOBAL__N_123ListTest_FrontBack_TestD2Ev
FNDA:1,_ZN12my_container12_GLOBAL__N_137ListTest_FrontBackThrowWhenEmpty_Test8TestBodyEv
FNDA:1,_ZN12my_container12_GLOBAL__N_137ListTest_FrontBackThrowWhenEmpty_TestC2Ev
FNDA:1,_ZN12my_container12_GLOBAL__N_137ListTest_FrontBackThrowWhenEmpty_TestD0Ev
FNDA:1,_ZN12my_container12_GLOBAL__N_137ListTest_FrontBackThrowWhenEmpty_TestD2Ev
FNDA:1,_ZN12my_container12_GLOBAL__N_123ListTest_Iterators_Test8TestBodyEv
FNDA:1,_ZN12my_container12_GLOBAL__N_123ListTest_Iterators_TestC2Ev
FNDA:1,_ZN12my_container12_GLOBAL__N_123ListTest_Iterators_TestD0Ev
FNDA:1,_ZN12my_container12_GLOBAL__N_123ListTest_Iterators_TestD2Ev
FNDA:1,_ZN12my_container12_GLOBAL__N_128ListTest_ConstIterators_Test8TestBodyEv
FNDA:1,_ZN12my_container12_GLOBAL__N_128ListTest_ConstIterators_TestC2Ev
FNDA:1,_ZN12my_container12_GLOBAL__N_128ListTest_ConstIterators_TestD0Ev
FNDA:1,_ZN12my_container12_GLOBAL__N_128ListTest_ConstIterators_TestD2Ev
FNDA:1,_ZN12my_container12_GLOBAL__N_136ListFrontBackTest_SingleElement_Test8TestBodyEv
FNDA:1,_ZN12my_container12_GLOBAL__N_136ListFrontBackTest_SingleElement_TestC2Ev
FNDA:1,_ZN12my_container12_GLOBAL__N_136ListFrontBackTest_SingleElement_TestD0Ev
FNDA:1,_ZN12my_container12_GLOBAL__N_136ListFrontBackTest_SingleElement_TestD2Ev
FNDA:1,_ZN12my_container12_GLOBAL__N_139ListFrontBackTest_MultipleElements_Test8TestBodyEv
FNDA:1,_ZN12my_container12_GLOBAL__N_139ListFrontBackTest_MultipleElements_TestC2Ev
FNDA:1,_ZN12my_container12_GLOBAL__N_139ListFrontBackTest_MultipleElements_TestD0Ev
FNDA:1,_ZN12my_container12_GLOBAL__N_139ListFrontBackTest_MultipleElements_TestD2Ev
FNF:128
FNH:122
DA:15,16
DA:17,16
DA:20,4
DA:21,1
DA:22,1
DA:23,1
DA:25,4
DA:26,1
DA:27,1
DA:28,1
DA:29,1
DA:31,4
DA:32,1
DA:33,1
DA:34,1
DA:35,1
DA:37,4
DA:38,1
DA:39,1
DA:40,1
DA:41,1
DA:43,4
DA:44,1
DA:45,1
DA:46,1
DA:47,1
DA:48,1
DA:50,4
DA:51,1
DA:52,1
DA:53,1
DA:54,1
DA:55,1
DA:57,4
DA:58,1
DA:59,1
DA:60,1
DA:62,4
DA:63,1
DA:64,1
DA:65,1
DA:67,4
DA:68,1
DA:69,1
DA:70,1
DA:71,1
DA:72,1
DA:73,1
DA:74,1
DA:75,1
DA:76,1
DA:78,4
DA:79,1
DA:80,1
DA:81,4
DA:82,3
DA:84,1
DA:85,1
DA:87,4
DA:88,1
DA:89,1
DA:90,1
DA:92,1
DA:93,1
DA:94,1
DA:95,1
DA:97,4
DA:98,1
DA:100,1
DA:101,1
DA:102,1
DA:103,1
DA:105,4
DA:106,1
DA:107,1
DA:109,1
DA:110,1
DA:112,1
DA:113,1
DA:114,1
DA:115,1
DA:117,1
DA:118,1
DA:119,1
DA:120,1
DA:122,4
DA:123,1
DA:124,2
DA:125,1
DA:127,1
DA:128,1
DA:129,1
DA:131,1
DA:132,1
DA:133,1
DA:135,4
DA:136,1
DA:137,1
DA:138,1
DA:139,1
DA:140,1
DA:142,1
DA:143,1
DA:144,1
DA:145,1
DA:146,1
DA:147,1
DA:149,4
DA:150,1
DA:151,1
DA:152,1
DA:154,1
DA:155,1
DA:156,1
DA:158,4
DA:159,1
DA:160,1
DA:161,1
DA:163,1
DA:164,1
DA:165,1
DA:166,1
DA:168,4
DA:169,1
DA:170,1
DA:171,1
DA:172,1
DA:173,1
DA:174,1
DA:175,1
DA:177,4
DA:178,1
DA:179,1
DA:180,1
DA:182,1
DA:183,1
DA:184,1
DA:185,1
DA:187,4
DA:188,1
DA:189,1
DA:191,1
DA:193,2
DA:194,1
DA:197,1
DA:208,0
DA:210,0
DA:212,0
DA:214,0
DA:216,0
DA:218,0
DA:220,4
DA:221,1
DA:222,1
DA:224,1
DA:226,1
DA:227,1
DA:228,1
DA:229,1
DA:231,4
DA:232,1
DA:233,1
DA:235,1
DA:237,1
DA:238,1
DA:239,1
DA:241,1
DA:243,4
DA:244,1
DA:245,1
DA:247,1
DA:250,1
DA:251,1
DA:253,4
DA:254,1
DA:255,1
DA:257,1
DA:258,1
DA:260,1
DA:261,1
DA:262,1
DA:264,4
DA:265,1
DA:266,2
DA:268,1
DA:270,1
DA:271,1
DA:272,4
DA:274,4
DA:275,1
DA:276,1
DA:277,1
DA:279,1
DA:281,1
DA:282,1
DA:283,1
DA:286,4
DA:287,1
DA:288,1
DA:289,1
DA:290,1
DA:292,4
DA:293,1
DA:294,1
DA:296,1
DA:297,1
DA:298,1
DA:299,1
DA:300,1
DA:302,4
DA:303,1
DA:304,2
DA:306,1
DA:307,6
DA:308,5
DA:310,1
DA:312,1
DA:313,1
DA:314,6
DA:315,5
DA:317,1
DA:318,1
DA:320,4
DA:321,1
DA:323,1
DA:324,1
DA:326,1
DA:327,1
DA:328,1
DA:329,1
LF:230
LH:224
end_of_record
TN:
SF:/usr/include/c++/13/bits/alloc_traits.h
FNF:0
FNH:0
DA:482,796
DA:517,796
DA:540,10
DA:542,10
DA:560,0
DA:562,0
DA:576,1246
DA:588,442
DA:948,13
DA:949,13
LF:10
LH:8
end_of_record
TN:
SF:/usr/include/c++/13/bits/allocator.h
FNF:0
FNH:0
DA:163,334
DA:168,2034
DA:184,777
DA:191,796
DA:193,0
DA:194,0
DA:195,0
DA:198,796
DA:205,796
DA:207,0
DA:208,0
DA:210,796
LF:12
LH:7
end_of_record
TN:
SF:/usr/include/c++/13/bits/basic_string.h
FN:1071,1072,_ZNKSt7__cxx1112basic_stringIcSt11char_traitsIcESaIcEE4sizeEv
FN:1078,1079,_ZNKSt7__cxx1112basic_stringIcSt11char_traitsIcESaIcEE6lengthEv
FN:1084,1085,_ZNKSt7__cxx1112basic_stringIcSt11char_traitsIcESaIcEE8max_sizeEv
FN:1169,1173,_ZNKSt7__cxx1112basic_stringIcSt11char_traitsIcESaIcEE8capacityEv
FN:124,137,_ZNSt7__cxx1112basic_stringIcSt11char_traitsIcESaIcEE11_S_allocateERS3_m
FN:1366,1367,_ZNSt7__cxx1112basic_stringIcSt11char_traitsIcESaIcEEpLERKS4_
FN:1376,1377,_ZNSt7__cxx1112basic_stringIcSt11char_traitsIcESaIcEEpLEPKc
FN:1424,1425,_ZNSt7__cxx1112basic_stringIcSt11char_traitsIcESaIcEE6appendERKS4_
FN:1455,1460,_ZNSt7__cxx1112basic_stringIcSt11char_traitsIcESaIcEE6appendEPKcm
FN:1469,1475,_ZNSt7__cxx1112basic_stringIcSt11char_traitsIcESaIcEE6appendEPKc
FN:1681,1686,_ZNSt7__cxx1112basic_stringIcSt11char_traitsIcESaIcEE6assignEPKc
FN:188,189,_ZNSt7__cxx1112basic_stringIcSt11char_traitsIcESaIcEE12_Alloc_hiderC1EPcRKS3_
FN:192,193,_ZNSt7__cxx1112basic_stringIcSt11char_traitsIcESaIcEE12_Alloc_hiderC1EPcOS3_
FN:2069,2077,_ZNSt7__cxx1112basic_stringIcSt11char_traitsIcESaIcEE5eraseEmm
FN:212,213,_ZNSt7__cxx1112basic_stringIcSt11char_traitsIcESaIcEE7_M_dataEPc
FN:217,218,_ZNSt7__cxx1112basic_stringIcSt11char_traitsIcESaIcEE9_M_lengthEm
FN:2204,2210,_ZNSt7__cxx1112basic_stringIcSt11char_traitsIcESaIcEE7replaceEmmPKcm
FN:222,223,_ZNKSt7__cxx1112basic_stringIcSt11char_traitsIcESaIcEE7_M_dataEv
FN:2230,2234,_ZNSt7__cxx1112basic_stringIcSt11char_traitsIcESaIcEE7replaceEmmPKc
FN:227,234,_ZNSt7__cxx1112basic_stringIcSt11char_traitsIcESaIcEE13_M_local_dataEv
FN:238,245,_ZNKSt7__cxx1112basic_stringIcSt11char_traitsIcESaIcEE13_M_local_dataEv
FN:249,250,_ZNSt7__cxx1112basic_stringIcSt11char_traitsIcESaIcEE11_M_capacityEm
FN:254,258,_ZNSt7__cxx1112basic_stringIcSt11char_traitsIcESaIcEE13_M_set_lengthEm
FN:2595,2596,_ZNKSt7__cxx1112basic_stringIcSt11char_traitsIcESaIcEE5c_strEv
FN:2608,2609,_ZNKSt7__cxx1112basic_stringIcSt11char_traitsIcESaIcEE4dataEv
FN:262,271,_ZNKSt7__cxx1112basic_stringIcSt11char_traitsIcESaIcEE11_M_is_localEv
FN:2695,2699,_ZNKSt7__cxx1112basic_stringIcSt11char_traitsIcESaIcEE4findEPKcm
FN:280,284,_ZNSt7__cxx1112basic_stringIcSt11char_traitsIcESaIcEE10_M_disposeEv
FN:288,289,_ZNSt7__cxx1112basic_stringIcSt11char_traitsIcESaIcEE10_M_destroyEm
FN:336,337,_ZNSt7__cxx1112basic_stringIcSt11char_traitsIcESaIcEE16_M_get_allocatorEv
FN:3383,3394,_ZNKSt7__cxx1112basic_stringIcSt11char_traitsIcESaIcEE7compareEmmPKc
FN:341,342,_ZNKSt7__cxx1112basic_stringIcSt11char_traitsIcESaIcEE16_M_get_allocatorEv
FN:3710,3716,_ZSteqIcSt11char_traitsIcESaIcEEbRKNSt7__cxx1112basic_stringIT_T0_T1_EESA_
FN:3727,3732,_ZSteqIcSt11char_traitsIcESaIcEEbRKNSt7__cxx1112basic_stringIT_T0_T1_EEPKS5_
FN:386,393,_ZNKSt7__cxx1112basic_stringIcSt11char_traitsIcESaIcEE8_M_checkEmPKc
FN:397,401,_ZNKSt7__cxx1112basic_stringIcSt11char_traitsIcESaIcEE15_M_check_lengthEmmPKc
FN:407,411,_ZNKSt7__cxx1112basic_stringIcSt11char_traitsIcESaIcEE8_M_limitEmm
FN:415,419,_ZNKSt7__cxx1112basic_stringIcSt11char_traitsIcESaIcEE11_M_disjunctEPKc
FN:425,431,_ZNSt7__cxx1112basic_stringIcSt11char_traitsIcESaIcEE7_S_copyEPcPKcm
FN:435,441,_ZNSt7__cxx1112basic_stringIcSt11char_traitsIcESaIcEE7_S_moveEPcPKcm
FN:477,478,_ZNSt7__cxx1112basic_stringIcSt11char_traitsIcESaIcEE13_S_copy_charsEPcS5_S5_
FN:482,484,_ZNSt7__cxx1112basic_stringIcSt11char_traitsIcESaIcEE13_S_copy_charsEPcPKcS7_
FN:488,498,_ZNSt7__cxx1112basic_stringIcSt11char_traitsIcESaIcEE10_S_compareEmm
FN:522,528,_ZNSt7__cxx1112basic_stringIcSt11char_traitsIcESaIcEEC1Ev
FN:547,553,_ZNSt7__cxx1112basic_stringIcSt11char_traitsIcESaIcEEC2ERKS4_
FN:641,650,_ZNSt7__cxx1112basic_stringIcSt11char_traitsIcESaIcEEC1IS3_EEPKcRKS3_
FN:677,698,_ZNSt7__cxx1112basic_stringIcSt11char_traitsIcESaIcEEC2EOS4_
FN:803,804,_ZNSt7__cxx1112basic_stringIcSt11char_traitsIcESaIcEED2Ev
FN:823,824,_ZNSt7__cxx1112basic_stringIcSt11char_traitsIcESaIcEEaSEPKc
FNDA:3940,_ZNKSt7__cxx1112basic_stringIcSt11char_traitsIcESaIcEE4sizeEv
FNDA:2778,_ZNKSt7__cxx1112basic_stringIcSt11char_traitsIcESaIcEE6lengthEv
FNDA:1157,_ZNKSt7__cxx1112basic_stringIcSt11char_traitsIcESaIcEE8max_sizeEv
FNDA:2910,_ZNKSt7__cxx1112basic_stringIcSt11char_traitsIcESaIcEE8capacityEv
FNDA:751,_ZNSt7__cxx1112basic_stringIcSt11char_traitsIcESaIcEE11_S_allocateERS3_m
FNDA:0,_ZNSt7__cxx1112basic_stringIcSt11char_traitsIcESaIcEEpLERKS4_
FNDA:0,_ZNSt7__cxx1112basic_stringIcSt11char_traitsIcESaIcEEpLEPKc
FNDA:60,_ZNSt7__cxx1112basic_stringIcSt11char_traitsIcESaIcEE6appendERKS4_
FNDA:180,_ZNSt7__cxx1112basic_stringIcSt11char_traitsIcESaIcEE6appendEPKcm
FNDA:54,_ZNSt7__cxx1112basic_stringIcSt11char_traitsIcESaIcEE6appendEPKc
FNDA:2,_ZNSt7__cxx1112basic_stringIcSt11char_traitsIcESaIcEE6assignEPKc
FNDA:496,_ZNSt7__cxx1112basic_stringIcSt11char_traitsIcESaIcEE12_Alloc_hiderC1EPcRKS3_
FNDA:1094,_ZNSt7__cxx1112basic_stringIcSt11char_traitsIcESaIcEE12_Alloc_hiderC1EPcOS3_
FNDA:0,_ZNSt7__cxx1112basic_stringIcSt11char_traitsIcESaIcEE5eraseEmm
FNDA:1294,_ZNSt7__cxx1112basic_stringIcSt11char_traitsIcESaIcEE7_M_dataEPc
FNDA:4599,_ZNSt7__cxx1112basic_stringIcSt11char_traitsIcESaIcEE9_M_lengthEm
FNDA:0,_ZNSt7__cxx1112basic_stringIcSt11char_traitsIcESaIcEE7replaceEmmPKcm
FNDA:18211,_ZNKSt7__cxx1112basic_stringIcSt11char_traitsIcESaIcEE7_M_dataEv
FNDA:0,_ZNSt7__cxx1112basic_stringIcSt11char_traitsIcESaIcEE7replaceEmmPKc
FNDA:1890,_ZNSt7__cxx1112basic_stringIcSt11char_traitsIcESaIcEE13_M_local_dataEv
FNDA:5299,_ZNKSt7__cxx1112basic_stringIcSt11char_traitsIcESaIcEE13_M_local_dataEv
FNDA:936,_ZNSt7__cxx1112basic_stringIcSt11char_traitsIcESaIcEE11_M_capacityEm
FNDA:4183,_ZNSt7__cxx1112basic_stringIcSt11char_traitsIcESaIcEE13_M_set_lengthEm
FNDA:2727,_ZNKSt7__cxx1112basic_stringIcSt11char_traitsIcESaIcEE5c_strEv
FNDA:6,_ZNKSt7__cxx1112basic_stringIcSt11char_traitsIcESaIcEE4dataEv
FNDA:5299,_ZNKSt7__cxx1112basic_stringIcSt11char_traitsIcESaIcEE11_M_is_localEv
FNDA:0,_ZNKSt7__cxx1112basic_stringIcSt11char_traitsIcESaIcEE4findEPKcm
FNDA:1973,_ZNSt7__cxx1112basic_stringIcSt11char_traitsIcESaIcEE10_M_disposeEv
FNDA:751,_ZNSt7__cxx1112basic_stringIcSt11char_traitsIcESaIcEE10_M_destroyEm
FNDA:1918,_ZNSt7__cxx1112basic_stringIcSt11char_traitsIcESaIcEE16_M_get_allocatorEv
FNDA:0,_ZNKSt7__cxx1112basic_stringIcSt11char_traitsIcESaIcEE7compareEmmPKc
FNDA:1659,_ZNKSt7__cxx1112basic_stringIcSt11char_traitsIcESaIcEE16_M_get_allocatorEv
FNDA:0,_ZSteqIcSt11char_traitsIcESaIcEEbRKNSt7__cxx1112basic_stringIT_T0_T1_EESA_
FNDA:12,_ZSteqIcSt11char_traitsIcESaIcEEbRKNSt7__cxx1112basic_stringIT_T0_T1_EEPKS5_
FNDA:48,_ZNKSt7__cxx1112basic_stringIcSt11char_traitsIcESaIcEE8_M_checkEmPKc
FNDA:294,_ZNKSt7__cxx1112basic_stringIcSt11char_traitsIcESaIcEE15_M_check_lengthEmmPKc
FNDA:24,_ZNKSt7__cxx1112basic_stringIcSt11char_traitsIcESaIcEE8_M_limitEmm
FNDA:60,_ZNKSt7__cxx1112basic_stringIcSt11char_traitsIcESaIcEE11_M_disjunctEPKc
FNDA:1618,_ZNSt7__cxx1112basic_stringIcSt11char_traitsIcESaIcEE7_S_copyEPcPKcm
FNDA:0,_ZNSt7__cxx1112basic_stringIcSt11char_traitsIcESaIcEE7_S_moveEPcPKcm
FNDA:442,_ZNSt7__cxx1112basic_stringIcSt11char_traitsIcESaIcEE13_S_copy_charsEPcS5_S5_
FNDA:460,_ZNSt7__cxx1112basic_stringIcSt11char_traitsIcESaIcEE13_S_copy_charsEPcPKcS7_
FNDA:0,_ZNSt7__cxx1112basic_stringIcSt11char_traitsIcESaIcEE10_S_compareEmm
FNDA:328,_ZNSt7__cxx1112basic_stringIcSt11char_traitsIcESaIcEEC1Ev
FNDA:442,_ZNSt7__cxx1112basic_stringIcSt11char_traitsIcESaIcEEC2ERKS4_
FNDA:376,_ZNSt7__cxx1112basic_stringIcSt11char_traitsIcESaIcEEC1IS3_EEPKcRKS3_
FNDA:300,_ZNSt7__cxx1112basic_stringIcSt11char_traitsIcESaIcEEC2EOS4_
FNDA:1732,_ZNSt7__cxx1112basic_stringIcSt11char_traitsIcESaIcEED2Ev
FNDA:2,_ZNSt7__cxx1112basic_stringIcSt11char_traitsIcESaIcEEaSEPKc
FNF:49
FNH:39
DA:124,751
DA:126,751
DA:136,751
DA:188,496
DA:189,496
DA:192,1094
DA:193,1094
DA:212,1294
DA:213,1294
DA:217,4599
DA:218,4599
DA:222,18211
DA:223,18211
DA:227,1890
DA:230,1890
DA:238,5299
DA:241,5299
DA:249,936
DA:250,936
DA:254,4183
DA:256,4183
DA:257,4183
DA:258,4183
DA:262,5299
DA:264,5299
DA:266,2317
DA:267,0
DA:268,2317
DA:270,2982
DA:280,1973
DA:282,1973
DA:283,751
DA:284,1973
DA:288,751
DA:289,751
DA:336,1918
DA:337,1918
DA:341,1659
DA:342,1659
DA:351,1155
DA:352,0
DA:353,0
DA:355,1155
DA:365,300
DA:386,48
DA:388,48
DA:389,0
DA:392,48
DA:397,294
DA:399,294
DA:400,0
DA:401,294
DA:407,24
DA:409,24
DA:410,24
DA:415,60
DA:417,60
DA:418,60
DA:425,1618
DA:427,1618
DA:428,317
DA:430,1301
DA:431,1618
DA:435,0
DA:437,0
DA:438,0
DA:440,0
DA:441,0
DA:477,442
DA:478,442
DA:482,460
DA:484,460
DA:488,0
DA:490,0
DA:492,0
DA:493,0
DA:494,0
DA:495,0
DA:497,0
DA:522,328
DA:524,984
DA:527,328
DA:528,328
DA:547,442
DA:548,442
DA:549,442
DA:551,442
DA:553,442
DA:641,376
DA:642,376
DA:645,376
DA:646,0
DA:648,376
DA:649,376
DA:650,376
DA:677,300
DA:678,300
DA:680,300
DA:683,173
DA:684,173
DA:688,127
DA:689,127
DA:695,300
DA:696,300
DA:697,300
DA:698,300
DA:803,1732
DA:804,1732
DA:823,2
DA:824,2
DA:1071,3940
DA:1072,3940
DA:1078,2778
DA:1079,2778
DA:1084,1157
DA:1085,2314
DA:1169,2910
DA:1171,2910
DA:1172,2910
DA:1366,0
DA:1367,0
DA:1376,0
DA:1377,0
DA:1424,60
DA:1425,60
DA:1455,180
DA:1458,180
DA:1459,180
DA:1469,54
DA:1472,54
DA:1473,54
DA:1474,54
DA:1681,2
DA:1684,2
DA:1685,2
DA:2069,0
DA:2071,0
DA:2072,0
DA:2073,0
DA:2074,0
DA:2075,0
DA:2076,0
DA:2204,0
DA:2208,0
DA:2209,0
DA:2230,0
DA:2233,0
DA:2595,2727
DA:2596,2727
DA:2608,6
DA:2609,6
DA:2695,0
DA:2698,0
DA:3383,0
DA:3386,0
DA:3387,0
DA:3388,0
DA:3389,0
DA:3390,0
DA:3391,0
DA:3392,0
DA:3393,0
DA:3710,0
DA:3714,0
DA:3715,0
DA:3727,12
DA:3730,12
DA:3731,12
LF:168
LH:120
end_of_record
TN:
SF:/usr/include/c++/13/bits/basic_string.tcc
FN:138,160,_ZNSt7__cxx1112basic_stringIcSt11char_traitsIcESaIcEE9_M_createERmm
FN:221,252,_ZNSt7__cxx1112basic_stringIcSt11char_traitsIcESaIcEE12_M_constructIPKcEEvT_S8_St20forward_iterator_tag
FN:221,252,_ZNSt7__cxx1112basic_stringIcSt11char_traitsIcESaIcEE12_M_constructIPcEEvT_S7_St20forward_iterator_tag
FN:239,239,_ZZNSt7__cxx1112basic_stringIcSt11char_traitsIcESaIcEE12_M_constructIPKcEEvT_S8_St20forward_iterator_tagEN6_GuardC2EPS4_
FN:239,239,_ZZNSt7__cxx1112basic_stringIcSt11char_traitsIcESaIcEE12_M_constructIPcEEvT_S7_St20forward_iterator_tagEN6_GuardC2EPS4_
FN:242,242,_ZZNSt7__cxx1112basic_stringIcSt11char_traitsIcESaIcEE12_M_constructIPKcEEvT_S8_St20forward_iterator_tagEN6_GuardD2Ev
FN:242,242,_ZZNSt7__cxx1112basic_stringIcSt11char_traitsIcESaIcEE12_M_constructIPcEEvT_S7_St20forward_iterator_tagEN6_GuardD2Ev
FN:325,345,_ZNSt7__cxx1112basic_stringIcSt11char_traitsIcESaIcEE9_M_mutateEmmPKcm
FN:350,359,_ZNSt7__cxx1112basic_stringIcSt11char_traitsIcESaIcEE8_M_eraseEmm
FN:413,428,_ZNSt7__cxx1112basic_stringIcSt11char_traitsIcESaIcEE9_M_appendEPKcm
FN:511,552,_ZNSt7__cxx1112basic_stringIcSt11char_traitsIcESaIcEE10_M_replaceEmmPKcm
FN:618,650,_ZNKSt7__cxx1112basic_stringIcSt11char_traitsIcESaIcEE4findEPKcmm
FNDA:751,_ZNSt7__cxx1112basic_stringIcSt11char_traitsIcESaIcEE9_M_createERmm
FNDA:400,_ZNSt7__cxx1112basic_stringIcSt11char_traitsIcESaIcEE12_M_constructIPKcEEvT_S8_St20forward_iterator_tag
FNDA:442,_ZNSt7__cxx1112basic_stringIcSt11char_traitsIcESaIcEE12_M_constructIPcEEvT_S7_St20forward_iterator_tag
FNDA:400,_ZZNSt7__cxx1112basic_stringIcSt11char_traitsIcESaIcEE12_M_constructIPKcEEvT_S8_St20forward_iterator_tagEN6_GuardC2EPS4_
FNDA:442,_ZZNSt7__cxx1112basic_stringIcSt11char_traitsIcESaIcEE12_M_constructIPcEEvT_S7_St20forward_iterator_tagEN6_GuardC2EPS4_
FNDA:400,_ZZNSt7__cxx1112basic_stringIcSt11char_traitsIcESaIcEE12_M_constructIPKcEEvT_S8_St20forward_iterator_tagEN6_GuardD2Ev
FNDA:442,_ZZNSt7__cxx1112basic_stringIcSt11char_traitsIcESaIcEE12_M_constructIPcEEvT_S7_St20forward_iterator_tagEN6_GuardD2Ev
FNDA:63,_ZNSt7__cxx1112basic_stringIcSt11char_traitsIcESaIcEE9_M_mutateEmmPKcm
FNDA:0,_ZNSt7__cxx1112basic_stringIcSt11char_traitsIcESaIcEE8_M_eraseEmm
FNDA:234,_ZNSt7__cxx1112basic_stringIcSt11char_traitsIcESaIcEE9_M_appendEPKcm
FNDA:60,_ZNSt7__cxx1112basic_stringIcSt11char_traitsIcESaIcEE10_M_replaceEmmPKcm
FNDA:0,_ZNKSt7__cxx1112basic_stringIcSt11char_traitsIcESaIcEE4findEPKcmm
FNF:12
FNH:10
DA:138,751
DA:143,751
DA:144,0
DA:149,751
DA:151,112
DA:153,112
DA:154,0
DA:159,751
DA:221,842
DA:225,842
DA:227,842
DA:229,488
DA:230,488
DA:239,842
DA:242,842
DA:245,842
DA:247,842
DA:249,842
DA:251,842
DA:252,842
DA:325,63
DA:329,63
DA:331,63
DA:332,63
DA:334,63
DA:335,63
DA:336,63
DA:337,63
DA:338,63
DA:339,0
DA:340,0
DA:342,63
DA:343,63
DA:344,63
DA:345,63
DA:350,0
DA:353,0
DA:355,0
DA:356,0
DA:358,0
DA:359,0
DA:413,234
DA:416,234
DA:418,234
DA:420,171
DA:421,171
DA:424,63
DA:426,234
DA:427,234
DA:511,60
DA:515,60
DA:517,60
DA:518,60
DA:520,60
DA:522,60
DA:524,60
DA:526,60
DA:528,0
DA:529,0
DA:530,0
DA:531,0
DA:532,0
DA:533,0
DA:537,60
DA:539,60
DA:540,0
DA:541,60
DA:542,60
DA:545,0
DA:548,0
DA:550,60
DA:551,60
DA:618,0
DA:623,0
DA:625,0
DA:626,0
DA:627,0
DA:628,0
DA:630,0
DA:631,0
DA:632,0
DA:633,0
DA:634,0
DA:636,0
DA:639,0
DA:640,0
DA:641,0
DA:645,0
DA:646,0
DA:647,0
DA:649,0
LF:91
LH:53
end_of_record
TN:
SF:/usr/include/c++/13/bits/char_traits.h
FN:136,137,_ZN9__gnu_cxx11char_traitsIcE2eqERKcS3_
FN:199,206,_ZN9__gnu_cxx11char_traitsIcE6lengthEPKc
FN:210,217,_ZN9__gnu_cxx11char_traitsIcE4findEPKcmRS2_
FN:222,248,_ZN9__gnu_cxx11char_traitsIcE4moveEPcPKcm
FN:253,268,_ZN9__gnu_cxx11char_traitsIcE4copyEPcPKcm
FN:351,359,_ZNSt11char_traitsIcE6assignERcRKc
FN:366,371,_ZNSt11char_traitsIcE2ltERKcS2_
FN:374,390,_ZNSt11char_traitsIcE7compareEPKcS2_m
FN:393,400,_ZNSt11char_traitsIcE6lengthEPKc
FN:403,412,_ZNSt11char_traitsIcE4findEPKcmRS1_
FN:415,424,_ZNSt11char_traitsIcE4moveEPcPKcm
FN:427,436,_ZNSt11char_traitsIcE4copyEPcPKcm
FNDA:0,_ZN9__gnu_cxx11char_traitsIcE2eqERKcS3_
FNDA:0,_ZN9__gnu_cxx11char_traitsIcE6lengthEPKc
FNDA:0,_ZN9__gnu_cxx11char_traitsIcE4findEPKcmRS2_
FNDA:0,_ZN9__gnu_cxx11char_traitsIcE4moveEPcPKcm
FNDA:0,_ZN9__gnu_cxx11char_traitsIcE4copyEPcPKcm
FNDA:6434,_ZNSt11char_traitsIcE6assignERcRKc
FNDA:0,_ZNSt11char_traitsIcE2ltERKcS2_
FNDA:6,_ZNSt11char_traitsIcE7compareEPKcS2_m
FNDA:504,_ZNSt11char_traitsIcE6lengthEPKc
FNDA:24,_ZNSt11char_traitsIcE4findEPKcmRS1_
FNDA:0,_ZNSt11char_traitsIcE4moveEPcPKcm
FNDA:1532,_ZNSt11char_traitsIcE4copyEPcPKcm
FNF:12
FNH:5
DA:136,0
DA:137,0
DA:199,0
DA:202,0
DA:203,0
DA:204,0
DA:205,0
DA:210,0
DA:213,0
DA:214,0
DA:215,0
DA:216,0
DA:222,0
DA:225,0
DA:226,0
DA:228,0
DA:242,0
DA:243,0
DA:246,0
DA:247,0
DA:253,0
DA:256,0
DA:257,0
DA:259,0
DA:261,0
DA:262,0
DA:263,0
DA:266,0
DA:267,0
DA:351,6434
DA:354,6434
DA:355,0
DA:358,6434
DA:359,6434
DA:366,0
DA:369,0
DA:370,0
DA:374,6
DA:376,6
DA:377,0
DA:379,6
DA:381,0
DA:382,0
DA:383,0
DA:384,0
DA:385,0
DA:386,0
DA:389,6
DA:393,504
DA:396,504
DA:397,0
DA:399,504
DA:403,24
DA:405,24
DA:406,0
DA:408,24
DA:409,0
DA:411,24
DA:415,0
DA:417,0
DA:418,0
DA:420,0
DA:421,0
DA:423,0
DA:427,1532
DA:429,1532
DA:430,24
DA:432,1508
DA:433,0
DA:435,1508
LF:70
LH:20
end_of_record
TN:
SF:/usr/include/c++/13/bits/cpp_type_traits.h
FN:607,608,_ZSt12__miter_baseIPKiET_S2_
FNDA:2,_ZSt12__miter_baseIPKiET_S2_
FNF:1
FNH:1
DA:607,2
DA:608,2
LF:2
LH:2
end_of_record
TN:
SF:/usr/include/c++/13/bits/ios_base.h
FN:732,733,_ZNKSt8ios_base9precisionEv
FN:741,746,_ZNSt8ios_base9precisionEl
FNDA:0,_ZNKSt8ios_base9precisionEv
FNDA:0,_ZNSt8ios_base9precisionEl
FNF:2
FNH:0
DA:732,0
DA:733,0
DA:741,0
DA:743,0
DA:744,0
DA:745,0
LF:6
LH:0
end_of_record
TN:
SF:/usr/include/c++/13/bits/move.h
FN:138,139,_ZSt9addressofIKN12my_container4ListIiE8iteratorEEPT_RS5_
FN:138,139,_ZSt9addressofIKSt16reverse_iteratorIN12my_container4ListINSt7__cxx1112basic_stringIcSt11char_traitsIcESaIcEEEE8iteratorEEEPT_RSD_
FN:138,139,_ZSt9addressofIKSt16reverse_iteratorIN12my_container4ListIiE14const_iteratorEEEPT_RS7_
FN:138,139,_ZSt9addressofIKcEPT_RS1_
FN:138,139,_ZSt9addressofIcEPT_RS0_
FN:189,200,_ZSt4swapIPN12my_container4ListIiE4NodeEENSt9enable_ifIXsrSt6__and_IJSt6__not_ISt15__is_tuple_likeIT_EESt21is_move_constructibleIS9_ESt18is_move_assignableIS9_EEE5valueEvE4typeERS9_SJ_
FN:189,200,_ZSt4swapImENSt9enable_ifIXsrSt6__and_IJSt6__not_ISt15__is_tuple_likeIT_EESt21is_move_constructibleIS4_ESt18is_move_assignableIS4_EEE5valueEvE4typeERS4_SE_
FN:51,52,_ZSt11__addressofIKN12my_container4ListIiE8iteratorEEPT_RS5_
FN:51,52,_ZSt11__addressofIKSt16reverse_iteratorIN12my_container4ListINSt7__cxx1112basic_stringIcSt11char_traitsIcESaIcEEEE8iteratorEEEPT_RSD_
FN:51,52,_ZSt11__addressofIKSt16reverse_iteratorIN12my_container4ListIiE14const_iteratorEEEPT_RS7_
FN:51,52,_ZSt11__addressofIKcEPT_RS1_
FN:51,52,_ZSt11__addressofIcEPT_RS0_
FN:51,52,_ZSt11__addressofIiEPT_RS0_
FN:70,71,_ZSt7forwardIRKcEOT_RNSt16remove_referenceIS2_E4typeE
FN:70,71,_ZSt7forwardIRKiEOT_RNSt16remove_referenceIS2_E4typeE
FN:70,71,_ZSt7forwardISt14default_deleteINSt7__cxx1112basic_stringIcSt11char_traitsIcESaIcEEEEEOT_RNSt16remove_referenceIS8_E4typeE
FN:70,71,_ZSt7forwardIiEOT_RNSt16remove_referenceIS0_E4typeE
FN:97,98,_ZSt4moveIRN12my_container4ListIiEEEONSt16remove_referenceIT_E4typeEOS5_
FN:97,98,_ZSt4moveIRNSt7__cxx1112basic_stringIcSt11char_traitsIcESaIcEEEEONSt16remove_referenceIT_E4typeEOS8_
FN:97,98,_ZSt4moveIRPN12my_container4ListIiE4NodeEEONSt16remove_referenceIT_E4typeEOS7_
FN:97,98,_ZSt4moveIRPNSt7__cxx1112basic_stringIcSt11char_traitsIcESaIcEEEEONSt16remove_referenceIT_E4typeEOS9_
FN:97,98,_ZSt4moveIRPNSt7__cxx1118basic_stringstreamIcSt11char_traitsIcESaIcEEEEONSt16remove_referenceIT_E4typeEOS9_
FN:97,98,_ZSt4moveIRSaIcEEONSt16remove_referenceIT_E4typeEOS3_
FN:97,98,_ZSt4moveIRdEONSt16remove_referenceIT_E4typeEOS2_
FN:97,98,_ZSt4moveIRiEONSt16remove_referenceIT_E4typeEOS2_
FN:97,98,_ZSt4moveIRmEONSt16remove_referenceIT_E4typeEOS2_
FNDA:0,_ZSt9addressofIKN12my_container4ListIiE8iteratorEEPT_RS5_
FNDA:0,_ZSt9addressofIKSt16reverse_iteratorIN12my_container4ListINSt7__cxx1112basic_stringIcSt11char_traitsIcESaIcEEEE8iteratorEEEPT_RSD_
FNDA:0,_ZSt9addressofIKSt16reverse_iteratorIN12my_container4ListIiE14const_iteratorEEEPT_RS7_
FNDA:5299,_ZSt9addressofIKcEPT_RS1_
FNDA:1890,_ZSt9addressofIcEPT_RS0_
FNDA:1,_ZSt4swapIPN12my_container4ListIiE4NodeEENSt9enable_ifIXsrSt6__and_IJSt6__not_ISt15__is_tuple_likeIT_EESt21is_move_constructibleIS9_ESt18is_move_assignableIS9_EEE5valueEvE4typeERS9_SJ_
FNDA:1,_ZSt4swapImENSt9enable_ifIXsrSt6__and_IJSt6__not_ISt15__is_tuple_likeIT_EESt21is_move_constructibleIS4_ESt18is_move_assignableIS4_EEE5valueEvE4typeERS4_SE_
FNDA:0,_ZSt11__addressofIKN12my_container4ListIiE8iteratorEEPT_RS5_
FNDA:0,_ZSt11__addressofIKSt16reverse_iteratorIN12my_container4ListINSt7__cxx1112basic_stringIcSt11char_traitsIcESaIcEEEE8iteratorEEEPT_RSD_
FNDA:0,_ZSt11__addressofIKSt16reverse_iteratorIN12my_container4ListIiE14const_iteratorEEEPT_RS7_
FNDA:5299,_ZSt11__addressofIKcEPT_RS1_
FNDA:1890,_ZSt11__addressofIcEPT_RS0_
FNDA:0,_ZSt11__addressofIiEPT_RS0_
FNDA:0,_ZSt7forwardIRKcEOT_RNSt16remove_referenceIS2_E4typeE
FNDA:28,_ZSt7forwardIRKiEOT_RNSt16remove_referenceIS2_E4typeE
FNDA:0,_ZSt7forwardISt14default_deleteINSt7__cxx1112basic_stringIcSt11char_traitsIcESaIcEEEEEOT_RNSt16remove_referenceIS8_E4typeE
FNDA:240,_ZSt7forwardIiEOT_RNSt16remove_referenceIS0_E4typeE
FNDA:2,_ZSt4moveIRN12my_container4ListIiEEEONSt16remove_referenceIT_E4typeEOS5_
FNDA:254,_ZSt4moveIRNSt7__cxx1112basic_stringIcSt11char_traitsIcESaIcEEEEONSt16remove_referenceIT_E4typeEOS8_
FNDA:3,_ZSt4moveIRPN12my_container4ListIiE4NodeEEONSt16remove_referenceIT_E4typeEOS7_
FNDA:0,_ZSt4moveIRPNSt7__cxx1112basic_stringIcSt11char_traitsIcESaIcEEEEONSt16remove_referenceIT_E4typeEOS9_
FNDA:138,_ZSt4moveIRPNSt7__cxx1118basic_stringstreamIcSt11char_traitsIcESaIcEEEEONSt16remove_referenceIT_E4typeEOS9_
FNDA:1394,_ZSt4moveIRSaIcEEONSt16remove_referenceIT_E4typeEOS3_
FNDA:6,_ZSt4moveIRdEONSt16remove_referenceIT_E4typeEOS2_
FNDA:75,_ZSt4moveIRiEONSt16remove_referenceIT_E4typeEOS2_
FNDA:3,_ZSt4moveIRmEONSt16remove_referenceIT_E4typeEOS2_
FNF:26
FNH:16
DA:51,7189
DA:52,7189
DA:70,268
DA:71,268
DA:97,1875
DA:98,1875
DA:138,7189
DA:139,7189
DA:189,2
DA:197,2
DA:198,2
DA:199,2
DA:200,2
LF:13
LH:13
end_of_record
TN:
SF:/usr/include/c++/13/bits/new_allocator.h
FN:126,152,_ZNSt15__new_allocatorIcE8allocateEmPKv
FN:126,152,_ZNSt15__new_allocatorIiE8allocateEmPKv
FN:156,173,_ZNSt15__new_allocatorIcE10deallocateEPcm
FN:156,173,_ZNSt15__new_allocatorIiE10deallocateEPim
FNDA:751,_ZNSt15__new_allocatorIcE8allocateEmPKv
FNDA:45,_ZNSt15__new_allocatorIiE8allocateEmPKv
FNDA:751,_ZNSt15__new_allocatorIcE10deallocateEPcm
FNDA:45,_ZNSt15__new_allocatorIiE10deallocateEPim
FNF:4
FNH:4
DA:88,334
DA:92,2034
DA:126,796
DA:134,796
DA:138,0
DA:139,0
DA:140,0
DA:151,796
DA:156,796
DA:172,796
DA:233,796
LF:11
LH:8
end_of_record
TN:
SF:/usr/include/c++/13/bits/ptr_traits.h
FN:141,142,_ZNSt19__ptr_traits_ptr_toIPKcS0_Lb0EE10pointer_toERS0_
FN:141,142,_ZNSt19__ptr_traits_ptr_toIPccLb0EE10pointer_toERc
FNDA:5299,_ZNSt19__ptr_traits_ptr_toIPKcS0_Lb0EE10pointer_toERS0_
FNDA:1890,_ZNSt19__ptr_traits_ptr_toIPccLb0EE10pointer_toERc
FNF:2
FNH:2
DA:141,7189
DA:142,7189
LF:2
LH:2
end_of_record
TN:
SF:/usr/include/c++/13/bits/stl_algobase.h
FN:1167,1173,_ZNSt7__equalILb0EE5equalIN12my_container4ListINSt7__cxx1112basic_stringIcSt11char_traitsIcESaIcEEEE14const_iteratorESB_EEbT_SC_T0_
FN:1167,1173,_ZNSt7__equalILb0EE5equalIN12my_container4ListIdE14const_iteratorES5_EEbT_S6_T0_
FN:1167,1173,_ZNSt7__equalILb0EE5equalIN12my_container4ListIiE14const_iteratorES5_EEbT_S6_T0_
FN:1167,1173,_ZNSt7__equalILb0EE5equalIN12my_container4ListIiE8iteratorES5_EEbT_S6_T0_
FN:1182,1187,_ZNSt7__equalILb1EE5equalIiEEbPKT_S4_S4_
FN:1213,1220,_ZSt12__equal_aux1IN12my_container4ListINSt7__cxx1112basic_stringIcSt11char_traitsIcESaIcEEEE14const_iteratorES9_EbT_SA_T0_
FN:1213,1220,_ZSt12__equal_aux1IN12my_container4ListIdE14const_iteratorES3_EbT_S4_T0_
FN:1213,1220,_ZSt12__equal_aux1IN12my_container4ListIiE14const_iteratorES3_EbT_S4_T0_
FN:1213,1220,_ZSt12__equal_aux1IN12my_container4ListIiE8iteratorES3_EbT_S4_T0_
FN:1213,1220,_ZSt12__equal_aux1IPKiS1_EbT_S2_T0_
FN:1225,1230,_ZSt11__equal_auxIN12my_container4ListINSt7__cxx1112basic_stringIcSt11char_traitsIcESaIcEEEE14const_iteratorES9_EbT_SA_T0_
FN:1225,1230,_ZSt11__equal_auxIN12my_container4ListIdE14const_iteratorES3_EbT_S4_T0_
FN:1225,1230,_ZSt11__equal_auxIN12my_container4ListIiE14const_iteratorES3_EbT_S4_T0_
FN:1225,1230,_ZSt11__equal_auxIN12my_container4ListIiE8iteratorES3_EbT_S4_T0_
FN:1225,1230,_ZSt11__equal_auxIN9__gnu_cxx17__normal_iteratorIPKiSt6vectorIiSaIiEEEES7_EbT_S8_T0_
FN:1547,1558,_ZSt5equalIN12my_container4ListINSt7__cxx1112basic_stringIcSt11char_traitsIcESaIcEEEE14const_iteratorES9_EbT_SA_T0_
FN:1547,1558,_ZSt5equalIN12my_container4ListIdE14const_iteratorES3_EbT_S4_T0_
FN:1547,1558,_ZSt5equalIN12my_container4ListIiE14const_iteratorES3_EbT_S4_T0_
FN:1547,1558,_ZSt5equalIN12my_container4ListIiE8iteratorES3_EbT_S4_T0_
FN:1547,1558,_ZSt5equalIN9__gnu_cxx17__normal_iteratorIPKiSt6vectorIiSaIiEEEES7_EbT_S8_T0_
FN:1821,1865,_ZSt33lexicographical_compare_three_wayIN12my_container4ListIiE8iteratorES3_St17compare_three_wayEDTclfp3_defp_defp1_EET_S6_T0_S7_T1_
FN:1869,1877,_ZSt33lexicographical_compare_three_wayIN12my_container4ListIiE8iteratorES3_EDaT_S4_T0_S5_
FN:233,241,_ZSt3minImERKT_S2_S2_
FN:257,265,_ZSt3maxImERKT_S2_S2_
FN:316,318,_ZSt12__niter_baseIN12my_container4ListINSt7__cxx1112basic_stringIcSt11char_traitsIcESaIcEEEE14const_iteratorEET_SA_
FN:316,318,_ZSt12__niter_baseIN12my_container4ListIdE14const_iteratorEET_S4_
FN:316,318,_ZSt12__niter_baseIN12my_container4ListIiE14const_iteratorEET_S4_
FN:316,318,_ZSt12__niter_baseIN12my_container4ListIiE8iteratorEET_S4_
FN:316,318,_ZSt12__niter_baseIPKiET_S2_
FN:316,318,_ZSt12__niter_baseIPiET_S1_
FN:338,339,_ZSt12__niter_wrapIPiET_RKS1_S1_
FN:383,393,_ZNSt11__copy_moveILb0ELb0ESt26random_access_iterator_tagE8__copy_mIPKiPiEET0_T_S7_S6_
FN:397,398,_ZNSt11__copy_moveILb0ELb0ESt26random_access_iterator_tagE12__assign_oneIiKiEEvPT_PT0_
FN:433,442,_ZNSt11__copy_moveILb0ELb1ESt26random_access_iterator_tagE8__copy_mIKiiEEPT0_PT_S7_S5_
FN:497,507,_ZSt14__copy_move_a2ILb0EPKiPiET1_T0_S4_S3_
FN:532,533,_ZSt14__copy_move_a1ILb0EPKiPiET1_T0_S4_S3_
FN:538,544,_ZSt13__copy_move_aILb0EPKiPiET1_T0_S4_S3_
FN:624,634,_ZSt4copyIPKiPiET0_T_S4_S3_
FN:93,109,_ZSt8__memcmpIiiEiPKT_PKT0_m
FNDA:0,_ZNSt7__equalILb0EE5equalIN12my_container4ListINSt7__cxx1112basic_stringIcSt11char_traitsIcESaIcEEEE14const_iteratorESB_EEbT_SC_T0_
FNDA:0,_ZNSt7__equalILb0EE5equalIN12my_container4ListIdE14const_iteratorES5_EEbT_S6_T0_
FNDA:0,_ZNSt7__equalILb0EE5equalIN12my_container4ListIiE14const_iteratorES5_EEbT_S6_T0_
FNDA:2,_ZNSt7__equalILb0EE5equalIN12my_container4ListIiE8iteratorES5_EEbT_S6_T0_
FNDA:2,_ZNSt7__equalILb1EE5equalIiEEbPKT_S4_S4_
FNDA:0,_ZSt12__equal_aux1IN12my_container4ListINSt7__cxx1112basic_stringIcSt11char_traitsIcESaIcEEEE14const_iteratorES9_EbT_SA_T0_
FNDA:0,_ZSt12__equal_aux1IN12my_container4ListIdE14const_iteratorES3_EbT_S4_T0_
FNDA:0,_ZSt12__equal_aux1IN12my_container4ListIiE14const_iteratorES3_EbT_S4_T0_
FNDA:2,_ZSt12__equal_aux1IN12my_container4ListIiE8iteratorES3_EbT_S4_T0_
FNDA:2,_ZSt12__equal_aux1IPKiS1_EbT_S2_T0_
FNDA:0,_ZSt11__equal_auxIN12my_container4ListINSt7__cxx1112basic_stringIcSt11char_traitsIcESaIcEEEE14const_iteratorES9_EbT_SA_T0_
FNDA:0,_ZSt11__equal_auxIN12my_container4ListIdE14const_iteratorES3_EbT_S4_T0_
FNDA:0,_ZSt11__equal_auxIN12my_container4ListIiE14const_iteratorES3_EbT_S4_T0_
FNDA:2,_ZSt11__equal_auxIN12my_container4ListIiE8iteratorES3_EbT_S4_T0_
FNDA:2,_ZSt11__equal_auxIN9__gnu_cxx17__normal_iteratorIPKiSt6vectorIiSaIiEEEES7_EbT_S8_T0_
FNDA:0,_ZSt5equalIN12my_container4ListINSt7__cxx1112basic_stringIcSt11char_traitsIcESaIcEEEE14const_iteratorES9_EbT_SA_T0_
FNDA:0,_ZSt5equalIN12my_container4ListIdE14const_iteratorES3_EbT_S4_T0_
FNDA:0,_ZSt5equalIN12my_container4ListIiE14const_iteratorES3_EbT_S4_T0_
FNDA:2,_ZSt5equalIN12my_container4ListIiE8iteratorES3_EbT_S4_T0_
FNDA:2,_ZSt5equalIN9__gnu_cxx17__normal_iteratorIPKiSt6vectorIiSaIiEEEES7_EbT_S8_T0_
FNDA:8,_ZSt33lexicographical_compare_three_wayIN12my_container4ListIiE8iteratorES3_St17compare_three_wayEDTclfp3_defp_defp1_EET_S6_T0_S7_T1_
FNDA:8,_ZSt33lexicographical_compare_three_wayIN12my_container4ListIiE8iteratorES3_EDaT_S4_T0_S5_
FNDA:233,_ZSt3minImERKT_S2_S2_
FNDA:110,_ZSt3maxImERKT_S2_S2_
FNDA:0,_ZSt12__niter_baseIN12my_container4ListINSt7__cxx1112basic_stringIcSt11char_traitsIcESaIcEEEE14const_iteratorEET_SA_
FNDA:0,_ZSt12__niter_baseIN12my_container4ListIdE14const_iteratorEET_S4_
FNDA:0,_ZSt12__niter_baseIN12my_container4ListIiE14const_iteratorEET_S4_
FNDA:6,_ZSt12__niter_baseIN12my_container4ListIiE8iteratorEET_S4_
FNDA:2,_ZSt12__niter_baseIPKiET_S2_
FNDA:265,_ZSt12__niter_baseIPiET_S1_
FNDA:1,_ZSt12__niter_wrapIPiET_RKS1_S1_
FNDA:0,_ZNSt11__copy_moveILb0ELb0ESt26random_access_iterator_tagE8__copy_mIPKiPiEET0_T_S7_S6_
FNDA:0,_ZNSt11__copy_moveILb0ELb0ESt26random_access_iterator_tagE12__assign_oneIiKiEEvPT_PT0_
FNDA:1,_ZNSt11__copy_moveILb0ELb1ESt26random_access_iterator_tagE8__copy_mIKiiEEPT0_PT_S7_S5_
FNDA:1,_ZSt14__copy_move_a2ILb0EPKiPiET1_T0_S4_S3_
FNDA:1,_ZSt14__copy_move_a1ILb0EPKiPiET1_T0_S4_S3_
FNDA:1,_ZSt13__copy_move_aILb0EPKiPiET1_T0_S4_S3_
FNDA:1,_ZSt4copyIPKiPiET0_T_S4_S3_
FNDA:2,_ZSt8__memcmpIiiEiPKT_PKT0_m
FNF:39
FNH:22
DA:93,2
DA:99,2
DA:101,0
DA:102,0
DA:103,0
DA:104,0
DA:108,2
DA:233,233
DA:238,233
DA:239,0
DA:240,233
DA:257,110
DA:262,110
DA:263,40
DA:264,70
DA:316,273
DA:318,273
DA:338,1
DA:339,1
DA:383,0
DA:386,0
DA:388,0
DA:389,0
DA:390,0
DA:392,0
DA:397,0
DA:398,0
DA:433,1
DA:435,1
DA:436,1
DA:437,1
DA:438,0
DA:440,0
DA:441,1
DA:497,1
DA:501,1
DA:503,0
DA:506,1
DA:532,1
DA:533,1
DA:538,1
DA:540,1
DA:543,1
DA:624,1
DA:633,1
DA:1167,2
DA:1169,8
DA:1170,6
DA:1171,0
DA:1172,2
DA:1182,2
DA:1184,2
DA:1185,2
DA:1186,0
DA:1213,4
DA:1216,4
DA:1219,4
DA:1225,4
DA:1227,4
DA:1229,4
DA:1547,4
DA:1557,4
DA:1821,8
DA:1837,8
DA:1855,32
DA:1857,25
DA:1858,1
DA:1859,24
DA:1860,0
DA:1861,24
DA:1862,24
DA:1864,7
DA:1869,8
DA:1875,8
DA:1876,8
LF:75
LH:56
end_of_record
TN:
SF:/usr/include/c++/13/bits/stl_construct.h
FN:109,120,_ZSt10_ConstructIiJRKiEEvPT_DpOT0_
FN:146,153,_ZSt8_DestroyIiEvPT_
FN:160,164,_ZNSt12_Destroy_auxILb0EE9__destroyIPiEEvT_S3_
FN:172,172,_ZNSt12_Destroy_auxILb1EE9__destroyIPiEEvT_S3_
FN:182,197,_ZSt8_DestroyIPiEvT_S1_
FN:80,89,_ZSt10destroy_atIiEvPT_
FN:94,97,_ZSt12construct_atIcJRKcEEDTgsnwcvPvLi0E_T_pispcl7declvalIT0_EEEEPS3_DpOS4_
FN:94,97,_ZSt12construct_atIiJRKiEEDTgsnwcvPvLi0E_T_pispcl7declvalIT0_EEEEPS3_DpOS4_
FN:94,97,_ZSt12construct_atIiJiEEDTgsnwcvPvLi0E_T_pispcl7declvalIT0_EEEEPS1_DpOS2_
FNDA:0,_ZSt10_ConstructIiJRKiEEvPT_DpOT0_
FNDA:0,_ZSt8_DestroyIiEvPT_
FNDA:0,_ZNSt12_Destroy_auxILb0EE9__destroyIPiEEvT_S3_
FNDA:13,_ZNSt12_Destroy_auxILb1EE9__destroyIPiEEvT_S3_
FNDA:13,_ZSt8_DestroyIPiEvT_S1_
FNDA:0,_ZSt10destroy_atIiEvPT_
FNDA:0,_ZSt12construct_atIcJRKcEEDTgsnwcvPvLi0E_T_pispcl7declvalIT0_EEEEPS3_DpOS4_
FNDA:10,_ZSt12construct_atIiJRKiEEDTgsnwcvPvLi0E_T_pispcl7declvalIT0_EEEEPS3_DpOS4_
FNDA:68,_ZSt12construct_atIiJiEEDTgsnwcvPvLi0E_T_pispcl7declvalIT0_EEEEPS1_DpOS2_
FNF:9
FNH:4
DA:80,0
DA:88,0
DA:89,0
DA:94,78
DA:97,78
DA:109,0
DA:112,0
DA:115,0
DA:116,0
DA:119,0
DA:146,0
DA:149,0
DA:153,0
DA:160,0
DA:162,0
DA:163,0
DA:164,0
DA:172,13
DA:182,13
DA:192,13
DA:193,0
DA:196,13
LF:22
LH:6
end_of_record
TN:
SF:/usr/include/c++/13/bits/stl_function.h
FN:451,458,_ZNKSt4lessIPKcEclES1_S1_
FNDA:60,_ZNKSt4lessIPKcEclES1_S1_
FNF:1
FNH:1
DA:451,60
DA:454,60
DA:455,0
DA:457,60
LF:4
LH:3
end_of_record
TN:
SF:/usr/include/c++/13/bits/stl_iterator.h
FN:1076,1077,_ZN9__gnu_cxx17__normal_iteratorIPKiSt6vectorIiSaIiEEEC2ERKS2_
FN:1076,1077,_ZN9__gnu_cxx17__normal_iteratorIPiSt6vectorIiSaIiEEEC2ERKS1_
FN:1076,1077,_ZN9__gnu_cxx17__normal_iteratorIPivEC2ERKS1_
FN:1099,1100,_ZNK9__gnu_cxx17__normal_iteratorIPKiSt6vectorIiSaIiEEEdeEv
FN:1099,1100,_ZNK9__gnu_cxx17__normal_iteratorIPivEdeEv
FN:1109,1113,_ZN9__gnu_cxx17__normal_iteratorIPKiSt6vectorIiSaIiEEEppEv
FN:1109,1113,_ZN9__gnu_cxx17__normal_iteratorIPivEppEv
FN:1162,1163,_ZNK9__gnu_cxx17__normal_iteratorIPKiSt6vectorIiSaIiEEE4baseEv
FN:1162,1163,_ZNK9__gnu_cxx17__normal_iteratorIPiSt6vectorIiSaIiEEE4baseEv
FN:1162,1163,_ZNK9__gnu_cxx17__normal_iteratorIPivE4baseEv
FN:1197,1203,_ZN9__gnu_cxxeqIPKiSt6vectorIiSaIiEEEEbRKNS_17__normal_iteratorIT_T0_EESB_
FN:1334,1337,_ZN9__gnu_cxxmiIPiSt6vectorIiSaIiEEEENS_17__normal_iteratorIT_T0_E15difference_typeERKS8_SB_
FN:1357,1359,_ZSt12__niter_baseIPKiSt6vectorIiSaIiEEET_N9__gnu_cxx17__normal_iteratorIS5_T0_EE
FN:195,198,_ZNSt16reverse_iteratorIN12my_container4ListINSt7__cxx1112basic_stringIcSt11char_traitsIcESaIcEEEE8iteratorEEC2ES9_
FN:195,198,_ZNSt16reverse_iteratorIN12my_container4ListIiE14const_iteratorEEC2ES3_
FN:195,198,_ZNSt16reverse_iteratorIN12my_container4ListIiE8iteratorEEC2ES3_
FN:204,207,_ZNSt16reverse_iteratorIN12my_container4ListIiE8iteratorEEC2ERKS4_
FN:248,250,_ZNKSt16reverse_iteratorIN12my_container4ListINSt7__cxx1112basic_stringIcSt11char_traitsIcESaIcEEEE8iteratorEE4baseEv
FN:248,250,_ZNKSt16reverse_iteratorIN12my_container4ListIiE14const_iteratorEE4baseEv
FN:248,250,_ZNKSt16reverse_iteratorIN12my_container4ListIiE8iteratorEE4baseEv
FN:264,268,_ZNKSt16reverse_iteratorIN12my_container4ListINSt7__cxx1112basic_stringIcSt11char_traitsIcESaIcEEEE8iteratorEEdeEv
FN:264,268,_ZNKSt16reverse_iteratorIN12my_container4ListIiE14const_iteratorEEdeEv
FN:264,268,_ZNKSt16reverse_iteratorIN12my_container4ListIiE8iteratorEEdeEv
FN:296,300,_ZNSt16reverse_iteratorIN12my_container4ListINSt7__cxx1112basic_stringIcSt11char_traitsIcESaIcEEEE8iteratorEEppEv
FN:296,300,_ZNSt16reverse_iteratorIN12my_container4ListIiE14const_iteratorEEppEv
FN:296,300,_ZNSt16reverse_iteratorIN12my_container4ListIiE8iteratorEEppEv
FN:308,313,_ZNSt16reverse_iteratorIN12my_container4ListIiE8iteratorEEppEi
FN:593,596,_ZSteqIN12my_container4ListINSt7__cxx1112basic_stringIcSt11char_traitsIcESaIcEEEE8iteratorEEbRKSt16reverse_iteratorIT_ESE_
FN:593,596,_ZSteqIN12my_container4ListIiE14const_iteratorEEbRKSt16reverse_iteratorIT_ES8_
FN:593,596,_ZSteqIN12my_container4ListIiE8iteratorEEbRKSt16reverse_iteratorIT_ES8_
FNDA:6,_ZN9__gnu_cxx17__normal_iteratorIPKiSt6vectorIiSaIiEEEC2ERKS2_
FNDA:224,_ZN9__gnu_cxx17__normal_iteratorIPiSt6vectorIiSaIiEEEC2ERKS1_
FNDA:0,_ZN9__gnu_cxx17__normal_iteratorIPivEC2ERKS1_
FNDA:0,_ZNK9__gnu_cxx17__normal_iteratorIPKiSt6vectorIiSaIiEEEdeEv
FNDA:0,_ZNK9__gnu_cxx17__normal_iteratorIPivEdeEv
FNDA:0,_ZN9__gnu_cxx17__normal_iteratorIPKiSt6vectorIiSaIiEEEppEv
FNDA:0,_ZN9__gnu_cxx17__normal_iteratorIPivEppEv
FNDA:6,_ZNK9__gnu_cxx17__normal_iteratorIPKiSt6vectorIiSaIiEEE4baseEv
FNDA:176,_ZNK9__gnu_cxx17__normal_iteratorIPiSt6vectorIiSaIiEEE4baseEv
FNDA:0,_ZNK9__gnu_cxx17__normal_iteratorIPivE4baseEv
FNDA:0,_ZN9__gnu_cxxeqIPKiSt6vectorIiSaIiEEEEbRKNS_17__normal_iteratorIT_T0_EESB_
FNDA:44,_ZN9__gnu_cxxmiIPiSt6vectorIiSaIiEEEENS_17__normal_iteratorIT_T0_E15difference_typeERKS8_SB_
FNDA:6,_ZSt12__niter_baseIPKiSt6vectorIiSaIiEEET_N9__gnu_cxx17__normal_iteratorIS5_T0_EE
FNDA:3,_ZNSt16reverse_iteratorIN12my_container4ListINSt7__cxx1112basic_stringIcSt11char_traitsIcESaIcEEEE8iteratorEEC2ES9_
FNDA:11,_ZNSt16reverse_iteratorIN12my_container4ListIiE14const_iteratorEEC2ES3_
FNDA:8,_ZNSt16reverse_iteratorIN12my_container4ListIiE8iteratorEEC2ES3_
FNDA:1,_ZNSt16reverse_iteratorIN12my_container4ListIiE8iteratorEEC2ERKS4_
FNDA:4,_ZNKSt16reverse_iteratorIN12my_container4ListINSt7__cxx1112basic_stringIcSt11char_traitsIcESaIcEEEE8iteratorEE4baseEv
FNDA:16,_ZNKSt16reverse_iteratorIN12my_container4ListIiE14const_iteratorEE4baseEv
FNDA:13,_ZNKSt16reverse_iteratorIN12my_container4ListIiE8iteratorEE4baseEv
FNDA:1,_ZNKSt16reverse_iteratorIN12my_container4ListINSt7__cxx1112basic_stringIcSt11char_traitsIcESaIcEEEE8iteratorEEdeEv
FNDA:5,_ZNKSt16reverse_iteratorIN12my_container4ListIiE14const_iteratorEEdeEv
FNDA:7,_ZNKSt16reverse_iteratorIN12my_container4ListIiE8iteratorEEdeEv
FNDA:1,_ZNSt16reverse_iteratorIN12my_container4ListINSt7__cxx1112basic_stringIcSt11char_traitsIcESaIcEEEE8iteratorEEppEv
FNDA:5,_ZNSt16reverse_iteratorIN12my_container4ListIiE14const_iteratorEEppEv
FNDA:5,_ZNSt16reverse_iteratorIN12my_container4ListIiE8iteratorEEppEv
FNDA:1,_ZNSt16reverse_iteratorIN12my_container4ListIiE8iteratorEEppEi
FNDA:2,_ZSteqIN12my_container4ListINSt7__cxx1112basic_stringIcSt11char_traitsIcESaIcEEEE8iteratorEEbRKSt16reverse_iteratorIT_ESE_
FNDA:8,_ZSteqIN12my_container4ListIiE14const_iteratorEEbRKSt16reverse_iteratorIT_ES8_
FNDA:6,_ZSteqIN12my_container4ListIiE8iteratorEEbRKSt16reverse_iteratorIT_ES8_
FNF:30
FNH:23
DA:195,22
DA:197,22
DA:198,22
DA:204,1
DA:206,1
DA:207,1
DA:248,33
DA:250,33
DA:264,13
DA:266,13
DA:267,13
DA:296,11
DA:298,11
DA:299,11
DA:308,1
DA:310,1
DA:311,1
DA:312,1
DA:593,16
DA:596,16
DA:1076,230
DA:1077,230
DA:1099,0
DA:1100,0
DA:1109,0
DA:1111,0
DA:1112,0
DA:1162,182
DA:1163,182
DA:1197,0
DA:1203,0
DA:1334,44
DA:1337,44
DA:1357,6
DA:1359,6
LF:35
LH:28
end_of_record
TN:
SF:/usr/include/c++/13/bits/stl_iterator_base_funcs.h
FNF:0
FNH:0
DA:106,843
DA:151,1686
DA:152,1686
LF:3
LH:3
end_of_record
TN:
SF:/usr/include/c++/13/bits/stl_iterator_base_types.h
FNF:0
FNH:0
DA:240,843
LF:1
LH:1
end_of_record
TN:
SF:/usr/include/c++/13/bits/stl_uninitialized.h
FN:1069,1079,_ZSt19__relocate_object_aIiiSaIiEEvPT_PT0_RT1_
FN:1091,1108,_ZSt14__relocate_a_1IPiN9__gnu_cxx17__normal_iteratorIS0_vEESaIiEET0_T_S6_S5_RT1_
FN:1114,1134,_ZSt14__relocate_a_1IiiENSt9enable_ifIXsrSt24__is_bitwise_relocatableIT_vE5valueEPS2_E4typeES4_S4_S4_RSaIT0_E
FN:113,128,_ZSt16__do_uninit_copyIPKiPiET0_T_S4_S3_
FN:1141,1150,_ZSt12__relocate_aIPiS0_SaIiEET0_T_S3_S2_RT1_
FN:145,147,_ZNSt20__uninitialized_copyILb1EE13__uninit_copyIPKiPiEET0_T_S6_S5_
FN:163,186,_ZSt18uninitialized_copyIPKiPiET0_T_S4_S3_
FN:366,374,_ZSt22__uninitialized_copy_aIPKiPiiET0_T_S4_S3_RSaIT1_E
FNDA:0,_ZSt19__relocate_object_aIiiSaIiEEvPT_PT0_RT1_
FNDA:0,_ZSt14__relocate_a_1IPiN9__gnu_cxx17__normal_iteratorIS0_vEESaIiEET0_T_S6_S5_RT1_
FNDA:88,_ZSt14__relocate_a_1IiiENSt9enable_ifIXsrSt24__is_bitwise_relocatableIT_vE5valueEPS2_E4typeES4_S4_S4_RSaIT0_E
FNDA:0,_ZSt16__do_uninit_copyIPKiPiET0_T_S4_S3_
FNDA:88,_ZSt12__relocate_aIPiS0_SaIiEET0_T_S3_S2_RT1_
FNDA:1,_ZNSt20__uninitialized_copyILb1EE13__uninit_copyIPKiPiEET0_T_S6_S5_
FNDA:1,_ZSt18uninitialized_copyIPKiPiET0_T_S4_S3_
FNDA:1,_ZSt22__uninitialized_copy_aIPKiPiiET0_T_S4_S3_RSaIT1_E
FNF:8
FNH:5
DA:113,0
DA:116,0
DA:119,0
DA:120,0
DA:121,0
DA:145,1
DA:147,1
DA:163,1
DA:174,1
DA:181,1
DA:185,1
DA:366,1
DA:370,1
DA:371,0
DA:373,1
DA:1069,0
DA:1077,0
DA:1078,0
DA:1079,0
DA:1091,0
DA:1103,0
DA:1104,0
DA:1105,0
DA:1107,0
DA:1114,88
DA:1118,88
DA:1119,88
DA:1122,32
DA:1126,0
DA:1127,0
DA:1128,0
DA:1131,32
DA:1133,88
DA:1141,88
DA:1147,88
DA:1149,88
LF:36
LH:18
end_of_record
TN:
SF:/usr/include/c++/13/bits/stl_vector.h
FN:1281,1293,_ZNSt6vectorIiSaIiEE9push_backERKi
FN:146,148,_ZNSt12_Vector_baseIiSaIiEE12_Vector_implC1ERKS0_
FN:1687,1698,_ZNSt6vectorIiSaIiEE19_M_range_initializeIPKiEEvT_S5_St20forward_iterator_tag
FN:1896,1903,_ZNKSt6vectorIiSaIiEE12_M_check_lenEmPKc
FN:1907,1913,_ZNSt6vectorIiSaIiEE17_S_check_init_lenEmRKS0_
FN:1916,1925,_ZNSt6vectorIiSaIiEE11_S_max_sizeERKS0_
FN:2040,2042,_ZSteqIiSaIiEEbRKSt6vectorIT_T0_ES6_
FN:301,302,_ZNSt12_Vector_baseIiSaIiEE19_M_get_Tp_allocatorEv
FN:306,307,_ZNKSt12_Vector_baseIiSaIiEE19_M_get_Tp_allocatorEv
FN:321,322,_ZNSt12_Vector_baseIiSaIiEEC2ERKS0_
FN:367,371,_ZNSt12_Vector_baseIiSaIiEED2Ev
FN:378,382,_ZNSt12_Vector_baseIiSaIiEE11_M_allocateEm
FN:386,391,_ZNSt12_Vector_baseIiSaIiEE13_M_deallocateEPim
FN:504,514,_ZNSt6vectorIiSaIiEE11_S_relocateEPiS2_S2_RS0_
FN:678,684,_ZNSt6vectorIiSaIiEEC1ESt16initializer_listIiERKS0_
FN:733,738,_ZNSt6vectorIiSaIiEED2Ev
FN:873,874,_ZNSt6vectorIiSaIiEE5beginEv
FN:883,884,_ZNKSt6vectorIiSaIiEE5beginEv
FN:893,894,_ZNSt6vectorIiSaIiEE3endEv
FN:903,904,_ZNKSt6vectorIiSaIiEE3endEv
FN:99,101,_ZNSt12_Vector_baseIiSaIiEE17_Vector_impl_dataC2Ev
FN:992,993,_ZNKSt6vectorIiSaIiEE4sizeEv
FN:998,999,_ZNKSt6vectorIiSaIiEE8max_sizeEv
FNDA:10,_ZNSt6vectorIiSaIiEE9push_backERKi
FNDA:1,_ZNSt12_Vector_baseIiSaIiEE12_Vector_implC1ERKS0_
FNDA:1,_ZNSt6vectorIiSaIiEE19_M_range_initializeIPKiEEvT_S5_St20forward_iterator_tag
FNDA:44,_ZNKSt6vectorIiSaIiEE12_M_check_lenEmPKc
FNDA:1,_ZNSt6vectorIiSaIiEE17_S_check_init_lenEmRKS0_
FNDA:89,_ZNSt6vectorIiSaIiEE11_S_max_sizeERKS0_
FNDA:2,_ZSteqIiSaIiEEbRKSt6vectorIT_T0_ES6_
FNDA:103,_ZNSt12_Vector_baseIiSaIiEE19_M_get_Tp_allocatorEv
FNDA:88,_ZNKSt12_Vector_baseIiSaIiEE19_M_get_Tp_allocatorEv
FNDA:1,_ZNSt12_Vector_baseIiSaIiEEC2ERKS0_
FNDA:13,_ZNSt12_Vector_baseIiSaIiEED2Ev
FNDA:45,_ZNSt12_Vector_baseIiSaIiEE11_M_allocateEm
FNDA:57,_ZNSt12_Vector_baseIiSaIiEE13_M_deallocateEPim
FNDA:88,_ZNSt6vectorIiSaIiEE11_S_relocateEPiS2_S2_RS0_
FNDA:1,_ZNSt6vectorIiSaIiEEC1ESt16initializer_listIiERKS0_
FNDA:13,_ZNSt6vectorIiSaIiEED2Ev
FNDA:44,_ZNSt6vectorIiSaIiEE5beginEv
FNDA:4,_ZNKSt6vectorIiSaIiEE5beginEv
FNDA:112,_ZNSt6vectorIiSaIiEE3endEv
FNDA:2,_ZNKSt6vectorIiSaIiEE3endEv
FNDA:11,_ZNSt12_Vector_baseIiSaIiEE17_Vector_impl_dataC2Ev
FNDA:316,_ZNKSt6vectorIiSaIiEE4sizeEv
FNDA:88,_ZNKSt6vectorIiSaIiEE8max_sizeEv
FNF:23
FNH:23
DA:99,11
DA:100,11
DA:101,11
DA:146,1
DA:147,1
DA:148,1
DA:301,103
DA:302,103
DA:306,88
DA:307,88
DA:321,1
DA:322,1
DA:367,13
DA:369,13
DA:370,13
DA:371,13
DA:378,45
DA:381,90
DA:386,57
DA:389,57
DA:390,45
DA:391,57
DA:504,88
DA:509,88
DA:678,1
DA:680,1
DA:682,1
DA:683,1
DA:684,1
DA:733,13
DA:735,13
DA:736,13
DA:738,13
DA:873,44
DA:874,44
DA:883,4
DA:884,4
DA:893,112
DA:894,112
DA:903,2
DA:904,2
DA:992,316
DA:993,316
DA:998,88
DA:999,88
DA:1281,10
DA:1283,10
DA:1286,2
DA:1288,2
DA:1292,8
DA:1293,10
DA:1687,1
DA:1690,1
DA:1692,1
DA:1693,1
DA:1694,1
DA:1695,1
DA:1697,1
DA:1698,1
DA:1896,44
DA:1898,44
DA:1899,0
DA:1901,44
DA:1902,44
DA:1907,1
DA:1909,1
DA:1910,0
DA:1912,1
DA:1916,89
DA:1921,89
DA:1923,89
DA:1924,89
DA:2040,2
DA:2041,2
DA:2042,2
LF:75
LH:73
end_of_record
TN:
SF:/usr/include/c++/13/bits/unique_ptr.h
FN:1069,1070,_ZSt11make_uniqueINSt7__cxx1112basic_stringIcSt11char_traitsIcESaIcEEEJEENSt8__detail9_MakeUniqIT_E15__single_objectEDpOT0_
FN:174,174,_ZNSt15__uniq_ptr_implINSt7__cxx1112basic_stringIcSt11char_traitsIcESaIcEEESt14default_deleteIS5_EEC2Ev
FN:176,176,_ZNSt15__uniq_ptr_implINSt7__cxx1112basic_stringIcSt11char_traitsIcESaIcEEESt14default_deleteIS5_EEC2EPS5_
FN:189,194,_ZNSt15__uniq_ptr_implINSt7__cxx1112basic_stringIcSt11char_traitsIcESaIcEEESt14default_deleteIS5_EEaSEOS8_
FN:197,197,_ZNSt15__uniq_ptr_implINSt7__cxx1112basic_stringIcSt11char_traitsIcESaIcEEESt14default_deleteIS5_EE6_M_ptrEv
FN:197,197,_ZNSt15__uniq_ptr_implINSt7__cxx1118basic_stringstreamIcSt11char_traitsIcESaIcEEESt14default_deleteIS5_EE6_M_ptrEv
FN:199,199,_ZNKSt15__uniq_ptr_implINSt7__cxx1112basic_stringIcSt11char_traitsIcESaIcEEESt14default_deleteIS5_EE6_M_ptrEv
FN:199,199,_ZNKSt15__uniq_ptr_implINSt7__cxx1118basic_stringstreamIcSt11char_traitsIcESaIcEEESt14default_deleteIS5_EE6_M_ptrEv
FN:201,201,_ZNSt15__uniq_ptr_implINSt7__cxx1112basic_stringIcSt11char_traitsIcESaIcEEESt14default_deleteIS5_EE10_M_deleterEv
FN:201,201,_ZNSt15__uniq_ptr_implINSt7__cxx1118basic_stringstreamIcSt11char_traitsIcESaIcEEESt14default_deleteIS5_EE10_M_deleterEv
FN:206,212,_ZNSt15__uniq_ptr_implINSt7__cxx1112basic_stringIcSt11char_traitsIcESaIcEEESt14default_deleteIS5_EE5resetEPS5_
FN:215,220,_ZNSt15__uniq_ptr_implINSt7__cxx1112basic_stringIcSt11char_traitsIcESaIcEEESt14default_deleteIS5_EE7releaseEv
FN:243,243,_ZNSt15__uniq_ptr_dataINSt7__cxx1112basic_stringIcSt11char_traitsIcESaIcEEESt14default_deleteIS5_ELb1ELb1EEaSEOS8_
FN:304,306,_ZNSt10unique_ptrINSt7__cxx1112basic_stringIcSt11char_traitsIcESaIcEEESt14default_deleteIS5_EEC2IS7_vEEv
FN:317,319,_ZNSt10unique_ptrINSt7__cxx1112basic_stringIcSt11char_traitsIcESaIcEEESt14default_deleteIS5_EEC2IS7_vEEPS5_
FN:398,406,_ZNSt10unique_ptrINSt7__cxx1112basic_stringIcSt11char_traitsIcESaIcEEESt14default_deleteIS5_EED2Ev
FN:398,406,_ZNSt10unique_ptrINSt7__cxx1118basic_stringstreamIcSt11char_traitsIcESaIcEEESt14default_deleteIS5_EED2Ev
FN:414,414,_ZNSt10unique_ptrINSt7__cxx1112basic_stringIcSt11char_traitsIcESaIcEEESt14default_deleteIS5_EEaSEOS8_
FN:451,455,_ZNKSt10unique_ptrINSt7__cxx1118basic_stringstreamIcSt11char_traitsIcESaIcEEESt14default_deleteIS5_EEdeEv
FN:460,464,_ZNKSt10unique_ptrINSt7__cxx1112basic_stringIcSt11char_traitsIcESaIcEEESt14default_deleteIS5_EEptEv
FN:469,470,_ZNKSt10unique_ptrINSt7__cxx1112basic_stringIcSt11char_traitsIcESaIcEEESt14default_deleteIS5_EE3getEv
FN:469,470,_ZNKSt10unique_ptrINSt7__cxx1118basic_stringstreamIcSt11char_traitsIcESaIcEEESt14default_deleteIS5_EE3getEv
FN:475,476,_ZNSt10unique_ptrINSt7__cxx1112basic_stringIcSt11char_traitsIcESaIcEEESt14default_deleteIS5_EE11get_deleterEv
FN:475,476,_ZNSt10unique_ptrINSt7__cxx1118basic_stringstreamIcSt11char_traitsIcESaIcEEESt14default_deleteIS5_EE11get_deleterEv
FN:486,487,_ZNKSt10unique_ptrINSt7__cxx1112basic_stringIcSt11char_traitsIcESaIcEEESt14default_deleteIS5_EEcvbEv
FN:837,838,_ZSteqINSt7__cxx1112basic_stringIcSt11char_traitsIcESaIcEEESt14default_deleteIS5_EEbRKSt10unique_ptrIT_T0_EDn
FN:93,100,_ZNKSt14default_deleteINSt7__cxx1112basic_stringIcSt11char_traitsIcESaIcEEEEclEPS5_
FN:93,100,_ZNKSt14default_deleteINSt7__cxx1118basic_stringstreamIcSt11char_traitsIcESaIcEEEEclEPS5_
FNDA:0,_ZSt11make_uniqueINSt7__cxx1112basic_stringIcSt11char_traitsIcESaIcEEEJEENSt8__detail9_MakeUniqIT_E15__single_objectEDpOT0_
FNDA:75,_ZNSt15__uniq_ptr_implINSt7__cxx1112basic_stringIcSt11char_traitsIcESaIcEEESt14default_deleteIS5_EEC2Ev
FNDA:0,_ZNSt15__uniq_ptr_implINSt7__cxx1112basic_stringIcSt11char_traitsIcESaIcEEESt14default_deleteIS5_EEC2EPS5_
FNDA:0,_ZNSt15__uniq_ptr_implINSt7__cxx1112basic_stringIcSt11char_traitsIcESaIcEEESt14default_deleteIS5_EEaSEOS8_
FNDA:75,_ZNSt15__uniq_ptr_implINSt7__cxx1112basic_stringIcSt11char_traitsIcESaIcEEESt14default_deleteIS5_EE6_M_ptrEv
FNDA:276,_ZNSt15__uniq_ptr_implINSt7__cxx1118basic_stringstreamIcSt11char_traitsIcESaIcEEESt14default_deleteIS5_EE6_M_ptrEv
FNDA:0,_ZNKSt15__uniq_ptr_implINSt7__cxx1112basic_stringIcSt11char_traitsIcESaIcEEESt14default_deleteIS5_EE6_M_ptrEv
FNDA:1242,_ZNKSt15__uniq_ptr_implINSt7__cxx1118basic_stringstreamIcSt11char_traitsIcESaIcEEESt14default_deleteIS5_EE6_M_ptrEv
FNDA:0,_ZNSt15__uniq_ptr_implINSt7__cxx1112basic_stringIcSt11char_traitsIcESaIcEEESt14default_deleteIS5_EE10_M_deleterEv
FNDA:138,_ZNSt15__uniq_ptr_implINSt7__cxx1118basic_stringstreamIcSt11char_traitsIcESaIcEEESt14default_deleteIS5_EE10_M_deleterEv
FNDA:0,_ZNSt15__uniq_ptr_implINSt7__cxx1112basic_stringIcSt11char_traitsIcESaIcEEESt14default_deleteIS5_EE5resetEPS5_
FNDA:0,_ZNSt15__uniq_ptr_implINSt7__cxx1112basic_stringIcSt11char_traitsIcESaIcEEESt14default_deleteIS5_EE7releaseEv
FNDA:0,_ZNSt15__uniq_ptr_dataINSt7__cxx1112basic_stringIcSt11char_traitsIcESaIcEEESt14default_deleteIS5_ELb1ELb1EEaSEOS8_
FNDA:75,_ZNSt10unique_ptrINSt7__cxx1112basic_stringIcSt11char_traitsIcESaIcEEESt14default_deleteIS5_EEC2IS7_vEEv
FNDA:0,_ZNSt10unique_ptrINSt7__cxx1112basic_stringIcSt11char_traitsIcESaIcEEESt14default_deleteIS5_EEC2IS7_vEEPS5_
FNDA:75,_ZNSt10unique_ptrINSt7__cxx1112basic_stringIcSt11char_traitsIcESaIcEEESt14default_deleteIS5_EED2Ev
FNDA:138,_ZNSt10unique_ptrINSt7__cxx1118basic_stringstreamIcSt11char_traitsIcESaIcEEESt14default_deleteIS5_EED2Ev
FNDA:0,_ZNSt10unique_ptrINSt7__cxx1112basic_stringIcSt11char_traitsIcESaIcEEESt14default_deleteIS5_EEaSEOS8_
FNDA:1104,_ZNKSt10unique_ptrINSt7__cxx1118basic_stringstreamIcSt11char_traitsIcESaIcEEESt14default_deleteIS5_EEdeEv
FNDA:0,_ZNKSt10unique_ptrINSt7__cxx1112basic_stringIcSt11char_traitsIcESaIcEEESt14default_deleteIS5_EEptEv
FNDA:0,_ZNKSt10unique_ptrINSt7__cxx1112basic_stringIcSt11char_traitsIcESaIcEEESt14default_deleteIS5_EE3getEv
FNDA:1242,_ZNKSt10unique_ptrINSt7__cxx1118basic_stringstreamIcSt11char_traitsIcESaIcEEESt14default_deleteIS5_EE3getEv
FNDA:0,_ZNSt10unique_ptrINSt7__cxx1112basic_stringIcSt11char_traitsIcESaIcEEESt14default_deleteIS5_EE11get_deleterEv
FNDA:138,_ZNSt10unique_ptrINSt7__cxx1118basic_stringstreamIcSt11char_traitsIcESaIcEEESt14default_deleteIS5_EE11get_deleterEv
FNDA:0,_ZNKSt10unique_ptrINSt7__cxx1112basic_stringIcSt11char_traitsIcESaIcEEESt14default_deleteIS5_EEcvbEv
FNDA:0,_ZSteqINSt7__cxx1112basic_stringIcSt11char_traitsIcESaIcEEESt14default_deleteIS5_EEbRKSt10unique_ptrIT_T0_EDn
FNDA:0,_ZNKSt14default_deleteINSt7__cxx1112basic_stringIcSt11char_traitsIcESaIcEEEEclEPS5_
FNDA:138,_ZNKSt14default_deleteINSt7__cxx1118basic_stringstreamIcSt11char_traitsIcESaIcEEEEclEPS5_
FNF:28
FNH:12
DA:93,138
DA:99,138
DA:100,138
DA:174,75
DA:176,0
DA:189,0
DA:191,0
DA:192,0
DA:193,0
DA:197,351
DA:199,1242
DA:201,138
DA:206,0
DA:208,0
DA:209,0
DA:210,0
DA:211,0
DA:212,0
DA:215,0
DA:217,0
DA:218,0
DA:219,0
DA:243,0
DA:304,75
DA:305,75
DA:306,75
DA:317,0
DA:318,0
DA:319,0
DA:398,213
DA:402,213
DA:403,213
DA:404,138
DA:405,213
DA:406,213
DA:414,0
DA:451,1104
DA:453,1104
DA:454,1104
DA:460,0
DA:463,0
DA:469,1242
DA:470,1242
DA:475,138
DA:476,138
DA:486,0
DA:487,0
DA:837,0
DA:838,0
DA:1069,0
DA:1070,0
LF:51
LH:23
end_of_record
TN:
SF:/usr/include/c++/13/bits/vector.tcc
FN:445,524,_ZNSt6vectorIiSaIiEE17_M_realloc_insertIJRKiEEEvN9__gnu_cxx17__normal_iteratorIPiS1_EEDpOT_
FNDA:8,_ZNSt6vectorIiSaIiEE17_M_realloc_insertIJRKiEEEvN9__gnu_cxx17__normal_iteratorIPiS1_EEDpOT_
FNF:1
FNH:1
DA:445,8
DA:455,8
DA:456,8
DA:457,8
DA:458,8
DA:459,8
DA:460,8
DA:468,8
DA:469,8
DA:475,8
DA:480,8
DA:481,8
DA:483,8
DA:485,8
DA:486,8
DA:519,8
DA:520,8
DA:521,8
DA:522,8
DA:523,8
DA:524,8
LF:21
LH:21
end_of_record
TN:
SF:/usr/include/c++/13/compare
FN:283,284,_ZSteqSt15strong_orderingNSt9__cmp_cat8__unspecE
FN:288,288,_ZSteqSt15strong_orderingS_
FN:292,293,_ZStltSt15strong_orderingNSt9__cmp_cat8__unspecE
FN:549,564,_ZNKSt17compare_three_wayclIRiS1_EEDaOT_OT0_
FNDA:24,_ZSteqSt15strong_orderingNSt9__cmp_cat8__unspecE
FNDA:7,_ZSteqSt15strong_orderingS_
FNDA:1,_ZStltSt15strong_orderingNSt9__cmp_cat8__unspecE
FNDA:24,_ZNKSt17compare_three_wayclIRiS1_EEDaOT_OT0_
FNF:4
FNH:4
DA:258,7
DA:283,24
DA:284,24
DA:288,7
DA:292,1
DA:293,1
DA:549,24
DA:563,24
LF:8
LH:8
end_of_record
TN:
SF:/usr/include/c++/13/ext/alloc_traits.h
FNF:0
FNH:0
DA:98,442
LF:1
LH:1
end_of_record
TN:
SF:/usr/include/c++/13/initializer_list
FN:69,69,_ZNKSt16initializer_listINSt7__cxx1112basic_stringIcSt11char_traitsIcESaIcEEEE4sizeEv
FN:69,69,_ZNKSt16initializer_listIiE4sizeEv
FN:73,73,_ZNKSt16initializer_listINSt7__cxx1112basic_stringIcSt11char_traitsIcESaIcEEEE5beginEv
FN:73,73,_ZNKSt16initializer_listIiE5beginEv
FN:77,77,_ZNKSt16initializer_listINSt7__cxx1112basic_stringIcSt11char_traitsIcESaIcEEEE3endEv
FN:77,77,_ZNKSt16initializer_listIiE3endEv
FNDA:1,_ZNKSt16initializer_listINSt7__cxx1112basic_stringIcSt11char_traitsIcESaIcEEEE4sizeEv
FNDA:32,_ZNKSt16initializer_listIiE4sizeEv
FNDA:2,_ZNKSt16initializer_listINSt7__cxx1112basic_stringIcSt11char_traitsIcESaIcEEEE5beginEv
FNDA:64,_ZNKSt16initializer_listIiE5beginEv
FNDA:1,_ZNKSt16initializer_listINSt7__cxx1112basic_stringIcSt11char_traitsIcESaIcEEEE3endEv
FNDA:32,_ZNKSt16initializer_listIiE3endEv
FNF:6
FNH:6
DA:69,33
DA:73,66
DA:77,33
LF:3
LH:3
end_of_record
TN:
SF:/usr/include/c++/13/limits
FN:1274,1274,_ZNSt14numeric_limitsImE3maxEv
FNDA:7,_ZNSt14numeric_limitsImE3maxEv
FNF:1
FNH:1
DA:1274,7
LF:1
LH:1
end_of_record
TN:
SF:/usr/include/c++/13/new
FN:174,175,_ZnwmPv
FNDA:214,_ZnwmPv
FNF:1
FNH:1
DA:174,214
DA:175,214
LF:2
LH:2
end_of_record
TN:
SF:/usr/include/c++/13/tuple
FN:125,125,_ZNSt10_Head_baseILm1ESt14default_deleteINSt7__cxx1112basic_stringIcSt11char_traitsIcESaIcEEEELb1EE7_M_headERS8_
FN:125,125,_ZNSt10_Head_baseILm1ESt14default_deleteINSt7__cxx1118basic_stringstreamIcSt11char_traitsIcESaIcEEEELb1EE7_M_headERS8_
FN:1317,1319,_ZNSt5tupleIJPNSt7__cxx1112basic_stringIcSt11char_traitsIcESaIcEEESt14default_deleteIS5_EEEC2ILb1ELb1EEEv
FN:1787,1788,_ZSt12__get_helperILm0EPNSt7__cxx1112basic_stringIcSt11char_traitsIcESaIcEEEJSt14default_deleteIS5_EEERT0_RSt11_Tuple_implIXT_EJS9_DpT1_EE
FN:1787,1788,_ZSt12__get_helperILm0EPNSt7__cxx1118basic_stringstreamIcSt11char_traitsIcESaIcEEEJSt14default_deleteIS5_EEERT0_RSt11_Tuple_implIXT_EJS9_DpT1_EE
FN:1787,1788,_ZSt12__get_helperILm1ESt14default_deleteINSt7__cxx1112basic_stringIcSt11char_traitsIcESaIcEEEEJEERT0_RSt11_Tuple_implIXT_EJS8_DpT1_EE
FN:1787,1788,_ZSt12__get_helperILm1ESt14default_deleteINSt7__cxx1118basic_stringstreamIcSt11char_traitsIcESaIcEEEEJEERT0_RSt11_Tuple_implIXT_EJS8_DpT1_EE
FN:1792,1793,_ZSt12__get_helperILm0EPNSt7__cxx1112basic_stringIcSt11char_traitsIcESaIcEEEJSt14default_deleteIS5_EEERKT0_RKSt11_Tuple_implIXT_EJS9_DpT1_EE
FN:1792,1793,_ZSt12__get_helperILm0EPNSt7__cxx1118basic_stringstreamIcSt11char_traitsIcESaIcEEEJSt14default_deleteIS5_EEERKT0_RKSt11_Tuple_implIXT_EJS9_DpT1_EE
FN:1803,1804,_ZSt3getILm0EJPNSt7__cxx1112basic_stringIcSt11char_traitsIcESaIcEEESt14default_deleteIS5_EEERNSt13tuple_elementIXT_ESt5tupleIJDpT0_EEE4typeERSD_
FN:1803,1804,_ZSt3getILm0EJPNSt7__cxx1118basic_stringstreamIcSt11char_traitsIcESaIcEEESt14default_deleteIS5_EEERNSt13tuple_elementIXT_ESt5tupleIJDpT0_EEE4typeERSD_
FN:1803,1804,_ZSt3getILm1EJPNSt7__cxx1112basic_stringIcSt11char_traitsIcESaIcEEESt14default_deleteIS5_EEERNSt13tuple_elementIXT_ESt5tupleIJDpT0_EEE4typeERSD_
FN:1803,1804,_ZSt3getILm1EJPNSt7__cxx1118basic_stringstreamIcSt11char_traitsIcESaIcEEESt14default_deleteIS5_EEERNSt13tuple_elementIXT_ESt5tupleIJDpT0_EEE4typeERSD_
FN:1809,1810,_ZSt3getILm0EJPNSt7__cxx1112basic_stringIcSt11char_traitsIcESaIcEEESt14default_deleteIS5_EEERKNSt13tuple_elementIXT_ESt5tupleIJDpT0_EEE4typeERKSD_
FN:1809,1810,_ZSt3getILm0EJPNSt7__cxx1118basic_stringstreamIcSt11char_traitsIcESaIcEEESt14default_deleteIS5_EEERKNSt13tuple_elementIXT_ESt5tupleIJDpT0_EEE4typeERKSD_
FN:190,191,_ZNSt10_Head_baseILm0EPNSt7__cxx1112basic_stringIcSt11char_traitsIcESaIcEEELb0EEC2Ev
FN:234,234,_ZNSt10_Head_baseILm0EPNSt7__cxx1112basic_stringIcSt11char_traitsIcESaIcEEELb0EE7_M_headERS7_
FN:234,234,_ZNSt10_Head_baseILm0EPNSt7__cxx1118basic_stringstreamIcSt11char_traitsIcESaIcEEELb0EE7_M_headERS7_
FN:237,237,_ZNSt10_Head_baseILm0EPNSt7__cxx1112basic_stringIcSt11char_traitsIcESaIcEEELb0EE7_M_headERKS7_
FN:237,237,_ZNSt10_Head_baseILm0EPNSt7__cxx1118basic_stringstreamIcSt11char_traitsIcESaIcEEELb0EE7_M_headERKS7_
FN:269,269,_ZNSt11_Tuple_implILm0EJPNSt7__cxx1112basic_stringIcSt11char_traitsIcESaIcEEESt14default_deleteIS5_EEE7_M_headERS9_
FN:269,269,_ZNSt11_Tuple_implILm0EJPNSt7__cxx1118basic_stringstreamIcSt11char_traitsIcESaIcEEESt14default_deleteIS5_EEE7_M_headERS9_
FN:272,272,_ZNSt11_Tuple_implILm0EJPNSt7__cxx1112basic_stringIcSt11char_traitsIcESaIcEEESt14default_deleteIS5_EEE7_M_headERKS9_
FN:272,272,_ZNSt11_Tuple_implILm0EJPNSt7__cxx1118basic_stringstreamIcSt11char_traitsIcESaIcEEESt14default_deleteIS5_EEE7_M_headERKS9_
FN:280,281,_ZNSt11_Tuple_implILm0EJPNSt7__cxx1112basic_stringIcSt11char_traitsIcESaIcEEESt14default_deleteIS5_EEEC2Ev
FN:497,497,_ZNSt11_Tuple_implILm1EJSt14default_deleteINSt7__cxx1112basic_stringIcSt11char_traitsIcESaIcEEEEEE7_M_headERS8_
FN:497,497,_ZNSt11_Tuple_implILm1EJSt14default_deleteINSt7__cxx1118basic_stringstreamIcSt11char_traitsIcESaIcEEEEEE7_M_headERS8_
FN:503,504,_ZNSt11_Tuple_implILm1EJSt14default_deleteINSt7__cxx1112basic_stringIcSt11char_traitsIcESaIcEEEEEEC2Ev
FN:81,82,_ZNSt10_Head_baseILm1ESt14default_deleteINSt7__cxx1112basic_stringIcSt11char_traitsIcESaIcEEEELb1EEC2Ev
FNDA:0,_ZNSt10_Head_baseILm1ESt14default_deleteINSt7__cxx1112basic_stringIcSt11char_traitsIcESaIcEEEELb1EE7_M_headERS8_
FNDA:138,_ZNSt10_Head_baseILm1ESt14default_deleteINSt7__cxx1118basic_stringstreamIcSt11char_traitsIcESaIcEEEELb1EE7_M_headERS8_
FNDA:75,_ZNSt5tupleIJPNSt7__cxx1112basic_stringIcSt11char_traitsIcESaIcEEESt14default_deleteIS5_EEEC2ILb1ELb1EEEv
FNDA:75,_ZSt12__get_helperILm0EPNSt7__cxx1112basic_stringIcSt11char_traitsIcESaIcEEEJSt14default_deleteIS5_EEERT0_RSt11_Tuple_implIXT_EJS9_DpT1_EE
FNDA:276,_ZSt12__get_helperILm0EPNSt7__cxx1118basic_stringstreamIcSt11char_traitsIcESaIcEEEJSt14default_deleteIS5_EEERT0_RSt11_Tuple_implIXT_EJS9_DpT1_EE
FNDA:0,_ZSt12__get_helperILm1ESt14default_deleteINSt7__cxx1112basic_stringIcSt11char_traitsIcESaIcEEEEJEERT0_RSt11_Tuple_implIXT_EJS8_DpT1_EE
FNDA:138,_ZSt12__get_helperILm1ESt14default_deleteINSt7__cxx1118basic_stringstreamIcSt11char_traitsIcESaIcEEEEJEERT0_RSt11_Tuple_implIXT_EJS8_DpT1_EE
FNDA:0,_ZSt12__get_helperILm0EPNSt7__cxx1112basic_stringIcSt11char_traitsIcESaIcEEEJSt14default_deleteIS5_EEERKT0_RKSt11_Tuple_implIXT_EJS9_DpT1_EE
FNDA:1242,_ZSt12__get_helperILm0EPNSt7__cxx1118basic_stringstreamIcSt11char_traitsIcESaIcEEEJSt14default_deleteIS5_EEERKT0_RKSt11_Tuple_implIXT_EJS9_DpT1_EE
FNDA:75,_ZSt3getILm0EJPNSt7__cxx1112basic_stringIcSt11char_traitsIcESaIcEEESt14default_deleteIS5_EEERNSt13tuple_elementIXT_ESt5tupleIJDpT0_EEE4typeERSD_
FNDA:276,_ZSt3getILm0EJPNSt7__cxx1118basic_stringstreamIcSt11char_traitsIcESaIcEEESt14default_deleteIS5_EEERNSt13tuple_elementIXT_ESt5tupleIJDpT0_EEE4typeERSD_
FNDA:0,_ZSt3getILm1EJPNSt7__cxx1112basic_stringIcSt11char_traitsIcESaIcEEESt14default_deleteIS5_EEERNSt13tuple_elementIXT_ESt5tupleIJDpT0_EEE4typeERSD_
FNDA:138,_ZSt3getILm1EJPNSt7__cxx1118basic_stringstreamIcSt11char_traitsIcESaIcEEESt14default_deleteIS5_EEERNSt13tuple_elementIXT_ESt5tupleIJDpT0_EEE4typeERSD_
FNDA:0,_ZSt3getILm0EJPNSt7__cxx1112basic_stringIcSt11char_traitsIcESaIcEEESt14default_deleteIS5_EEERKNSt13tuple_elementIXT_ESt5tupleIJDpT0_EEE4typeERKSD_
FNDA:1242,_ZSt3getILm0EJPNSt7__cxx1118basic_stringstreamIcSt11char_traitsIcESaIcEEESt14default_deleteIS5_EEERKNSt13tuple_elementIXT_ESt5tupleIJDpT0_EEE4typeERKSD_
FNDA:75,_ZNSt10_Head_baseILm0EPNSt7__cxx1112basic_stringIcSt11char_traitsIcESaIcEEELb0EEC2Ev
FNDA:75,_ZNSt10_Head_baseILm0EPNSt7__cxx1112basic_stringIcSt11char_traitsIcESaIcEEELb0EE7_M_headERS7_
FNDA:276,_ZNSt10_Head_baseILm0EPNSt7__cxx1118basic_stringstreamIcSt11char_traitsIcESaIcEEELb0EE7_M_headERS7_
FNDA:0,_ZNSt10_Head_baseILm0EPNSt7__cxx1112basic_stringIcSt11char_traitsIcESaIcEEELb0EE7_M_headERKS7_
FNDA:1242,_ZNSt10_Head_baseILm0EPNSt7__cxx1118basic_stringstreamIcSt11char_traitsIcESaIcEEELb0EE7_M_headERKS7_
FNDA:75,_ZNSt11_Tuple_implILm0EJPNSt7__cxx1112basic_stringIcSt11char_traitsIcESaIcEEESt14default_deleteIS5_EEE7_M_headERS9_
FNDA:276,_ZNSt11_Tuple_implILm0EJPNSt7__cxx1118basic_stringstreamIcSt11char_traitsIcESaIcEEESt14default_deleteIS5_EEE7_M_headERS9_
FNDA:0,_ZNSt11_Tuple_implILm0EJPNSt7__cxx1112basic_stringIcSt11char_traitsIcESaIcEEESt14default_deleteIS5_EEE7_M_headERKS9_
FNDA:1242,_ZNSt11_Tuple_implILm0EJPNSt7__cxx1118basic_stringstreamIcSt11char_traitsIcESaIcEEESt14default_deleteIS5_EEE7_M_headERKS9_
FNDA:75,_ZNSt11_Tuple_implILm0EJPNSt7__cxx1112basic_stringIcSt11char_traitsIcESaIcEEESt14default_deleteIS5_EEEC2Ev
FNDA:0,_ZNSt11_Tuple_implILm1EJSt14default_deleteINSt7__cxx1112basic_stringIcSt11char_traitsIcESaIcEEEEEE7_M_headERS8_
FNDA:138,_ZNSt11_Tuple_implILm1EJSt14default_deleteINSt7__cxx1118basic_stringstreamIcSt11char_traitsIcESaIcEEEEEE7_M_headERS8_
FNDA:75,_ZNSt11_Tuple_implILm1EJSt14default_deleteINSt7__cxx1112basic_stringIcSt11char_traitsIcESaIcEEEEEEC2Ev
FNDA:75,_ZNSt10_Head_baseILm1ESt14default_deleteINSt7__cxx1112basic_stringIcSt11char_traitsIcESaIcEEEELb1EEC2Ev
FNF:29
FNH:21
DA:81,75
DA:82,75
DA:125,138
DA:190,75
DA:191,75
DA:234,351
DA:237,1242
DA:269,351
DA:272,1242
DA:280,75
DA:281,75
DA:497,138
DA:503,75
DA:504,75
DA:1317,75
DA:1319,75
DA:1787,489
DA:1788,489
DA:1792,1242
DA:1793,1242
DA:1803,489
DA:1804,489
DA:1809,1242
DA:1810,1242
LF:24
LH:24
end_of_record
TN:
SF:/usr/include/c++/13/type_traits
FN:3649,3656,_ZSt21is_constant_evaluatedv
FNDA:1473,_ZSt21is_constant_evaluatedv
FNF:1
FNH:1
DA:3649,1473
DA:3654,1473
LF:2
LH:2
end_of_record
TN:
SF:/usr/include/c++/13/typeinfo
FN:103,104,_ZNKSt9type_info4nameEv
FNDA:0,_ZNKSt9type_info4nameEv
FNF:1
FNH:0
DA:103,0
DA:104,0
LF:2
LH:0
end_of_record
TN:
SF:/usr/include/x86_64-linux-gnu/c++/13/bits/c++config.h
FN:540,551,_ZSt23__is_constant_evaluatedv
FNDA:11643,_ZSt23__is_constant_evaluatedv
FNF:1
FNH:1
DA:540,11643
DA:547,11643
LF:2
LH:2
end_of_record
